
rtosdemo.elf:     file format elf32-littlearm


Disassembly of section startup:

80100000 <_EVT>:
80100000:	ea00001c 	b	80100078 <start>
80100004:	e59ff040 	ldr	pc, [pc, #64]	; 8010004c <__fiq+0x4>
80100008:	e59ff040 	ldr	pc, [pc, #64]	; 80100050 <__fiq+0x8>
8010000c:	e59ff040 	ldr	pc, [pc, #64]	; 80100054 <__fiq+0xc>
80100010:	e59ff040 	ldr	pc, [pc, #64]	; 80100058 <__fiq+0x10>
80100014:	e320f000 	nop	{0}
80100018:	e59ff03c 	ldr	pc, [pc, #60]	; 8010005c <__fiq+0x14>
8010001c:	e59ff03c 	ldr	pc, [pc, #60]	; 80100060 <__fiq+0x18>

80100020 <_undf>:
80100020:	e59ff03c 	ldr	pc, [pc, #60]	; 80100064 <__fiq+0x1c>

80100024 <_swi>:
80100024:	e59ff03c 	ldr	pc, [pc, #60]	; 80100068 <__fiq+0x20>

80100028 <_pabt>:
80100028:	e59ff03c 	ldr	pc, [pc, #60]	; 8010006c <__fiq+0x24>

8010002c <_dabt>:
8010002c:	e59ff03c 	ldr	pc, [pc, #60]	; 80100070 <__fiq+0x28>

80100030 <_used>:
80100030:	eafffffe 	b	80100030 <_used>

80100034 <_irq>:
80100034:	e59ff038 	ldr	pc, [pc, #56]	; 80100074 <__fiq+0x2c>

80100038 <_fiq>:
80100038:	4020fffc 	.word	0x4020fffc

8010003c <__undf>:
8010003c:	e59ff020 	ldr	pc, [pc, #32]	; 80100064 <__fiq+0x1c>

80100040 <__pabt>:
80100040:	e59ff024 	ldr	pc, [pc, #36]	; 8010006c <__fiq+0x24>

80100044 <__dabt>:
80100044:	e59ff024 	ldr	pc, [pc, #36]	; 80100070 <__fiq+0x28>

80100048 <__fiq>:
80100048:	eafffffe 	b	80100048 <__fiq>
8010004c:	80100020 	.word	0x80100020
80100050:	80100024 	.word	0x80100024
80100054:	80100028 	.word	0x80100028
80100058:	8010002c 	.word	0x8010002c
8010005c:	80100034 	.word	0x80100034
80100060:	80100038 	.word	0x80100038
80100064:	80101390 	.word	0x80101390
80100068:	8010137c 	.word	0x8010137c
8010006c:	801013a4 	.word	0x801013a4
80100070:	801013d8 	.word	0x801013d8
80100074:	801002c0 	.word	0x801002c0

Disassembly of section .text:

80100078 <start>:
80100078:	e59f00a4 	ldr	r0, [pc, #164]	; 80100124 <endless_loop+0x8>
8010007c:	ee0c0f10 	mcr	15, 0, r0, cr12, cr0, {0}
80100080:	e59f0098 	ldr	r0, [pc, #152]	; 80100120 <endless_loop+0x4>
80100084:	e321f0db 	msr	CPSR_c, #219	; 0xdb
80100088:	e1a0d000 	mov	sp, r0
8010008c:	e2400901 	sub	r0, r0, #16384	; 0x4000
80100090:	e321f0d7 	msr	CPSR_c, #215	; 0xd7
80100094:	e1a0d000 	mov	sp, r0
80100098:	e2400901 	sub	r0, r0, #16384	; 0x4000
8010009c:	e321f0d1 	msr	CPSR_c, #209	; 0xd1
801000a0:	e1a0d000 	mov	sp, r0
801000a4:	e2400901 	sub	r0, r0, #16384	; 0x4000
801000a8:	e321f0d2 	msr	CPSR_c, #210	; 0xd2
801000ac:	e1a0d000 	mov	sp, r0
801000b0:	e2400901 	sub	r0, r0, #16384	; 0x4000
801000b4:	e321f0d3 	msr	CPSR_c, #211	; 0xd3
801000b8:	e1a0d000 	mov	sp, r0
801000bc:	e2400901 	sub	r0, r0, #16384	; 0x4000
801000c0:	e321f0df 	msr	CPSR_c, #223	; 0xdf
801000c4:	e1a0d000 	mov	sp, r0
801000c8:	e321f013 	msr	CPSR_c, #19
801000cc:	e59f0054 	ldr	r0, [pc, #84]	; 80100128 <endless_loop+0xc>
801000d0:	e59f1054 	ldr	r1, [pc, #84]	; 8010012c <endless_loop+0x10>
801000d4:	e59f3054 	ldr	r3, [pc, #84]	; 80100130 <endless_loop+0x14>
801000d8:	e1a02620 	lsr	r2, r0, #12
801000dc:	e1a04621 	lsr	r4, r1, #12
801000e0:	e1520004 	cmp	r2, r4
801000e4:	0a000003 	beq	801000f8 <start+0x80>
801000e8:	e1510003 	cmp	r1, r3
801000ec:	34902004 	ldrcc	r2, [r0], #4
801000f0:	34812004 	strcc	r2, [r1], #4
801000f4:	3afffffb 	bcc	801000e8 <start+0x70>
801000f8:	e3a02000 	mov	r2, #0
801000fc:	e59f1030 	ldr	r1, [pc, #48]	; 80100134 <endless_loop+0x18>
80100100:	e59f3030 	ldr	r3, [pc, #48]	; 80100138 <endless_loop+0x1c>
80100104:	e1530001 	cmp	r3, r1
80100108:	34832004 	strcc	r2, [r3], #4
8010010c:	3afffffc 	bcc	80100104 <start+0x8c>
80100110:	e3a00000 	mov	r0, #0
80100114:	e3a01000 	mov	r1, #0
80100118:	eb00053f 	bl	8010161c <main>

8010011c <endless_loop>:
8010011c:	eafffffe 	b	8010011c <endless_loop>
80100120:	8037fffc 	.word	0x8037fffc
80100124:	80100000 	.word	0x80100000
80100128:	8010ace0 	.word	0x8010ace0
8010012c:	8010acf0 	.word	0x8010acf0
80100130:	8010b6a0 	.word	0x8010b6a0
80100134:	8010b730 	.word	0x8010b730
80100138:	8010b6ac 	.word	0x8010b6ac

8010013c <__do_global_dtors_aux>:
8010013c:	e92d4010 	push	{r4, lr}
80100140:	e59f4028 	ldr	r4, [pc, #40]	; 80100170 <__do_global_dtors_aux+0x34>
80100144:	e5d43000 	ldrb	r3, [r4]
80100148:	e3530000 	cmp	r3, #0
8010014c:	1a000005 	bne	80100168 <__do_global_dtors_aux+0x2c>
80100150:	e59f301c 	ldr	r3, [pc, #28]	; 80100174 <__do_global_dtors_aux+0x38>
80100154:	e3530000 	cmp	r3, #0
80100158:	159f0018 	ldrne	r0, [pc, #24]	; 80100178 <__do_global_dtors_aux+0x3c>
8010015c:	1320f000 	nopne	{0}
80100160:	e3a03001 	mov	r3, #1
80100164:	e5c43000 	strb	r3, [r4]
80100168:	e8bd4010 	pop	{r4, lr}
8010016c:	e12fff1e 	bx	lr
80100170:	8010b6ac 	.word	0x8010b6ac
80100174:	00000000 	.word	0x00000000
80100178:	8010ace0 	.word	0x8010ace0

8010017c <frame_dummy>:
8010017c:	e59f301c 	ldr	r3, [pc, #28]	; 801001a0 <frame_dummy+0x24>
80100180:	e3530000 	cmp	r3, #0
80100184:	012fff1e 	bxeq	lr
80100188:	e92d4010 	push	{r4, lr}
8010018c:	e59f1010 	ldr	r1, [pc, #16]	; 801001a4 <frame_dummy+0x28>
80100190:	e59f0010 	ldr	r0, [pc, #16]	; 801001a8 <frame_dummy+0x2c>
80100194:	e320f000 	nop	{0}
80100198:	e8bd4010 	pop	{r4, lr}
8010019c:	e12fff1e 	bx	lr
801001a0:	00000000 	.word	0x00000000
801001a4:	8010b6b0 	.word	0x8010b6b0
801001a8:	8010ace0 	.word	0x8010ace0

801001ac <_mainCRTStartup>:
801001ac:	e59f30f0 	ldr	r3, [pc, #240]	; 801002a4 <_mainCRTStartup+0xf8>
801001b0:	e3530000 	cmp	r3, #0
801001b4:	059f30e4 	ldreq	r3, [pc, #228]	; 801002a0 <_mainCRTStartup+0xf4>
801001b8:	e1a0d003 	mov	sp, r3
801001bc:	e10f2000 	mrs	r2, CPSR
801001c0:	e312000f 	tst	r2, #15
801001c4:	0a000015 	beq	80100220 <_mainCRTStartup+0x74>
801001c8:	e321f0d1 	msr	CPSR_c, #209	; 0xd1
801001cc:	e1a0d003 	mov	sp, r3
801001d0:	e24daa01 	sub	sl, sp, #4096	; 0x1000
801001d4:	e1a0300a 	mov	r3, sl
801001d8:	e321f0d7 	msr	CPSR_c, #215	; 0xd7
801001dc:	e1a0d003 	mov	sp, r3
801001e0:	e2433a01 	sub	r3, r3, #4096	; 0x1000
801001e4:	e321f0db 	msr	CPSR_c, #219	; 0xdb
801001e8:	e1a0d003 	mov	sp, r3
801001ec:	e2433a01 	sub	r3, r3, #4096	; 0x1000
801001f0:	e321f0d2 	msr	CPSR_c, #210	; 0xd2
801001f4:	e1a0d003 	mov	sp, r3
801001f8:	e2433a02 	sub	r3, r3, #8192	; 0x2000
801001fc:	e321f0d3 	msr	CPSR_c, #211	; 0xd3
80100200:	e1a0d003 	mov	sp, r3
80100204:	e2433902 	sub	r3, r3, #32768	; 0x8000
80100208:	e3c330ff 	bic	r3, r3, #255	; 0xff
8010020c:	e3c33cff 	bic	r3, r3, #65280	; 0xff00
80100210:	e5033004 	str	r3, [r3, #-4]
80100214:	e9532000 	ldmdb	r3, {sp}^
80100218:	e38220c0 	orr	r2, r2, #192	; 0xc0
8010021c:	e121f002 	msr	CPSR_c, r2
80100220:	e243a801 	sub	sl, r3, #65536	; 0x10000
80100224:	e3b01000 	movs	r1, #0
80100228:	e1a0b001 	mov	fp, r1
8010022c:	e1a07001 	mov	r7, r1
80100230:	e59f0078 	ldr	r0, [pc, #120]	; 801002b0 <_mainCRTStartup+0x104>
80100234:	e59f2078 	ldr	r2, [pc, #120]	; 801002b4 <_mainCRTStartup+0x108>
80100238:	e0522000 	subs	r2, r2, r0
8010023c:	eb000a6e 	bl	80102bfc <memset>
80100240:	e59f3060 	ldr	r3, [pc, #96]	; 801002a8 <_mainCRTStartup+0xfc>
80100244:	e3530000 	cmp	r3, #0
80100248:	0a000001 	beq	80100254 <_mainCRTStartup+0xa8>
8010024c:	e1a0e00f 	mov	lr, pc
80100250:	e1a0f003 	mov	pc, r3
80100254:	e59f3050 	ldr	r3, [pc, #80]	; 801002ac <_mainCRTStartup+0x100>
80100258:	e3530000 	cmp	r3, #0
8010025c:	0a000001 	beq	80100268 <_mainCRTStartup+0xbc>
80100260:	e1a0e00f 	mov	lr, pc
80100264:	e1a0f003 	mov	pc, r3
80100268:	e3b00000 	movs	r0, #0
8010026c:	e3b01000 	movs	r1, #0
80100270:	e1b04000 	movs	r4, r0
80100274:	e1b05001 	movs	r5, r1
80100278:	e59f0038 	ldr	r0, [pc, #56]	; 801002b8 <_mainCRTStartup+0x10c>
8010027c:	e3500000 	cmp	r0, #0
80100280:	0a000001 	beq	8010028c <_mainCRTStartup+0xe0>
80100284:	e59f0030 	ldr	r0, [pc, #48]	; 801002bc <_mainCRTStartup+0x110>
80100288:	eb000b25 	bl	80102f24 <atexit>
8010028c:	eb000a38 	bl	80102b74 <__libc_init_array>
80100290:	e1b00004 	movs	r0, r4
80100294:	e1b01005 	movs	r1, r5
80100298:	eb0004df 	bl	8010161c <main>
8010029c:	eb000a27 	bl	80102b40 <exit>
801002a0:	00080000 	.word	0x00080000
	...
801002b0:	8010b6ac 	.word	0x8010b6ac
801002b4:	8010b730 	.word	0x8010b730
801002b8:	80102f24 	.word	0x80102f24
801002bc:	80102f44 	.word	0x80102f44

801002c0 <vIRQHandler>:
801002c0:	e24ee004 	sub	lr, lr, #4
801002c4:	e92d500f 	push	{r0, r1, r2, r3, ip, lr}
801002c8:	e3a03040 	mov	r3, #64	; 0x40
801002cc:	e3443820 	movt	r3, #18464	; 0x4820
801002d0:	e5933000 	ldr	r3, [r3]
801002d4:	e3530025 	cmp	r3, #37	; 0x25
801002d8:	1a000001 	bne	801002e4 <vIRQHandler+0x24>
801002dc:	eb00001c 	bl	80100354 <vTickISR>
801002e0:	ea000014 	b	80100338 <vIRQHandler+0x78>
801002e4:	e3a03040 	mov	r3, #64	; 0x40
801002e8:	e3443820 	movt	r3, #18464	; 0x4820
801002ec:	e5933000 	ldr	r3, [r3]
801002f0:	e353004a 	cmp	r3, #74	; 0x4a
801002f4:	1a000001 	bne	80100300 <vIRQHandler+0x40>
801002f8:	eb000443 	bl	8010140c <vUART_ISR_Handler>
801002fc:	ea00000d 	b	80100338 <vIRQHandler+0x78>
80100300:	e3a03040 	mov	r3, #64	; 0x40
80100304:	e3443820 	movt	r3, #18464	; 0x4820
80100308:	e5933000 	ldr	r3, [r3]
8010030c:	e353001d 	cmp	r3, #29
80100310:	1a000001 	bne	8010031c <vIRQHandler+0x5c>
80100314:	eb000447 	bl	80101438 <vKey_ISR_Handler>
80100318:	ea000006 	b	80100338 <vIRQHandler+0x78>
8010031c:	e3a03040 	mov	r3, #64	; 0x40
80100320:	e3443820 	movt	r3, #18464	; 0x4820
80100324:	e5933000 	ldr	r3, [r3]
80100328:	e1a01003 	mov	r1, r3
8010032c:	e30a0850 	movw	r0, #43088	; 0xa850
80100330:	e3480010 	movt	r0, #32784	; 0x8010
80100334:	eb000250 	bl	80100c7c <serial_printf>
80100338:	e320f000 	nop	{0}
8010033c:	e8fd900f 	ldm	sp!, {r0, r1, r2, r3, ip, pc}^

80100340 <getTick>:
80100340:	e30b36c8 	movw	r3, #46792	; 0xb6c8
80100344:	e3483010 	movt	r3, #32784	; 0x8010
80100348:	e5933000 	ldr	r3, [r3]
8010034c:	e1a00003 	mov	r0, r3
80100350:	e12fff1e 	bx	lr

80100354 <vTickISR>:
80100354:	e30b36c8 	movw	r3, #46792	; 0xb6c8
80100358:	e3483010 	movt	r3, #32784	; 0x8010
8010035c:	e5933000 	ldr	r3, [r3]
80100360:	e2832001 	add	r2, r3, #1
80100364:	e30b36c8 	movw	r3, #46792	; 0xb6c8
80100368:	e3483010 	movt	r3, #32784	; 0x8010
8010036c:	e5832000 	str	r2, [r3]
80100370:	e3083018 	movw	r3, #32792	; 0x8018
80100374:	e3443831 	movt	r3, #18481	; 0x4831
80100378:	e3a02001 	mov	r2, #1
8010037c:	e5832000 	str	r2, [r3]
80100380:	e3083030 	movw	r3, #32816	; 0x8030
80100384:	e3443831 	movt	r3, #18481	; 0x4831
80100388:	e3a020ff 	mov	r2, #255	; 0xff
8010038c:	e5832000 	str	r2, [r3]
80100390:	e3a03048 	mov	r3, #72	; 0x48
80100394:	e3443820 	movt	r3, #18464	; 0x4820
80100398:	e3a02001 	mov	r2, #1
8010039c:	e5832000 	str	r2, [r3]
801003a0:	e3a00000 	mov	r0, #0
801003a4:	ee070f9a 	mcr	15, 0, r0, cr7, cr10, {4}
801003a8:	e320f000 	nop	{0}
801003ac:	e12fff1e 	bx	lr

801003b0 <start_timer>:
801003b0:	e308301c 	movw	r3, #32796	; 0x801c
801003b4:	e3443831 	movt	r3, #18481	; 0x4831
801003b8:	e3a02001 	mov	r2, #1
801003bc:	e5832000 	str	r2, [r3]
801003c0:	e320f000 	nop	{0}
801003c4:	e12fff1e 	bx	lr

801003c8 <stop_timer>:
801003c8:	e308301c 	movw	r3, #32796	; 0x801c
801003cc:	e3443831 	movt	r3, #18481	; 0x4831
801003d0:	e3a02000 	mov	r2, #0
801003d4:	e5832000 	str	r2, [r3]
801003d8:	e320f000 	nop	{0}
801003dc:	e12fff1e 	bx	lr

801003e0 <prvSetupTimerInterrupt>:
801003e0:	e52de004 	push	{lr}		; (str lr, [sp, #-4]!)
801003e4:	e24dd00c 	sub	sp, sp, #12
801003e8:	e3a03010 	mov	r3, #16
801003ec:	e3443820 	movt	r3, #18464	; 0x4820
801003f0:	e3a02002 	mov	r2, #2
801003f4:	e5832000 	str	r2, [r3]
801003f8:	e3a03050 	mov	r3, #80	; 0x50
801003fc:	e3443820 	movt	r3, #18464	; 0x4820
80100400:	e3a02001 	mov	r2, #1
80100404:	e5832000 	str	r2, [r3]
80100408:	e3a030a4 	mov	r3, #164	; 0xa4
8010040c:	e3443820 	movt	r3, #18464	; 0x4820
80100410:	e5933000 	ldr	r3, [r3]
80100414:	e1a01003 	mov	r1, r3
80100418:	e30a086c 	movw	r0, #43116	; 0xa86c
8010041c:	e3480010 	movt	r0, #32784	; 0x8010
80100420:	eb000215 	bl	80100c7c <serial_printf>
80100424:	e3a03084 	mov	r3, #132	; 0x84
80100428:	e3443820 	movt	r3, #18464	; 0x4820
8010042c:	e5933000 	ldr	r3, [r3]
80100430:	e1e02003 	mvn	r2, r3
80100434:	e3a03088 	mov	r3, #136	; 0x88
80100438:	e3443820 	movt	r3, #18464	; 0x4820
8010043c:	e3822202 	orr	r2, r2, #536870912	; 0x20000000
80100440:	e5832000 	str	r2, [r3]
80100444:	e3a030a4 	mov	r3, #164	; 0xa4
80100448:	e3443820 	movt	r3, #18464	; 0x4820
8010044c:	e5933000 	ldr	r3, [r3]
80100450:	e1e02003 	mvn	r2, r3
80100454:	e3a030a8 	mov	r3, #168	; 0xa8
80100458:	e3443820 	movt	r3, #18464	; 0x4820
8010045c:	e3822020 	orr	r2, r2, #32
80100460:	e5832000 	str	r2, [r3]
80100464:	e3a030c4 	mov	r3, #196	; 0xc4
80100468:	e3443820 	movt	r3, #18464	; 0x4820
8010046c:	e5933000 	ldr	r3, [r3]
80100470:	e1e03003 	mvn	r3, r3
80100474:	e3a020c8 	mov	r2, #200	; 0xc8
80100478:	e3442820 	movt	r2, #18464	; 0x4820
8010047c:	e1e03823 	mvn	r3, r3, lsr #16
80100480:	e1e03803 	mvn	r3, r3, lsl #16
80100484:	e5823000 	str	r3, [r2]
80100488:	e30c3004 	movw	r3, #49156	; 0xc004
8010048c:	e3443806 	movt	r3, #18438	; 0x4806
80100490:	e3a02005 	mov	r2, #5
80100494:	e5832000 	str	r2, [r3]
80100498:	e30332c8 	movw	r3, #13000	; 0x32c8
8010049c:	e58d3004 	str	r3, [sp, #4]
801004a0:	e30f3ff8 	movw	r3, #65528	; 0xfff8
801004a4:	e3443020 	movt	r3, #16416	; 0x4020
801004a8:	e30022c0 	movw	r2, #704	; 0x2c0
801004ac:	e3482010 	movt	r2, #32784	; 0x8010
801004b0:	e5832000 	str	r2, [r3]
801004b4:	e3083010 	movw	r3, #32784	; 0x8010
801004b8:	e3443831 	movt	r3, #18481	; 0x4831
801004bc:	e3a02002 	mov	r2, #2
801004c0:	e5832000 	str	r2, [r3]
801004c4:	e308302c 	movw	r3, #32812	; 0x802c
801004c8:	e3443831 	movt	r3, #18481	; 0x4831
801004cc:	e3a02000 	mov	r2, #0
801004d0:	e5832000 	str	r2, [r3]
801004d4:	e3083028 	movw	r3, #32808	; 0x8028
801004d8:	e3443831 	movt	r3, #18481	; 0x4831
801004dc:	e3a02000 	mov	r2, #0
801004e0:	e5832000 	str	r2, [r3]
801004e4:	e3083038 	movw	r3, #32824	; 0x8038
801004e8:	e3443831 	movt	r3, #18481	; 0x4831
801004ec:	e59d2004 	ldr	r2, [sp, #4]
801004f0:	e5832000 	str	r2, [r3]
801004f4:	e3083018 	movw	r3, #32792	; 0x8018
801004f8:	e3443831 	movt	r3, #18481	; 0x4831
801004fc:	e3a02001 	mov	r2, #1
80100500:	e5832000 	str	r2, [r3]
80100504:	e308301c 	movw	r3, #32796	; 0x801c
80100508:	e3443831 	movt	r3, #18481	; 0x4831
8010050c:	e3a02001 	mov	r2, #1
80100510:	e5832000 	str	r2, [r3]
80100514:	e3083024 	movw	r3, #32804	; 0x8024
80100518:	e3443831 	movt	r3, #18481	; 0x4831
8010051c:	e3a02043 	mov	r2, #67	; 0x43
80100520:	e5832000 	str	r2, [r3]
80100524:	e3083030 	movw	r3, #32816	; 0x8030
80100528:	e3443831 	movt	r3, #18481	; 0x4831
8010052c:	e3a020ff 	mov	r2, #255	; 0xff
80100530:	e5832000 	str	r2, [r3]
80100534:	e3a03b13 	mov	r3, #19456	; 0x4c00
80100538:	e3443800 	movt	r3, #18432	; 0x4800
8010053c:	e5933000 	ldr	r3, [r3]
80100540:	e1a01003 	mov	r1, r3
80100544:	e30a089c 	movw	r0, #43164	; 0xa89c
80100548:	e3480010 	movt	r0, #32784	; 0x8010
8010054c:	eb0001ca 	bl	80100c7c <serial_printf>
80100550:	e3043c10 	movw	r3, #19472	; 0x4c10
80100554:	e3443800 	movt	r3, #18432	; 0x4800
80100558:	e5933000 	ldr	r3, [r3]
8010055c:	e1a01003 	mov	r1, r3
80100560:	e30a08b8 	movw	r0, #43192	; 0xa8b8
80100564:	e3480010 	movt	r0, #32784	; 0x8010
80100568:	eb0001c3 	bl	80100c7c <serial_printf>
8010056c:	e3043c40 	movw	r3, #19520	; 0x4c40
80100570:	e3443800 	movt	r3, #18432	; 0x4800
80100574:	e5933000 	ldr	r3, [r3]
80100578:	e1a01003 	mov	r1, r3
8010057c:	e30a08d4 	movw	r0, #43220	; 0xa8d4
80100580:	e3480010 	movt	r0, #32784	; 0x8010
80100584:	eb0001bc 	bl	80100c7c <serial_printf>
80100588:	e3043d40 	movw	r3, #19776	; 0x4d40
8010058c:	e3443800 	movt	r3, #18432	; 0x4800
80100590:	e5933000 	ldr	r3, [r3]
80100594:	e1a01003 	mov	r1, r3
80100598:	e30a08f0 	movw	r0, #43248	; 0xa8f0
8010059c:	e3480010 	movt	r0, #32784	; 0x8010
801005a0:	eb0001b5 	bl	80100c7c <serial_printf>
801005a4:	e320f000 	nop	{0}
801005a8:	e28dd00c 	add	sp, sp, #12
801005ac:	e49df004 	pop	{pc}		; (ldr pc, [sp], #4)

801005b0 <printchar>:
801005b0:	e52de004 	push	{lr}		; (str lr, [sp, #-4]!)
801005b4:	e24dd00c 	sub	sp, sp, #12
801005b8:	e58d0004 	str	r0, [sp, #4]
801005bc:	e58d1000 	str	r1, [sp]
801005c0:	e59d3004 	ldr	r3, [sp, #4]
801005c4:	e3530000 	cmp	r3, #0
801005c8:	0a00000a 	beq	801005f8 <printchar+0x48>
801005cc:	e59d3004 	ldr	r3, [sp, #4]
801005d0:	e5933000 	ldr	r3, [r3]
801005d4:	e59d2000 	ldr	r2, [sp]
801005d8:	e6ef2072 	uxtb	r2, r2
801005dc:	e5c32000 	strb	r2, [r3]
801005e0:	e59d3004 	ldr	r3, [sp, #4]
801005e4:	e5933000 	ldr	r3, [r3]
801005e8:	e2832001 	add	r2, r3, #1
801005ec:	e59d3004 	ldr	r3, [sp, #4]
801005f0:	e5832000 	str	r2, [r3]
801005f4:	ea000003 	b	80100608 <printchar+0x58>
801005f8:	e59d3000 	ldr	r3, [sp]
801005fc:	e6ef3073 	uxtb	r3, r3
80100600:	e1a00003 	mov	r0, r3
80100604:	eb0001ae 	bl	80100cc4 <serial_putchar>
80100608:	e320f000 	nop	{0}
8010060c:	e28dd00c 	add	sp, sp, #12
80100610:	e49df004 	pop	{pc}		; (ldr pc, [sp], #4)

80100614 <prints>:
80100614:	e92d40f0 	push	{r4, r5, r6, r7, lr}
80100618:	e24dd014 	sub	sp, sp, #20
8010061c:	e58d000c 	str	r0, [sp, #12]
80100620:	e58d1008 	str	r1, [sp, #8]
80100624:	e58d2004 	str	r2, [sp, #4]
80100628:	e58d3000 	str	r3, [sp]
8010062c:	e3a04000 	mov	r4, #0
80100630:	e3a07020 	mov	r7, #32
80100634:	e59d3004 	ldr	r3, [sp, #4]
80100638:	e3530000 	cmp	r3, #0
8010063c:	da000015 	ble	80100698 <prints+0x84>
80100640:	e3a05000 	mov	r5, #0
80100644:	e59d6008 	ldr	r6, [sp, #8]
80100648:	ea000001 	b	80100654 <prints+0x40>
8010064c:	e2855001 	add	r5, r5, #1
80100650:	e2866001 	add	r6, r6, #1
80100654:	e5d63000 	ldrb	r3, [r6]
80100658:	e3530000 	cmp	r3, #0
8010065c:	1afffffa 	bne	8010064c <prints+0x38>
80100660:	e59d3004 	ldr	r3, [sp, #4]
80100664:	e1550003 	cmp	r5, r3
80100668:	ba000002 	blt	80100678 <prints+0x64>
8010066c:	e3a03000 	mov	r3, #0
80100670:	e58d3004 	str	r3, [sp, #4]
80100674:	ea000002 	b	80100684 <prints+0x70>
80100678:	e59d3004 	ldr	r3, [sp, #4]
8010067c:	e0433005 	sub	r3, r3, r5
80100680:	e58d3004 	str	r3, [sp, #4]
80100684:	e59d3000 	ldr	r3, [sp]
80100688:	e2033002 	and	r3, r3, #2
8010068c:	e3530000 	cmp	r3, #0
80100690:	0a000000 	beq	80100698 <prints+0x84>
80100694:	e3a07030 	mov	r7, #48	; 0x30
80100698:	e59d3000 	ldr	r3, [sp]
8010069c:	e2033001 	and	r3, r3, #1
801006a0:	e3530000 	cmp	r3, #0
801006a4:	1a000014 	bne	801006fc <prints+0xe8>
801006a8:	ea000006 	b	801006c8 <prints+0xb4>
801006ac:	e1a01007 	mov	r1, r7
801006b0:	e59d000c 	ldr	r0, [sp, #12]
801006b4:	ebffffbd 	bl	801005b0 <printchar>
801006b8:	e2844001 	add	r4, r4, #1
801006bc:	e59d3004 	ldr	r3, [sp, #4]
801006c0:	e2433001 	sub	r3, r3, #1
801006c4:	e58d3004 	str	r3, [sp, #4]
801006c8:	e59d3004 	ldr	r3, [sp, #4]
801006cc:	e3530000 	cmp	r3, #0
801006d0:	cafffff5 	bgt	801006ac <prints+0x98>
801006d4:	ea000008 	b	801006fc <prints+0xe8>
801006d8:	e59d3008 	ldr	r3, [sp, #8]
801006dc:	e5d33000 	ldrb	r3, [r3]
801006e0:	e1a01003 	mov	r1, r3
801006e4:	e59d000c 	ldr	r0, [sp, #12]
801006e8:	ebffffb0 	bl	801005b0 <printchar>
801006ec:	e2844001 	add	r4, r4, #1
801006f0:	e59d3008 	ldr	r3, [sp, #8]
801006f4:	e2833001 	add	r3, r3, #1
801006f8:	e58d3008 	str	r3, [sp, #8]
801006fc:	e59d3008 	ldr	r3, [sp, #8]
80100700:	e5d33000 	ldrb	r3, [r3]
80100704:	e3530000 	cmp	r3, #0
80100708:	1afffff2 	bne	801006d8 <prints+0xc4>
8010070c:	ea000006 	b	8010072c <prints+0x118>
80100710:	e1a01007 	mov	r1, r7
80100714:	e59d000c 	ldr	r0, [sp, #12]
80100718:	ebffffa4 	bl	801005b0 <printchar>
8010071c:	e2844001 	add	r4, r4, #1
80100720:	e59d3004 	ldr	r3, [sp, #4]
80100724:	e2433001 	sub	r3, r3, #1
80100728:	e58d3004 	str	r3, [sp, #4]
8010072c:	e59d3004 	ldr	r3, [sp, #4]
80100730:	e3530000 	cmp	r3, #0
80100734:	cafffff5 	bgt	80100710 <prints+0xfc>
80100738:	e1a03004 	mov	r3, r4
8010073c:	e1a00003 	mov	r0, r3
80100740:	e28dd014 	add	sp, sp, #20
80100744:	e8bd80f0 	pop	{r4, r5, r6, r7, pc}

80100748 <printi>:
80100748:	e92d41f0 	push	{r4, r5, r6, r7, r8, lr}
8010074c:	e24dd020 	sub	sp, sp, #32
80100750:	e58d000c 	str	r0, [sp, #12]
80100754:	e58d1008 	str	r1, [sp, #8]
80100758:	e58d2004 	str	r2, [sp, #4]
8010075c:	e58d3000 	str	r3, [sp]
80100760:	e3a08000 	mov	r8, #0
80100764:	e3a05000 	mov	r5, #0
80100768:	e59d7008 	ldr	r7, [sp, #8]
8010076c:	e59d3008 	ldr	r3, [sp, #8]
80100770:	e3530000 	cmp	r3, #0
80100774:	1a00000a 	bne	801007a4 <printi+0x5c>
80100778:	e3a03030 	mov	r3, #48	; 0x30
8010077c:	e5cd3014 	strb	r3, [sp, #20]
80100780:	e3a03000 	mov	r3, #0
80100784:	e5cd3015 	strb	r3, [sp, #21]
80100788:	e28d1014 	add	r1, sp, #20
8010078c:	e59d303c 	ldr	r3, [sp, #60]	; 0x3c
80100790:	e59d2038 	ldr	r2, [sp, #56]	; 0x38
80100794:	e59d000c 	ldr	r0, [sp, #12]
80100798:	ebffff9d 	bl	80100614 <prints>
8010079c:	e1a03000 	mov	r3, r0
801007a0:	ea000044 	b	801008b8 <printi+0x170>
801007a4:	e59d3000 	ldr	r3, [sp]
801007a8:	e3530000 	cmp	r3, #0
801007ac:	0a000009 	beq	801007d8 <printi+0x90>
801007b0:	e59d3004 	ldr	r3, [sp, #4]
801007b4:	e353000a 	cmp	r3, #10
801007b8:	1a000006 	bne	801007d8 <printi+0x90>
801007bc:	e59d3008 	ldr	r3, [sp, #8]
801007c0:	e3530000 	cmp	r3, #0
801007c4:	aa000003 	bge	801007d8 <printi+0x90>
801007c8:	e3a08001 	mov	r8, #1
801007cc:	e59d3008 	ldr	r3, [sp, #8]
801007d0:	e2633000 	rsb	r3, r3, #0
801007d4:	e1a07003 	mov	r7, r3
801007d8:	e28d4014 	add	r4, sp, #20
801007dc:	e284400b 	add	r4, r4, #11
801007e0:	e3a03000 	mov	r3, #0
801007e4:	e5c43000 	strb	r3, [r4]
801007e8:	ea000015 	b	80100844 <printi+0xfc>
801007ec:	e59d3004 	ldr	r3, [sp, #4]
801007f0:	e1a01003 	mov	r1, r3
801007f4:	e1a00007 	mov	r0, r7
801007f8:	eb00058b 	bl	80101e2c <__aeabi_uidivmod>
801007fc:	e1a03001 	mov	r3, r1
80100800:	e1a06003 	mov	r6, r3
80100804:	e3560009 	cmp	r6, #9
80100808:	da000002 	ble	80100818 <printi+0xd0>
8010080c:	e59d3040 	ldr	r3, [sp, #64]	; 0x40
80100810:	e243303a 	sub	r3, r3, #58	; 0x3a
80100814:	e0866003 	add	r6, r6, r3
80100818:	e6ef3076 	uxtb	r3, r6
8010081c:	e2444001 	sub	r4, r4, #1
80100820:	e2833030 	add	r3, r3, #48	; 0x30
80100824:	e6ef3073 	uxtb	r3, r3
80100828:	e5c43000 	strb	r3, [r4]
8010082c:	e59d3004 	ldr	r3, [sp, #4]
80100830:	e1a01003 	mov	r1, r3
80100834:	e1a00007 	mov	r0, r7
80100838:	eb00053e 	bl	80101d38 <__udivsi3>
8010083c:	e1a03000 	mov	r3, r0
80100840:	e1a07003 	mov	r7, r3
80100844:	e3570000 	cmp	r7, #0
80100848:	1affffe7 	bne	801007ec <printi+0xa4>
8010084c:	e3580000 	cmp	r8, #0
80100850:	0a000011 	beq	8010089c <printi+0x154>
80100854:	e59d3038 	ldr	r3, [sp, #56]	; 0x38
80100858:	e3530000 	cmp	r3, #0
8010085c:	0a00000b 	beq	80100890 <printi+0x148>
80100860:	e59d303c 	ldr	r3, [sp, #60]	; 0x3c
80100864:	e2033002 	and	r3, r3, #2
80100868:	e3530000 	cmp	r3, #0
8010086c:	0a000007 	beq	80100890 <printi+0x148>
80100870:	e3a0102d 	mov	r1, #45	; 0x2d
80100874:	e59d000c 	ldr	r0, [sp, #12]
80100878:	ebffff4c 	bl	801005b0 <printchar>
8010087c:	e2855001 	add	r5, r5, #1
80100880:	e59d3038 	ldr	r3, [sp, #56]	; 0x38
80100884:	e2433001 	sub	r3, r3, #1
80100888:	e58d3038 	str	r3, [sp, #56]	; 0x38
8010088c:	ea000002 	b	8010089c <printi+0x154>
80100890:	e2444001 	sub	r4, r4, #1
80100894:	e3a0302d 	mov	r3, #45	; 0x2d
80100898:	e5c43000 	strb	r3, [r4]
8010089c:	e59d303c 	ldr	r3, [sp, #60]	; 0x3c
801008a0:	e59d2038 	ldr	r2, [sp, #56]	; 0x38
801008a4:	e1a01004 	mov	r1, r4
801008a8:	e59d000c 	ldr	r0, [sp, #12]
801008ac:	ebffff58 	bl	80100614 <prints>
801008b0:	e1a03000 	mov	r3, r0
801008b4:	e0853003 	add	r3, r5, r3
801008b8:	e1a00003 	mov	r0, r3
801008bc:	e28dd020 	add	sp, sp, #32
801008c0:	e8bd81f0 	pop	{r4, r5, r6, r7, r8, pc}

801008c4 <print>:
801008c4:	e92d40f0 	push	{r4, r5, r6, r7, lr}
801008c8:	e24dd02c 	sub	sp, sp, #44	; 0x2c
801008cc:	e58d001c 	str	r0, [sp, #28]
801008d0:	e58d1018 	str	r1, [sp, #24]
801008d4:	e58d2014 	str	r2, [sp, #20]
801008d8:	e3a04000 	mov	r4, #0
801008dc:	ea0000b5 	b	80100bb8 <print+0x2f4>
801008e0:	e59d3018 	ldr	r3, [sp, #24]
801008e4:	e5d33000 	ldrb	r3, [r3]
801008e8:	e3530025 	cmp	r3, #37	; 0x25
801008ec:	1a0000a5 	bne	80100b88 <print+0x2c4>
801008f0:	e59d3018 	ldr	r3, [sp, #24]
801008f4:	e2833001 	add	r3, r3, #1
801008f8:	e58d3018 	str	r3, [sp, #24]
801008fc:	e3a06000 	mov	r6, #0
80100900:	e1a05006 	mov	r5, r6
80100904:	e59d3018 	ldr	r3, [sp, #24]
80100908:	e5d33000 	ldrb	r3, [r3]
8010090c:	e3530000 	cmp	r3, #0
80100910:	0a0000ad 	beq	80100bcc <print+0x308>
80100914:	e59d3018 	ldr	r3, [sp, #24]
80100918:	e5d33000 	ldrb	r3, [r3]
8010091c:	e3530025 	cmp	r3, #37	; 0x25
80100920:	0a00009a 	beq	80100b90 <print+0x2cc>
80100924:	e59d3018 	ldr	r3, [sp, #24]
80100928:	e5d33000 	ldrb	r3, [r3]
8010092c:	e353002d 	cmp	r3, #45	; 0x2d
80100930:	1a000008 	bne	80100958 <print+0x94>
80100934:	e59d3018 	ldr	r3, [sp, #24]
80100938:	e2833001 	add	r3, r3, #1
8010093c:	e58d3018 	str	r3, [sp, #24]
80100940:	e3a06001 	mov	r6, #1
80100944:	ea000003 	b	80100958 <print+0x94>
80100948:	e59d3018 	ldr	r3, [sp, #24]
8010094c:	e2833001 	add	r3, r3, #1
80100950:	e58d3018 	str	r3, [sp, #24]
80100954:	e3866002 	orr	r6, r6, #2
80100958:	e59d3018 	ldr	r3, [sp, #24]
8010095c:	e5d33000 	ldrb	r3, [r3]
80100960:	e3530030 	cmp	r3, #48	; 0x30
80100964:	0afffff7 	beq	80100948 <print+0x84>
80100968:	ea000008 	b	80100990 <print+0xcc>
8010096c:	e3a0300a 	mov	r3, #10
80100970:	e0050593 	mul	r5, r3, r5
80100974:	e59d3018 	ldr	r3, [sp, #24]
80100978:	e5d33000 	ldrb	r3, [r3]
8010097c:	e2433030 	sub	r3, r3, #48	; 0x30
80100980:	e0855003 	add	r5, r5, r3
80100984:	e59d3018 	ldr	r3, [sp, #24]
80100988:	e2833001 	add	r3, r3, #1
8010098c:	e58d3018 	str	r3, [sp, #24]
80100990:	e59d3018 	ldr	r3, [sp, #24]
80100994:	e5d33000 	ldrb	r3, [r3]
80100998:	e353002f 	cmp	r3, #47	; 0x2f
8010099c:	9a000003 	bls	801009b0 <print+0xec>
801009a0:	e59d3018 	ldr	r3, [sp, #24]
801009a4:	e5d33000 	ldrb	r3, [r3]
801009a8:	e3530039 	cmp	r3, #57	; 0x39
801009ac:	9affffee 	bls	8010096c <print+0xa8>
801009b0:	e59d3018 	ldr	r3, [sp, #24]
801009b4:	e5d33000 	ldrb	r3, [r3]
801009b8:	e3530073 	cmp	r3, #115	; 0x73
801009bc:	1a000011 	bne	80100a08 <print+0x144>
801009c0:	e59d3014 	ldr	r3, [sp, #20]
801009c4:	e2832004 	add	r2, r3, #4
801009c8:	e58d2014 	str	r2, [sp, #20]
801009cc:	e5933000 	ldr	r3, [r3]
801009d0:	e1a07003 	mov	r7, r3
801009d4:	e3570000 	cmp	r7, #0
801009d8:	0a000001 	beq	801009e4 <print+0x120>
801009dc:	e1a01007 	mov	r1, r7
801009e0:	ea000001 	b	801009ec <print+0x128>
801009e4:	e30a190c 	movw	r1, #43276	; 0xa90c
801009e8:	e3481010 	movt	r1, #32784	; 0x8010
801009ec:	e1a03006 	mov	r3, r6
801009f0:	e1a02005 	mov	r2, r5
801009f4:	e59d001c 	ldr	r0, [sp, #28]
801009f8:	ebffff05 	bl	80100614 <prints>
801009fc:	e1a03000 	mov	r3, r0
80100a00:	e0844003 	add	r4, r4, r3
80100a04:	ea000068 	b	80100bac <print+0x2e8>
80100a08:	e59d3018 	ldr	r3, [sp, #24]
80100a0c:	e5d33000 	ldrb	r3, [r3]
80100a10:	e3530064 	cmp	r3, #100	; 0x64
80100a14:	1a00000e 	bne	80100a54 <print+0x190>
80100a18:	e59d3014 	ldr	r3, [sp, #20]
80100a1c:	e2832004 	add	r2, r3, #4
80100a20:	e58d2014 	str	r2, [sp, #20]
80100a24:	e5931000 	ldr	r1, [r3]
80100a28:	e3a03061 	mov	r3, #97	; 0x61
80100a2c:	e58d3008 	str	r3, [sp, #8]
80100a30:	e58d6004 	str	r6, [sp, #4]
80100a34:	e58d5000 	str	r5, [sp]
80100a38:	e3a03001 	mov	r3, #1
80100a3c:	e3a0200a 	mov	r2, #10
80100a40:	e59d001c 	ldr	r0, [sp, #28]
80100a44:	ebffff3f 	bl	80100748 <printi>
80100a48:	e1a03000 	mov	r3, r0
80100a4c:	e0844003 	add	r4, r4, r3
80100a50:	ea000055 	b	80100bac <print+0x2e8>
80100a54:	e59d3018 	ldr	r3, [sp, #24]
80100a58:	e5d33000 	ldrb	r3, [r3]
80100a5c:	e3530078 	cmp	r3, #120	; 0x78
80100a60:	1a00000e 	bne	80100aa0 <print+0x1dc>
80100a64:	e59d3014 	ldr	r3, [sp, #20]
80100a68:	e2832004 	add	r2, r3, #4
80100a6c:	e58d2014 	str	r2, [sp, #20]
80100a70:	e5931000 	ldr	r1, [r3]
80100a74:	e3a03061 	mov	r3, #97	; 0x61
80100a78:	e58d3008 	str	r3, [sp, #8]
80100a7c:	e58d6004 	str	r6, [sp, #4]
80100a80:	e58d5000 	str	r5, [sp]
80100a84:	e3a03000 	mov	r3, #0
80100a88:	e3a02010 	mov	r2, #16
80100a8c:	e59d001c 	ldr	r0, [sp, #28]
80100a90:	ebffff2c 	bl	80100748 <printi>
80100a94:	e1a03000 	mov	r3, r0
80100a98:	e0844003 	add	r4, r4, r3
80100a9c:	ea000042 	b	80100bac <print+0x2e8>
80100aa0:	e59d3018 	ldr	r3, [sp, #24]
80100aa4:	e5d33000 	ldrb	r3, [r3]
80100aa8:	e3530058 	cmp	r3, #88	; 0x58
80100aac:	1a00000e 	bne	80100aec <print+0x228>
80100ab0:	e59d3014 	ldr	r3, [sp, #20]
80100ab4:	e2832004 	add	r2, r3, #4
80100ab8:	e58d2014 	str	r2, [sp, #20]
80100abc:	e5931000 	ldr	r1, [r3]
80100ac0:	e3a03041 	mov	r3, #65	; 0x41
80100ac4:	e58d3008 	str	r3, [sp, #8]
80100ac8:	e58d6004 	str	r6, [sp, #4]
80100acc:	e58d5000 	str	r5, [sp]
80100ad0:	e3a03000 	mov	r3, #0
80100ad4:	e3a02010 	mov	r2, #16
80100ad8:	e59d001c 	ldr	r0, [sp, #28]
80100adc:	ebffff19 	bl	80100748 <printi>
80100ae0:	e1a03000 	mov	r3, r0
80100ae4:	e0844003 	add	r4, r4, r3
80100ae8:	ea00002f 	b	80100bac <print+0x2e8>
80100aec:	e59d3018 	ldr	r3, [sp, #24]
80100af0:	e5d33000 	ldrb	r3, [r3]
80100af4:	e3530075 	cmp	r3, #117	; 0x75
80100af8:	1a00000e 	bne	80100b38 <print+0x274>
80100afc:	e59d3014 	ldr	r3, [sp, #20]
80100b00:	e2832004 	add	r2, r3, #4
80100b04:	e58d2014 	str	r2, [sp, #20]
80100b08:	e5931000 	ldr	r1, [r3]
80100b0c:	e3a03061 	mov	r3, #97	; 0x61
80100b10:	e58d3008 	str	r3, [sp, #8]
80100b14:	e58d6004 	str	r6, [sp, #4]
80100b18:	e58d5000 	str	r5, [sp]
80100b1c:	e3a03000 	mov	r3, #0
80100b20:	e3a0200a 	mov	r2, #10
80100b24:	e59d001c 	ldr	r0, [sp, #28]
80100b28:	ebffff06 	bl	80100748 <printi>
80100b2c:	e1a03000 	mov	r3, r0
80100b30:	e0844003 	add	r4, r4, r3
80100b34:	ea00001c 	b	80100bac <print+0x2e8>
80100b38:	e59d3018 	ldr	r3, [sp, #24]
80100b3c:	e5d33000 	ldrb	r3, [r3]
80100b40:	e3530063 	cmp	r3, #99	; 0x63
80100b44:	1a000018 	bne	80100bac <print+0x2e8>
80100b48:	e59d3014 	ldr	r3, [sp, #20]
80100b4c:	e2832004 	add	r2, r3, #4
80100b50:	e58d2014 	str	r2, [sp, #20]
80100b54:	e5933000 	ldr	r3, [r3]
80100b58:	e6ef3073 	uxtb	r3, r3
80100b5c:	e5cd3024 	strb	r3, [sp, #36]	; 0x24
80100b60:	e3a03000 	mov	r3, #0
80100b64:	e5cd3025 	strb	r3, [sp, #37]	; 0x25
80100b68:	e28d1024 	add	r1, sp, #36	; 0x24
80100b6c:	e1a03006 	mov	r3, r6
80100b70:	e1a02005 	mov	r2, r5
80100b74:	e59d001c 	ldr	r0, [sp, #28]
80100b78:	ebfffea5 	bl	80100614 <prints>
80100b7c:	e1a03000 	mov	r3, r0
80100b80:	e0844003 	add	r4, r4, r3
80100b84:	ea000008 	b	80100bac <print+0x2e8>
80100b88:	e320f000 	nop	{0}
80100b8c:	ea000000 	b	80100b94 <print+0x2d0>
80100b90:	e320f000 	nop	{0}
80100b94:	e59d3018 	ldr	r3, [sp, #24]
80100b98:	e5d33000 	ldrb	r3, [r3]
80100b9c:	e1a01003 	mov	r1, r3
80100ba0:	e59d001c 	ldr	r0, [sp, #28]
80100ba4:	ebfffe81 	bl	801005b0 <printchar>
80100ba8:	e2844001 	add	r4, r4, #1
80100bac:	e59d3018 	ldr	r3, [sp, #24]
80100bb0:	e2833001 	add	r3, r3, #1
80100bb4:	e58d3018 	str	r3, [sp, #24]
80100bb8:	e59d3018 	ldr	r3, [sp, #24]
80100bbc:	e5d33000 	ldrb	r3, [r3]
80100bc0:	e3530000 	cmp	r3, #0
80100bc4:	1affff45 	bne	801008e0 <print+0x1c>
80100bc8:	ea000000 	b	80100bd0 <print+0x30c>
80100bcc:	e320f000 	nop	{0}
80100bd0:	e59d301c 	ldr	r3, [sp, #28]
80100bd4:	e3530000 	cmp	r3, #0
80100bd8:	0a000003 	beq	80100bec <print+0x328>
80100bdc:	e59d301c 	ldr	r3, [sp, #28]
80100be0:	e5933000 	ldr	r3, [r3]
80100be4:	e3a02000 	mov	r2, #0
80100be8:	e5c32000 	strb	r2, [r3]
80100bec:	e1a03004 	mov	r3, r4
80100bf0:	e1a00003 	mov	r0, r3
80100bf4:	e28dd02c 	add	sp, sp, #44	; 0x2c
80100bf8:	e8bd80f0 	pop	{r4, r5, r6, r7, pc}

80100bfc <printf>:
80100bfc:	e92d000f 	push	{r0, r1, r2, r3}
80100c00:	e52de004 	push	{lr}		; (str lr, [sp, #-4]!)
80100c04:	e24dd00c 	sub	sp, sp, #12
80100c08:	e28d3014 	add	r3, sp, #20
80100c0c:	e58d3004 	str	r3, [sp, #4]
80100c10:	e59d2004 	ldr	r2, [sp, #4]
80100c14:	e59d1010 	ldr	r1, [sp, #16]
80100c18:	e3a00000 	mov	r0, #0
80100c1c:	ebffff28 	bl	801008c4 <print>
80100c20:	e1a03000 	mov	r3, r0
80100c24:	e1a00003 	mov	r0, r3
80100c28:	e28dd00c 	add	sp, sp, #12
80100c2c:	e49de004 	pop	{lr}		; (ldr lr, [sp], #4)
80100c30:	e28dd010 	add	sp, sp, #16
80100c34:	e12fff1e 	bx	lr

80100c38 <sprintf>:
80100c38:	e92d000e 	push	{r1, r2, r3}
80100c3c:	e52de004 	push	{lr}		; (str lr, [sp, #-4]!)
80100c40:	e24dd010 	sub	sp, sp, #16
80100c44:	e58d0004 	str	r0, [sp, #4]
80100c48:	e28d3018 	add	r3, sp, #24
80100c4c:	e58d300c 	str	r3, [sp, #12]
80100c50:	e28d3004 	add	r3, sp, #4
80100c54:	e59d200c 	ldr	r2, [sp, #12]
80100c58:	e59d1014 	ldr	r1, [sp, #20]
80100c5c:	e1a00003 	mov	r0, r3
80100c60:	ebffff17 	bl	801008c4 <print>
80100c64:	e1a03000 	mov	r3, r0
80100c68:	e1a00003 	mov	r0, r3
80100c6c:	e28dd010 	add	sp, sp, #16
80100c70:	e49de004 	pop	{lr}		; (ldr lr, [sp], #4)
80100c74:	e28dd00c 	add	sp, sp, #12
80100c78:	e12fff1e 	bx	lr

80100c7c <serial_printf>:
80100c7c:	e92d000f 	push	{r0, r1, r2, r3}
80100c80:	e52de004 	push	{lr}		; (str lr, [sp, #-4]!)
80100c84:	e24ddf43 	sub	sp, sp, #268	; 0x10c
80100c88:	e28d3f45 	add	r3, sp, #276	; 0x114
80100c8c:	e58d3104 	str	r3, [sp, #260]	; 0x104
80100c90:	e28d3004 	add	r3, sp, #4
80100c94:	e59d2104 	ldr	r2, [sp, #260]	; 0x104
80100c98:	e59d1110 	ldr	r1, [sp, #272]	; 0x110
80100c9c:	e1a00003 	mov	r0, r3
80100ca0:	eb00082c 	bl	80102d58 <vsprintf>
80100ca4:	e28d3004 	add	r3, sp, #4
80100ca8:	e1a00003 	mov	r0, r3
80100cac:	eb00003d 	bl	80100da8 <serial_putstring>
80100cb0:	e320f000 	nop	{0}
80100cb4:	e28ddf43 	add	sp, sp, #268	; 0x10c
80100cb8:	e49de004 	pop	{lr}		; (ldr lr, [sp], #4)
80100cbc:	e28dd010 	add	sp, sp, #16
80100cc0:	e12fff1e 	bx	lr

80100cc4 <serial_putchar>:
80100cc4:	e24dd018 	sub	sp, sp, #24
80100cc8:	e1a03000 	mov	r3, r0
80100ccc:	e5cd3007 	strb	r3, [sp, #7]
80100cd0:	e3a03903 	mov	r3, #49152	; 0xc000
80100cd4:	e3443806 	movt	r3, #18438	; 0x4806
80100cd8:	e58d3010 	str	r3, [sp, #16]
80100cdc:	e30c3014 	movw	r3, #49172	; 0xc014
80100ce0:	e3443806 	movt	r3, #18438	; 0x4806
80100ce4:	e58d300c 	str	r3, [sp, #12]
80100ce8:	e3a03000 	mov	r3, #0
80100cec:	e58d3014 	str	r3, [sp, #20]
80100cf0:	e5dd3007 	ldrb	r3, [sp, #7]
80100cf4:	e353000a 	cmp	r3, #10
80100cf8:	1a00001e 	bne	80100d78 <serial_putchar+0xb4>
80100cfc:	ea000009 	b	80100d28 <serial_putchar+0x64>
80100d00:	e59d3014 	ldr	r3, [sp, #20]
80100d04:	e2833001 	add	r3, r3, #1
80100d08:	e58d3014 	str	r3, [sp, #20]
80100d0c:	e59d3014 	ldr	r3, [sp, #20]
80100d10:	e3530064 	cmp	r3, #100	; 0x64
80100d14:	1a000003 	bne	80100d28 <serial_putchar+0x64>
80100d18:	e30c3008 	movw	r3, #49160	; 0xc008
80100d1c:	e3443806 	movt	r3, #18438	; 0x4806
80100d20:	e3a02002 	mov	r2, #2
80100d24:	e5832000 	str	r2, [r3]
80100d28:	e59d300c 	ldr	r3, [sp, #12]
80100d2c:	e5d33000 	ldrb	r3, [r3]
80100d30:	e6ef3073 	uxtb	r3, r3
80100d34:	e2033020 	and	r3, r3, #32
80100d38:	e3530000 	cmp	r3, #0
80100d3c:	0affffef 	beq	80100d00 <serial_putchar+0x3c>
80100d40:	e59d3010 	ldr	r3, [sp, #16]
80100d44:	e3a0200d 	mov	r2, #13
80100d48:	e5c32000 	strb	r2, [r3]
80100d4c:	ea000009 	b	80100d78 <serial_putchar+0xb4>
80100d50:	e59d3014 	ldr	r3, [sp, #20]
80100d54:	e2833001 	add	r3, r3, #1
80100d58:	e58d3014 	str	r3, [sp, #20]
80100d5c:	e59d3014 	ldr	r3, [sp, #20]
80100d60:	e3530064 	cmp	r3, #100	; 0x64
80100d64:	1a000003 	bne	80100d78 <serial_putchar+0xb4>
80100d68:	e30c3008 	movw	r3, #49160	; 0xc008
80100d6c:	e3443806 	movt	r3, #18438	; 0x4806
80100d70:	e3a02002 	mov	r2, #2
80100d74:	e5832000 	str	r2, [r3]
80100d78:	e59d300c 	ldr	r3, [sp, #12]
80100d7c:	e5d33000 	ldrb	r3, [r3]
80100d80:	e6ef3073 	uxtb	r3, r3
80100d84:	e2033020 	and	r3, r3, #32
80100d88:	e3530000 	cmp	r3, #0
80100d8c:	0affffef 	beq	80100d50 <serial_putchar+0x8c>
80100d90:	e59d3010 	ldr	r3, [sp, #16]
80100d94:	e5dd2007 	ldrb	r2, [sp, #7]
80100d98:	e5c32000 	strb	r2, [r3]
80100d9c:	e320f000 	nop	{0}
80100da0:	e28dd018 	add	sp, sp, #24
80100da4:	e12fff1e 	bx	lr

80100da8 <serial_putstring>:
80100da8:	e52de004 	push	{lr}		; (str lr, [sp, #-4]!)
80100dac:	e24dd014 	sub	sp, sp, #20
80100db0:	e58d0004 	str	r0, [sp, #4]
80100db4:	e3a03000 	mov	r3, #0
80100db8:	e58d300c 	str	r3, [sp, #12]
80100dbc:	ea000008 	b	80100de4 <serial_putstring+0x3c>
80100dc0:	e59d300c 	ldr	r3, [sp, #12]
80100dc4:	e59d2004 	ldr	r2, [sp, #4]
80100dc8:	e0823003 	add	r3, r2, r3
80100dcc:	e5d33000 	ldrb	r3, [r3]
80100dd0:	e1a00003 	mov	r0, r3
80100dd4:	ebffffba 	bl	80100cc4 <serial_putchar>
80100dd8:	e59d300c 	ldr	r3, [sp, #12]
80100ddc:	e2833001 	add	r3, r3, #1
80100de0:	e58d300c 	str	r3, [sp, #12]
80100de4:	e59d300c 	ldr	r3, [sp, #12]
80100de8:	e59d2004 	ldr	r2, [sp, #4]
80100dec:	e0823003 	add	r3, r2, r3
80100df0:	e5d33000 	ldrb	r3, [r3]
80100df4:	e1a00003 	mov	r0, r3
80100df8:	eb0000c2 	bl	80101108 <printableChar>
80100dfc:	e1a03000 	mov	r3, r0
80100e00:	e3530000 	cmp	r3, #0
80100e04:	1affffed 	bne	80100dc0 <serial_putstring+0x18>
80100e08:	e320f000 	nop	{0}
80100e0c:	e28dd014 	add	sp, sp, #20
80100e10:	e49df004 	pop	{pc}		; (ldr pc, [sp], #4)

80100e14 <serial_newline>:
80100e14:	e92d4010 	push	{r4, lr}
80100e18:	e3a0000a 	mov	r0, #10
80100e1c:	ebffffa8 	bl	80100cc4 <serial_putchar>
80100e20:	e3a0000d 	mov	r0, #13
80100e24:	ebffffa6 	bl	80100cc4 <serial_putchar>
80100e28:	e320f000 	nop	{0}
80100e2c:	e8bd8010 	pop	{r4, pc}

80100e30 <serial_putlong>:
80100e30:	e52de004 	push	{lr}		; (str lr, [sp, #-4]!)
80100e34:	e24dd01c 	sub	sp, sp, #28
80100e38:	e58d0004 	str	r0, [sp, #4]
80100e3c:	e3a03008 	mov	r3, #8
80100e40:	e58d3010 	str	r3, [sp, #16]
80100e44:	e3a03020 	mov	r3, #32
80100e48:	e58d300c 	str	r3, [sp, #12]
80100e4c:	e3a03000 	mov	r3, #0
80100e50:	e58d3008 	str	r3, [sp, #8]
80100e54:	e3a03000 	mov	r3, #0
80100e58:	e58d3014 	str	r3, [sp, #20]
80100e5c:	e3a03000 	mov	r3, #0
80100e60:	e58d3014 	str	r3, [sp, #20]
80100e64:	ea000011 	b	80100eb0 <serial_putlong+0x80>
80100e68:	e59d3014 	ldr	r3, [sp, #20]
80100e6c:	e2833001 	add	r3, r3, #1
80100e70:	e1a03103 	lsl	r3, r3, #2
80100e74:	e59d200c 	ldr	r2, [sp, #12]
80100e78:	e0423003 	sub	r3, r2, r3
80100e7c:	e59d2004 	ldr	r2, [sp, #4]
80100e80:	e1a03332 	lsr	r3, r2, r3
80100e84:	e58d3008 	str	r3, [sp, #8]
80100e88:	e59d3008 	ldr	r3, [sp, #8]
80100e8c:	e203300f 	and	r3, r3, #15
80100e90:	e58d3008 	str	r3, [sp, #8]
80100e94:	e59d3008 	ldr	r3, [sp, #8]
80100e98:	e6ef3073 	uxtb	r3, r3
80100e9c:	e1a00003 	mov	r0, r3
80100ea0:	eb000064 	bl	80101038 <serial_putbyte>
80100ea4:	e59d3014 	ldr	r3, [sp, #20]
80100ea8:	e2833001 	add	r3, r3, #1
80100eac:	e58d3014 	str	r3, [sp, #20]
80100eb0:	e59d2014 	ldr	r2, [sp, #20]
80100eb4:	e59d3010 	ldr	r3, [sp, #16]
80100eb8:	e1520003 	cmp	r2, r3
80100ebc:	baffffe9 	blt	80100e68 <serial_putlong+0x38>
80100ec0:	e320f000 	nop	{0}
80100ec4:	e28dd01c 	add	sp, sp, #28
80100ec8:	e49df004 	pop	{pc}		; (ldr pc, [sp], #4)

80100ecc <serial_putint>:
80100ecc:	e52de004 	push	{lr}		; (str lr, [sp, #-4]!)
80100ed0:	e24dd01c 	sub	sp, sp, #28
80100ed4:	e58d0004 	str	r0, [sp, #4]
80100ed8:	e3a03008 	mov	r3, #8
80100edc:	e58d3010 	str	r3, [sp, #16]
80100ee0:	e3a03020 	mov	r3, #32
80100ee4:	e58d300c 	str	r3, [sp, #12]
80100ee8:	e3a03000 	mov	r3, #0
80100eec:	e58d3008 	str	r3, [sp, #8]
80100ef0:	e3a03000 	mov	r3, #0
80100ef4:	e58d3014 	str	r3, [sp, #20]
80100ef8:	e3a03000 	mov	r3, #0
80100efc:	e58d3014 	str	r3, [sp, #20]
80100f00:	ea000011 	b	80100f4c <serial_putint+0x80>
80100f04:	e59d3014 	ldr	r3, [sp, #20]
80100f08:	e2833001 	add	r3, r3, #1
80100f0c:	e1a03103 	lsl	r3, r3, #2
80100f10:	e59d200c 	ldr	r2, [sp, #12]
80100f14:	e0423003 	sub	r3, r2, r3
80100f18:	e59d2004 	ldr	r2, [sp, #4]
80100f1c:	e1a03332 	lsr	r3, r2, r3
80100f20:	e58d3008 	str	r3, [sp, #8]
80100f24:	e59d3008 	ldr	r3, [sp, #8]
80100f28:	e203300f 	and	r3, r3, #15
80100f2c:	e58d3008 	str	r3, [sp, #8]
80100f30:	e59d3008 	ldr	r3, [sp, #8]
80100f34:	e6ef3073 	uxtb	r3, r3
80100f38:	e1a00003 	mov	r0, r3
80100f3c:	eb00003d 	bl	80101038 <serial_putbyte>
80100f40:	e59d3014 	ldr	r3, [sp, #20]
80100f44:	e2833001 	add	r3, r3, #1
80100f48:	e58d3014 	str	r3, [sp, #20]
80100f4c:	e59d2014 	ldr	r2, [sp, #20]
80100f50:	e59d3010 	ldr	r3, [sp, #16]
80100f54:	e1520003 	cmp	r2, r3
80100f58:	baffffe9 	blt	80100f04 <serial_putint+0x38>
80100f5c:	e320f000 	nop	{0}
80100f60:	e28dd01c 	add	sp, sp, #28
80100f64:	e49df004 	pop	{pc}		; (ldr pc, [sp], #4)

80100f68 <serial_putint_nozeros>:
80100f68:	e52de004 	push	{lr}		; (str lr, [sp, #-4]!)
80100f6c:	e24dd024 	sub	sp, sp, #36	; 0x24
80100f70:	e58d0004 	str	r0, [sp, #4]
80100f74:	e3a03008 	mov	r3, #8
80100f78:	e58d3014 	str	r3, [sp, #20]
80100f7c:	e3a03020 	mov	r3, #32
80100f80:	e58d3010 	str	r3, [sp, #16]
80100f84:	e3a03000 	mov	r3, #0
80100f88:	e58d300c 	str	r3, [sp, #12]
80100f8c:	e3a03000 	mov	r3, #0
80100f90:	e58d301c 	str	r3, [sp, #28]
80100f94:	e3a03000 	mov	r3, #0
80100f98:	e5cd301b 	strb	r3, [sp, #27]
80100f9c:	e3a03000 	mov	r3, #0
80100fa0:	e58d301c 	str	r3, [sp, #28]
80100fa4:	ea00001c 	b	8010101c <serial_putint_nozeros+0xb4>
80100fa8:	e59d301c 	ldr	r3, [sp, #28]
80100fac:	e2833001 	add	r3, r3, #1
80100fb0:	e1a03103 	lsl	r3, r3, #2
80100fb4:	e59d2010 	ldr	r2, [sp, #16]
80100fb8:	e0423003 	sub	r3, r2, r3
80100fbc:	e59d2004 	ldr	r2, [sp, #4]
80100fc0:	e1a03332 	lsr	r3, r2, r3
80100fc4:	e58d300c 	str	r3, [sp, #12]
80100fc8:	e59d300c 	ldr	r3, [sp, #12]
80100fcc:	e203300f 	and	r3, r3, #15
80100fd0:	e58d300c 	str	r3, [sp, #12]
80100fd4:	e59d300c 	ldr	r3, [sp, #12]
80100fd8:	e3530000 	cmp	r3, #0
80100fdc:	0a000001 	beq	80100fe8 <serial_putint_nozeros+0x80>
80100fe0:	e3a03001 	mov	r3, #1
80100fe4:	e5cd301b 	strb	r3, [sp, #27]
80100fe8:	e5dd301b 	ldrb	r3, [sp, #27]
80100fec:	e3530000 	cmp	r3, #0
80100ff0:	1a000002 	bne	80101000 <serial_putint_nozeros+0x98>
80100ff4:	e59d301c 	ldr	r3, [sp, #28]
80100ff8:	e3530007 	cmp	r3, #7
80100ffc:	1a000003 	bne	80101010 <serial_putint_nozeros+0xa8>
80101000:	e59d300c 	ldr	r3, [sp, #12]
80101004:	e6ef3073 	uxtb	r3, r3
80101008:	e1a00003 	mov	r0, r3
8010100c:	eb000009 	bl	80101038 <serial_putbyte>
80101010:	e59d301c 	ldr	r3, [sp, #28]
80101014:	e2833001 	add	r3, r3, #1
80101018:	e58d301c 	str	r3, [sp, #28]
8010101c:	e59d201c 	ldr	r2, [sp, #28]
80101020:	e59d3014 	ldr	r3, [sp, #20]
80101024:	e1520003 	cmp	r2, r3
80101028:	baffffde 	blt	80100fa8 <serial_putint_nozeros+0x40>
8010102c:	e320f000 	nop	{0}
80101030:	e28dd024 	add	sp, sp, #36	; 0x24
80101034:	e49df004 	pop	{pc}		; (ldr pc, [sp], #4)

80101038 <serial_putbyte>:
80101038:	e52de004 	push	{lr}		; (str lr, [sp, #-4]!)
8010103c:	e24dd014 	sub	sp, sp, #20
80101040:	e1a03000 	mov	r3, r0
80101044:	e5cd3007 	strb	r3, [sp, #7]
80101048:	e5dd3007 	ldrb	r3, [sp, #7]
8010104c:	e203300f 	and	r3, r3, #15
80101050:	e5cd300e 	strb	r3, [sp, #14]
80101054:	e3a03000 	mov	r3, #0
80101058:	e5cd300f 	strb	r3, [sp, #15]
8010105c:	e5dd300e 	ldrb	r3, [sp, #14]
80101060:	e3530009 	cmp	r3, #9
80101064:	8a000003 	bhi	80101078 <serial_putbyte+0x40>
80101068:	e5dd300e 	ldrb	r3, [sp, #14]
8010106c:	e2833030 	add	r3, r3, #48	; 0x30
80101070:	e5cd300f 	strb	r3, [sp, #15]
80101074:	ea00001c 	b	801010ec <serial_putbyte+0xb4>
80101078:	e5dd300e 	ldrb	r3, [sp, #14]
8010107c:	e243300a 	sub	r3, r3, #10
80101080:	e3530005 	cmp	r3, #5
80101084:	979ff103 	ldrls	pc, [pc, r3, lsl #2]
80101088:	ea00001b 	b	801010fc <serial_putbyte+0xc4>
8010108c:	801010a4 	.word	0x801010a4
80101090:	801010b0 	.word	0x801010b0
80101094:	801010bc 	.word	0x801010bc
80101098:	801010c8 	.word	0x801010c8
8010109c:	801010d4 	.word	0x801010d4
801010a0:	801010e0 	.word	0x801010e0
801010a4:	e3a03061 	mov	r3, #97	; 0x61
801010a8:	e5cd300f 	strb	r3, [sp, #15]
801010ac:	ea00000e 	b	801010ec <serial_putbyte+0xb4>
801010b0:	e3a03062 	mov	r3, #98	; 0x62
801010b4:	e5cd300f 	strb	r3, [sp, #15]
801010b8:	ea00000b 	b	801010ec <serial_putbyte+0xb4>
801010bc:	e3a03063 	mov	r3, #99	; 0x63
801010c0:	e5cd300f 	strb	r3, [sp, #15]
801010c4:	ea000008 	b	801010ec <serial_putbyte+0xb4>
801010c8:	e3a03064 	mov	r3, #100	; 0x64
801010cc:	e5cd300f 	strb	r3, [sp, #15]
801010d0:	ea000005 	b	801010ec <serial_putbyte+0xb4>
801010d4:	e3a03065 	mov	r3, #101	; 0x65
801010d8:	e5cd300f 	strb	r3, [sp, #15]
801010dc:	ea000002 	b	801010ec <serial_putbyte+0xb4>
801010e0:	e3a03066 	mov	r3, #102	; 0x66
801010e4:	e5cd300f 	strb	r3, [sp, #15]
801010e8:	e320f000 	nop	{0}
801010ec:	e5dd300f 	ldrb	r3, [sp, #15]
801010f0:	e1a00003 	mov	r0, r3
801010f4:	ebfffef2 	bl	80100cc4 <serial_putchar>
801010f8:	ea000000 	b	80101100 <serial_putbyte+0xc8>
801010fc:	e320f000 	nop	{0}
80101100:	e28dd014 	add	sp, sp, #20
80101104:	e49df004 	pop	{pc}		; (ldr pc, [sp], #4)

80101108 <printableChar>:
80101108:	e24dd008 	sub	sp, sp, #8
8010110c:	e1a03000 	mov	r3, r0
80101110:	e5cd3007 	strb	r3, [sp, #7]
80101114:	e5dd3007 	ldrb	r3, [sp, #7]
80101118:	e353000a 	cmp	r3, #10
8010111c:	0a000002 	beq	8010112c <printableChar+0x24>
80101120:	e5dd3007 	ldrb	r3, [sp, #7]
80101124:	e353000d 	cmp	r3, #13
80101128:	1a000001 	bne	80101134 <printableChar+0x2c>
8010112c:	e3a03001 	mov	r3, #1
80101130:	ea000008 	b	80101158 <printableChar+0x50>
80101134:	e5dd3007 	ldrb	r3, [sp, #7]
80101138:	e353001f 	cmp	r3, #31
8010113c:	9a000004 	bls	80101154 <printableChar+0x4c>
80101140:	e5dd3007 	ldrb	r3, [sp, #7]
80101144:	e353007e 	cmp	r3, #126	; 0x7e
80101148:	8a000001 	bhi	80101154 <printableChar+0x4c>
8010114c:	e3a03001 	mov	r3, #1
80101150:	ea000000 	b	80101158 <printableChar+0x50>
80101154:	e3a03000 	mov	r3, #0
80101158:	e1a00003 	mov	r0, r3
8010115c:	e28dd008 	add	sp, sp, #8
80101160:	e12fff1e 	bx	lr

80101164 <_read_r>:
80101164:	e52de004 	push	{lr}		; (str lr, [sp, #-4]!)
80101168:	e24dd014 	sub	sp, sp, #20
8010116c:	e58d000c 	str	r0, [sp, #12]
80101170:	e58d1008 	str	r1, [sp, #8]
80101174:	e58d2004 	str	r2, [sp, #4]
80101178:	e58d3000 	str	r3, [sp]
8010117c:	eb00066b 	bl	80102b30 <__errno>
80101180:	e1a02000 	mov	r2, r0
80101184:	e3a03016 	mov	r3, #22
80101188:	e5823000 	str	r3, [r2]
8010118c:	e3e03000 	mvn	r3, #0
80101190:	e1a00003 	mov	r0, r3
80101194:	e28dd014 	add	sp, sp, #20
80101198:	e49df004 	pop	{pc}		; (ldr pc, [sp], #4)

8010119c <_lseek_r>:
8010119c:	e24dd010 	sub	sp, sp, #16
801011a0:	e58d000c 	str	r0, [sp, #12]
801011a4:	e58d1008 	str	r1, [sp, #8]
801011a8:	e58d2004 	str	r2, [sp, #4]
801011ac:	e58d3000 	str	r3, [sp]
801011b0:	e3a03000 	mov	r3, #0
801011b4:	e1a00003 	mov	r0, r3
801011b8:	e28dd010 	add	sp, sp, #16
801011bc:	e12fff1e 	bx	lr

801011c0 <_write_r>:
801011c0:	e52de004 	push	{lr}		; (str lr, [sp, #-4]!)
801011c4:	e24dd01c 	sub	sp, sp, #28
801011c8:	e58d000c 	str	r0, [sp, #12]
801011cc:	e58d1008 	str	r1, [sp, #8]
801011d0:	e58d2004 	str	r2, [sp, #4]
801011d4:	e58d3000 	str	r3, [sp]
801011d8:	e3a03000 	mov	r3, #0
801011dc:	e58d3014 	str	r3, [sp, #20]
801011e0:	ea000010 	b	80101228 <_write_r+0x68>
801011e4:	e59d3014 	ldr	r3, [sp, #20]
801011e8:	e59d2004 	ldr	r2, [sp, #4]
801011ec:	e0823003 	add	r3, r2, r3
801011f0:	e5d33000 	ldrb	r3, [r3]
801011f4:	e353000a 	cmp	r3, #10
801011f8:	1a000001 	bne	80101204 <_write_r+0x44>
801011fc:	e3a0000d 	mov	r0, #13
80101200:	ebfffeaf 	bl	80100cc4 <serial_putchar>
80101204:	e59d3014 	ldr	r3, [sp, #20]
80101208:	e59d2004 	ldr	r2, [sp, #4]
8010120c:	e0823003 	add	r3, r2, r3
80101210:	e5d33000 	ldrb	r3, [r3]
80101214:	e1a00003 	mov	r0, r3
80101218:	ebfffea9 	bl	80100cc4 <serial_putchar>
8010121c:	e59d3014 	ldr	r3, [sp, #20]
80101220:	e2833001 	add	r3, r3, #1
80101224:	e58d3014 	str	r3, [sp, #20]
80101228:	e59d2014 	ldr	r2, [sp, #20]
8010122c:	e59d3000 	ldr	r3, [sp]
80101230:	e1520003 	cmp	r2, r3
80101234:	baffffea 	blt	801011e4 <_write_r+0x24>
80101238:	e59d3000 	ldr	r3, [sp]
8010123c:	e1a00003 	mov	r0, r3
80101240:	e28dd01c 	add	sp, sp, #28
80101244:	e49df004 	pop	{pc}		; (ldr pc, [sp], #4)

80101248 <_close_r>:
80101248:	e24dd008 	sub	sp, sp, #8
8010124c:	e58d0004 	str	r0, [sp, #4]
80101250:	e58d1000 	str	r1, [sp]
80101254:	e3a03000 	mov	r3, #0
80101258:	e1a00003 	mov	r0, r3
8010125c:	e28dd008 	add	sp, sp, #8
80101260:	e12fff1e 	bx	lr

80101264 <_sbrk_r>:
80101264:	e52de004 	push	{lr}		; (str lr, [sp, #-4]!)
80101268:	e24dd014 	sub	sp, sp, #20
8010126c:	e58d0004 	str	r0, [sp, #4]
80101270:	e58d1000 	str	r1, [sp]
80101274:	e30b36cc 	movw	r3, #46796	; 0xb6cc
80101278:	e3483010 	movt	r3, #32784	; 0x8010
8010127c:	e5933000 	ldr	r3, [r3]
80101280:	e3530000 	cmp	r3, #0
80101284:	1a000004 	bne	8010129c <_sbrk_r+0x38>
80101288:	e30b36cc 	movw	r3, #46796	; 0xb6cc
8010128c:	e3483010 	movt	r3, #32784	; 0x8010
80101290:	e30b2730 	movw	r2, #46896	; 0xb730
80101294:	e3482010 	movt	r2, #32784	; 0x8010
80101298:	e5832000 	str	r2, [r3]
8010129c:	e30b36cc 	movw	r3, #46796	; 0xb6cc
801012a0:	e3483010 	movt	r3, #32784	; 0x8010
801012a4:	e5933000 	ldr	r3, [r3]
801012a8:	e58d300c 	str	r3, [sp, #12]
801012ac:	e30b36cc 	movw	r3, #46796	; 0xb6cc
801012b0:	e3483010 	movt	r3, #32784	; 0x8010
801012b4:	e5932000 	ldr	r2, [r3]
801012b8:	e59d3000 	ldr	r3, [sp]
801012bc:	e0823003 	add	r3, r2, r3
801012c0:	e1a0200d 	mov	r2, sp
801012c4:	e1530002 	cmp	r3, r2
801012c8:	9a000005 	bls	801012e4 <_sbrk_r+0x80>
801012cc:	eb000617 	bl	80102b30 <__errno>
801012d0:	e1a02000 	mov	r2, r0
801012d4:	e3a0300c 	mov	r3, #12
801012d8:	e5823000 	str	r3, [r2]
801012dc:	e3e03000 	mvn	r3, #0
801012e0:	ea000008 	b	80101308 <_sbrk_r+0xa4>
801012e4:	e30b36cc 	movw	r3, #46796	; 0xb6cc
801012e8:	e3483010 	movt	r3, #32784	; 0x8010
801012ec:	e5932000 	ldr	r2, [r3]
801012f0:	e59d3000 	ldr	r3, [sp]
801012f4:	e0822003 	add	r2, r2, r3
801012f8:	e30b36cc 	movw	r3, #46796	; 0xb6cc
801012fc:	e3483010 	movt	r3, #32784	; 0x8010
80101300:	e5832000 	str	r2, [r3]
80101304:	e59d300c 	ldr	r3, [sp, #12]
80101308:	e1a00003 	mov	r0, r3
8010130c:	e28dd014 	add	sp, sp, #20
80101310:	e49df004 	pop	{pc}		; (ldr pc, [sp], #4)

80101314 <_fstat_r>:
80101314:	e52de004 	push	{lr}		; (str lr, [sp, #-4]!)
80101318:	e24dd014 	sub	sp, sp, #20
8010131c:	e58d000c 	str	r0, [sp, #12]
80101320:	e58d1008 	str	r1, [sp, #8]
80101324:	e58d2004 	str	r2, [sp, #4]
80101328:	e3a02058 	mov	r2, #88	; 0x58
8010132c:	e3a01000 	mov	r1, #0
80101330:	e59d0004 	ldr	r0, [sp, #4]
80101334:	eb000630 	bl	80102bfc <memset>
80101338:	e59d3004 	ldr	r3, [sp, #4]
8010133c:	e3a02a02 	mov	r2, #8192	; 0x2000
80101340:	e5832004 	str	r2, [r3, #4]
80101344:	e3a03000 	mov	r3, #0
80101348:	e1a00003 	mov	r0, r3
8010134c:	e28dd014 	add	sp, sp, #20
80101350:	e49df004 	pop	{pc}		; (ldr pc, [sp], #4)

80101354 <_isatty_r>:
80101354:	e24dd008 	sub	sp, sp, #8
80101358:	e58d0004 	str	r0, [sp, #4]
8010135c:	e58d1000 	str	r1, [sp]
80101360:	e3a03001 	mov	r3, #1
80101364:	e1a00003 	mov	r0, r3
80101368:	e28dd008 	add	sp, sp, #8
8010136c:	e12fff1e 	bx	lr

80101370 <_exit>:
80101370:	e24dd008 	sub	sp, sp, #8
80101374:	e58d0004 	str	r0, [sp, #4]
80101378:	eafffffe 	b	80101378 <_exit+0x8>

8010137c <Swi_Handler>:
8010137c:	e92d4010 	push	{r4, lr}
80101380:	e30a0914 	movw	r0, #43284	; 0xa914
80101384:	e3480010 	movt	r0, #32784	; 0x8010
80101388:	ebfffe3b 	bl	80100c7c <serial_printf>
8010138c:	eafffffe 	b	8010138c <Swi_Handler+0x10>

80101390 <Undef_Handler>:
80101390:	e92d4010 	push	{r4, lr}
80101394:	e30a0924 	movw	r0, #43300	; 0xa924
80101398:	e3480010 	movt	r0, #32784	; 0x8010
8010139c:	ebfffe36 	bl	80100c7c <serial_printf>
801013a0:	eafffffe 	b	801013a0 <Undef_Handler+0x10>

801013a4 <Pabort_Handler>:
801013a4:	e52de004 	push	{lr}		; (str lr, [sp, #-4]!)
801013a8:	e24dd00c 	sub	sp, sp, #12
801013ac:	e3a03000 	mov	r3, #0
801013b0:	e58d3004 	str	r3, [sp, #4]
801013b4:	e1a0300e 	mov	r3, lr
801013b8:	e2433004 	sub	r3, r3, #4
801013bc:	e58d3004 	str	r3, [sp, #4]
801013c0:	e59d3004 	ldr	r3, [sp, #4]
801013c4:	e1a01003 	mov	r1, r3
801013c8:	e30a0948 	movw	r0, #43336	; 0xa948
801013cc:	e3480010 	movt	r0, #32784	; 0x8010
801013d0:	ebfffe29 	bl	80100c7c <serial_printf>
801013d4:	eafffffe 	b	801013d4 <Pabort_Handler+0x30>

801013d8 <Dabort_Handler>:
801013d8:	e52de004 	push	{lr}		; (str lr, [sp, #-4]!)
801013dc:	e24dd00c 	sub	sp, sp, #12
801013e0:	e3a03000 	mov	r3, #0
801013e4:	e58d3004 	str	r3, [sp, #4]
801013e8:	e1a0300e 	mov	r3, lr
801013ec:	e2433008 	sub	r3, r3, #8
801013f0:	e58d3004 	str	r3, [sp, #4]
801013f4:	e59d3004 	ldr	r3, [sp, #4]
801013f8:	e1a01003 	mov	r1, r3
801013fc:	e30a0970 	movw	r0, #43376	; 0xa970
80101400:	e3480010 	movt	r0, #32784	; 0x8010
80101404:	ebfffe1c 	bl	80100c7c <serial_printf>
80101408:	eafffffe 	b	80101408 <Dabort_Handler+0x30>

8010140c <vUART_ISR_Handler>:
8010140c:	e3a03048 	mov	r3, #72	; 0x48
80101410:	e3443820 	movt	r3, #18464	; 0x4820
80101414:	e3a02001 	mov	r2, #1
80101418:	e5832000 	str	r2, [r3]
8010141c:	e320f000 	nop	{0}
80101420:	e12fff1e 	bx	lr

80101424 <getButtoncounter>:
80101424:	e30b36d0 	movw	r3, #46800	; 0xb6d0
80101428:	e3483010 	movt	r3, #32784	; 0x8010
8010142c:	e5933000 	ldr	r3, [r3]
80101430:	e1a00003 	mov	r0, r3
80101434:	e12fff1e 	bx	lr

80101438 <vKey_ISR_Handler>:
80101438:	e3a03018 	mov	r3, #24
8010143c:	e3443831 	movt	r3, #18481	; 0x4831
80101440:	e3a02080 	mov	r2, #128	; 0x80
80101444:	e5832000 	str	r2, [r3]
80101448:	e3a03048 	mov	r3, #72	; 0x48
8010144c:	e3443820 	movt	r3, #18464	; 0x4820
80101450:	e3a02001 	mov	r2, #1
80101454:	e5832000 	str	r2, [r3]
80101458:	e3a00000 	mov	r0, #0
8010145c:	ee070f9a 	mcr	15, 0, r0, cr7, cr10, {4}
80101460:	e30b36d0 	movw	r3, #46800	; 0xb6d0
80101464:	e3483010 	movt	r3, #32784	; 0x8010
80101468:	e5933000 	ldr	r3, [r3]
8010146c:	e2832001 	add	r2, r3, #1
80101470:	e30b36d0 	movw	r3, #46800	; 0xb6d0
80101474:	e3483010 	movt	r3, #32784	; 0x8010
80101478:	e5832000 	str	r2, [r3]
8010147c:	e320f000 	nop	{0}
80101480:	e12fff1e 	bx	lr

80101484 <Key_Port_Init>:
80101484:	e92d4010 	push	{r4, lr}
80101488:	e3a03034 	mov	r3, #52	; 0x34
8010148c:	e3443831 	movt	r3, #18481	; 0x4831
80101490:	e5932000 	ldr	r2, [r3]
80101494:	e3a03034 	mov	r3, #52	; 0x34
80101498:	e3443831 	movt	r3, #18481	; 0x4831
8010149c:	e3822080 	orr	r2, r2, #128	; 0x80
801014a0:	e5832000 	str	r2, [r3]
801014a4:	e3a03038 	mov	r3, #56	; 0x38
801014a8:	e3443831 	movt	r3, #18481	; 0x4831
801014ac:	e5933000 	ldr	r3, [r3]
801014b0:	e1a01003 	mov	r1, r3
801014b4:	e30a0998 	movw	r0, #43416	; 0xa998
801014b8:	e3480010 	movt	r0, #32784	; 0x8010
801014bc:	ebfffdee 	bl	80100c7c <serial_printf>
801014c0:	e3a03034 	mov	r3, #52	; 0x34
801014c4:	e3443831 	movt	r3, #18481	; 0x4831
801014c8:	e5933000 	ldr	r3, [r3]
801014cc:	e1a01003 	mov	r1, r3
801014d0:	e30a09b0 	movw	r0, #43440	; 0xa9b0
801014d4:	e3480010 	movt	r0, #32784	; 0x8010
801014d8:	ebfffde7 	bl	80100c7c <serial_printf>
801014dc:	e320f000 	nop	{0}
801014e0:	e8bd8010 	pop	{r4, pc}

801014e4 <Key_INT_Init>:
801014e4:	e92d4010 	push	{r4, lr}
801014e8:	e3a03064 	mov	r3, #100	; 0x64
801014ec:	e3443831 	movt	r3, #18481	; 0x4831
801014f0:	e3a02080 	mov	r2, #128	; 0x80
801014f4:	e5832000 	str	r2, [r3]
801014f8:	e3a0304c 	mov	r3, #76	; 0x4c
801014fc:	e3443831 	movt	r3, #18481	; 0x4831
80101500:	e3a02080 	mov	r2, #128	; 0x80
80101504:	e5832000 	str	r2, [r3]
80101508:	e3a03054 	mov	r3, #84	; 0x54
8010150c:	e3443831 	movt	r3, #18481	; 0x4831
80101510:	e3a020fa 	mov	r2, #250	; 0xfa
80101514:	e5832000 	str	r2, [r3]
80101518:	e3a03050 	mov	r3, #80	; 0x50
8010151c:	e3443831 	movt	r3, #18481	; 0x4831
80101520:	e3a02080 	mov	r2, #128	; 0x80
80101524:	e5832000 	str	r2, [r3]
80101528:	e3a03038 	mov	r3, #56	; 0x38
8010152c:	e3443831 	movt	r3, #18481	; 0x4831
80101530:	e5933000 	ldr	r3, [r3]
80101534:	e1a01003 	mov	r1, r3
80101538:	e30a0998 	movw	r0, #43416	; 0xa998
8010153c:	e3480010 	movt	r0, #32784	; 0x8010
80101540:	ebfffdcd 	bl	80100c7c <serial_printf>
80101544:	e3a03034 	mov	r3, #52	; 0x34
80101548:	e3443831 	movt	r3, #18481	; 0x4831
8010154c:	e5933000 	ldr	r3, [r3]
80101550:	e1a01003 	mov	r1, r3
80101554:	e30a09b0 	movw	r0, #43440	; 0xa9b0
80101558:	e3480010 	movt	r0, #32784	; 0x8010
8010155c:	ebfffdc6 	bl	80100c7c <serial_printf>
80101560:	e3a0301c 	mov	r3, #28
80101564:	e3443831 	movt	r3, #18481	; 0x4831
80101568:	e5933000 	ldr	r3, [r3]
8010156c:	e1a01003 	mov	r1, r3
80101570:	e30a09c4 	movw	r0, #43460	; 0xa9c4
80101574:	e3480010 	movt	r0, #32784	; 0x8010
80101578:	ebfffdbf 	bl	80100c7c <serial_printf>
8010157c:	e320f000 	nop	{0}
80101580:	e8bd8010 	pop	{r4, pc}

80101584 <Key_Get_Pressed>:
80101584:	e3a03038 	mov	r3, #56	; 0x38
80101588:	e3443831 	movt	r3, #18481	; 0x4831
8010158c:	e5933000 	ldr	r3, [r3]
80101590:	e2033080 	and	r3, r3, #128	; 0x80
80101594:	e1a00003 	mov	r0, r3
80101598:	e12fff1e 	bx	lr

8010159c <Key_Wait_Get_Pressed>:
8010159c:	e52de004 	push	{lr}		; (str lr, [sp, #-4]!)
801015a0:	e24dd00c 	sub	sp, sp, #12
801015a4:	ebfffff6 	bl	80101584 <Key_Get_Pressed>
801015a8:	e58d0004 	str	r0, [sp, #4]
801015ac:	e59d3004 	ldr	r3, [sp, #4]
801015b0:	e3530000 	cmp	r3, #0
801015b4:	0afffffa 	beq	801015a4 <Key_Wait_Get_Pressed+0x8>
801015b8:	e59d3004 	ldr	r3, [sp, #4]
801015bc:	e1a00003 	mov	r0, r3
801015c0:	e28dd00c 	add	sp, sp, #12
801015c4:	e49df004 	pop	{pc}		; (ldr pc, [sp], #4)

801015c8 <Key_Wait_Get_Released>:
801015c8:	e92d4010 	push	{r4, lr}
801015cc:	e320f000 	nop	{0}
801015d0:	ebffffeb 	bl	80101584 <Key_Get_Pressed>
801015d4:	e1a03000 	mov	r3, r0
801015d8:	e3530000 	cmp	r3, #0
801015dc:	1afffffb 	bne	801015d0 <Key_Wait_Get_Released+0x8>
801015e0:	e30a09e0 	movw	r0, #43488	; 0xa9e0
801015e4:	e3480010 	movt	r0, #32784	; 0x8010
801015e8:	ebfffda3 	bl	80100c7c <serial_printf>
801015ec:	e320f000 	nop	{0}
801015f0:	e8bd8010 	pop	{r4, pc}

801015f4 <KEY1_INIT>:
801015f4:	e320f000 	nop	{0}
801015f8:	e12fff1e 	bx	lr

801015fc <KEYPAD_Init>:
801015fc:	e320f000 	nop	{0}
80101600:	e12fff1e 	bx	lr

80101604 <KEYPAD_Read>:
80101604:	e3a03038 	mov	r3, #56	; 0x38
80101608:	e3443831 	movt	r3, #18481	; 0x4831
8010160c:	e5933000 	ldr	r3, [r3]
80101610:	e2033080 	and	r3, r3, #128	; 0x80
80101614:	e1a00003 	mov	r0, r3
80101618:	e12fff1e 	bx	lr

8010161c <main>:
8010161c:	e52de004 	push	{lr}		; (str lr, [sp, #-4]!)
80101620:	e24dd00c 	sub	sp, sp, #12
80101624:	eb00002d 	bl	801016e0 <prvSetupHardware>
80101628:	e3a01000 	mov	r1, #0
8010162c:	e3a00000 	mov	r0, #0
80101630:	eb000053 	bl	80101784 <vParTestSetLED>
80101634:	e3a01000 	mov	r1, #0
80101638:	e3a00001 	mov	r0, #1
8010163c:	eb000050 	bl	80101784 <vParTestSetLED>
80101640:	e30a09ec 	movw	r0, #43500	; 0xa9ec
80101644:	e3480010 	movt	r0, #32784	; 0x8010
80101648:	ebfffd8b 	bl	80100c7c <serial_printf>
8010164c:	e3a01001 	mov	r1, #1
80101650:	e3a00000 	mov	r0, #0
80101654:	eb00004a 	bl	80101784 <vParTestSetLED>
80101658:	e3a01001 	mov	r1, #1
8010165c:	e3a00001 	mov	r0, #1
80101660:	eb000047 	bl	80101784 <vParTestSetLED>
80101664:	e3a00000 	mov	r0, #0
80101668:	eb000068 	bl	80101810 <vParTestToggleLED>
8010166c:	e3a00001 	mov	r0, #1
80101670:	eb000066 	bl	80101810 <vParTestToggleLED>
80101674:	e3a03000 	mov	r3, #0
80101678:	e58d3004 	str	r3, [sp, #4]
8010167c:	ea00000b 	b	801016b0 <main+0x94>
80101680:	e3a03000 	mov	r3, #0
80101684:	e58d3000 	str	r3, [sp]
80101688:	ea000002 	b	80101698 <main+0x7c>
8010168c:	e59d3000 	ldr	r3, [sp]
80101690:	e2833001 	add	r3, r3, #1
80101694:	e58d3000 	str	r3, [sp]
80101698:	e59d3000 	ldr	r3, [sp]
8010169c:	e3530009 	cmp	r3, #9
801016a0:	dafffff9 	ble	8010168c <main+0x70>
801016a4:	e59d3004 	ldr	r3, [sp, #4]
801016a8:	e2833001 	add	r3, r3, #1
801016ac:	e58d3004 	str	r3, [sp, #4]
801016b0:	e59d2004 	ldr	r2, [sp, #4]
801016b4:	e304323f 	movw	r3, #16959	; 0x423f
801016b8:	e340300f 	movt	r3, #15
801016bc:	e1520003 	cmp	r2, r3
801016c0:	daffffee 	ble	80101680 <main+0x64>
801016c4:	ebfffb1d 	bl	80100340 <getTick>
801016c8:	e1a03000 	mov	r3, r0
801016cc:	e1a01003 	mov	r1, r3
801016d0:	e30a0a04 	movw	r0, #43524	; 0xaa04
801016d4:	e3480010 	movt	r0, #32784	; 0x8010
801016d8:	ebfffd67 	bl	80100c7c <serial_printf>
801016dc:	eaffffe0 	b	80101664 <main+0x48>

801016e0 <prvSetupHardware>:
801016e0:	e92d4010 	push	{r4, lr}
801016e4:	ebfffb3d 	bl	801003e0 <prvSetupTimerInterrupt>
801016e8:	e3063034 	movw	r3, #24628	; 0x6034
801016ec:	e3443905 	movt	r3, #18693	; 0x4905
801016f0:	e3002fff 	movw	r2, #4095	; 0xfff
801016f4:	e3402f9f 	movt	r2, #3999	; 0xf9f
801016f8:	e5832000 	str	r2, [r3]
801016fc:	e3063034 	movw	r3, #24628	; 0x6034
80101700:	e3443905 	movt	r3, #18693	; 0x4905
80101704:	e5932000 	ldr	r2, [r3]
80101708:	e3063034 	movw	r3, #24628	; 0x6034
8010170c:	e3443905 	movt	r3, #18693	; 0x4905
80101710:	e3c220fc 	bic	r2, r2, #252	; 0xfc
80101714:	e5832000 	str	r2, [r3]
80101718:	e3083034 	movw	r3, #32820	; 0x8034
8010171c:	e3443905 	movt	r3, #18693	; 0x4905
80101720:	e30f2af9 	movw	r2, #64249	; 0xfaf9
80101724:	e34f2f7f 	movt	r2, #65407	; 0xff7f
80101728:	e5832000 	str	r2, [r3]
8010172c:	e3063090 	movw	r3, #24720	; 0x6090
80101730:	e3443905 	movt	r3, #18693	; 0x4905
80101734:	e3a02606 	mov	r2, #6291456	; 0x600000
80101738:	e5832000 	str	r2, [r3]
8010173c:	e3063090 	movw	r3, #24720	; 0x6090
80101740:	e3443905 	movt	r3, #18693	; 0x4905
80101744:	e3a02014 	mov	r2, #20
80101748:	e3452000 	movt	r2, #20480	; 0x5000
8010174c:	e5832000 	str	r2, [r3]
80101750:	e3063094 	movw	r3, #24724	; 0x6094
80101754:	e3443905 	movt	r3, #18693	; 0x4905
80101758:	e3a020e8 	mov	r2, #232	; 0xe8
8010175c:	e34a2000 	movt	r2, #40960	; 0xa000
80101760:	e5832000 	str	r2, [r3]
80101764:	e3083094 	movw	r3, #32916	; 0x8094
80101768:	e3443905 	movt	r3, #18693	; 0x4905
8010176c:	e3a02006 	mov	r2, #6
80101770:	e5832000 	str	r2, [r3]
80101774:	e320f000 	nop	{0}
80101778:	e8bd8010 	pop	{r4, pc}

8010177c <vParTestInitialise>:
8010177c:	e320f000 	nop	{0}
80101780:	e12fff1e 	bx	lr

80101784 <vParTestSetLED>:
80101784:	e24dd010 	sub	sp, sp, #16
80101788:	e58d0004 	str	r0, [sp, #4]
8010178c:	e58d1000 	str	r1, [sp]
80101790:	e3a03000 	mov	r3, #0
80101794:	e58d300c 	str	r3, [sp, #12]
80101798:	e59d3004 	ldr	r3, [sp, #4]
8010179c:	e3530001 	cmp	r3, #1
801017a0:	8a000017 	bhi	80101804 <vParTestSetLED+0x80>
801017a4:	e59d3004 	ldr	r3, [sp, #4]
801017a8:	e3530000 	cmp	r3, #0
801017ac:	0a000002 	beq	801017bc <vParTestSetLED+0x38>
801017b0:	e3530001 	cmp	r3, #1
801017b4:	0a000003 	beq	801017c8 <vParTestSetLED+0x44>
801017b8:	ea000005 	b	801017d4 <vParTestSetLED+0x50>
801017bc:	e3a03602 	mov	r3, #2097152	; 0x200000
801017c0:	e58d300c 	str	r3, [sp, #12]
801017c4:	ea000002 	b	801017d4 <vParTestSetLED+0x50>
801017c8:	e3a03501 	mov	r3, #4194304	; 0x400000
801017cc:	e58d300c 	str	r3, [sp, #12]
801017d0:	e320f000 	nop	{0}
801017d4:	e59d3000 	ldr	r3, [sp]
801017d8:	e3530000 	cmp	r3, #0
801017dc:	0a000004 	beq	801017f4 <vParTestSetLED+0x70>
801017e0:	e3063094 	movw	r3, #24724	; 0x6094
801017e4:	e3443905 	movt	r3, #18693	; 0x4905
801017e8:	e59d200c 	ldr	r2, [sp, #12]
801017ec:	e5832000 	str	r2, [r3]
801017f0:	ea000003 	b	80101804 <vParTestSetLED+0x80>
801017f4:	e3063090 	movw	r3, #24720	; 0x6090
801017f8:	e3443905 	movt	r3, #18693	; 0x4905
801017fc:	e59d200c 	ldr	r2, [sp, #12]
80101800:	e5832000 	str	r2, [r3]
80101804:	e320f000 	nop	{0}
80101808:	e28dd010 	add	sp, sp, #16
8010180c:	e12fff1e 	bx	lr

80101810 <vParTestToggleLED>:
80101810:	e24dd010 	sub	sp, sp, #16
80101814:	e58d0004 	str	r0, [sp, #4]
80101818:	e3a03000 	mov	r3, #0
8010181c:	e58d3008 	str	r3, [sp, #8]
80101820:	e59d300c 	ldr	r3, [sp, #12]
80101824:	e58d300c 	str	r3, [sp, #12]
80101828:	e59d3004 	ldr	r3, [sp, #4]
8010182c:	e3530001 	cmp	r3, #1
80101830:	8a00000b 	bhi	80101864 <vParTestToggleLED+0x54>
80101834:	e59d3004 	ldr	r3, [sp, #4]
80101838:	e3530000 	cmp	r3, #0
8010183c:	0a000002 	beq	8010184c <vParTestToggleLED+0x3c>
80101840:	e3530001 	cmp	r3, #1
80101844:	0a000003 	beq	80101858 <vParTestToggleLED+0x48>
80101848:	ea000006 	b	80101868 <vParTestToggleLED+0x58>
8010184c:	e3a03602 	mov	r3, #2097152	; 0x200000
80101850:	e58d3008 	str	r3, [sp, #8]
80101854:	ea000003 	b	80101868 <vParTestToggleLED+0x58>
80101858:	e3a03501 	mov	r3, #4194304	; 0x400000
8010185c:	e58d3008 	str	r3, [sp, #8]
80101860:	ea000000 	b	80101868 <vParTestToggleLED+0x58>
80101864:	e320f000 	nop	{0}
80101868:	e306303c 	movw	r3, #24636	; 0x603c
8010186c:	e3443905 	movt	r3, #18693	; 0x4905
80101870:	e5933000 	ldr	r3, [r3]
80101874:	e58d300c 	str	r3, [sp, #12]
80101878:	e59d1008 	ldr	r1, [sp, #8]
8010187c:	e306303c 	movw	r3, #24636	; 0x603c
80101880:	e3443905 	movt	r3, #18693	; 0x4905
80101884:	e5932000 	ldr	r2, [r3]
80101888:	e306303c 	movw	r3, #24636	; 0x603c
8010188c:	e3443905 	movt	r3, #18693	; 0x4905
80101890:	e0222001 	eor	r2, r2, r1
80101894:	e5832000 	str	r2, [r3]
80101898:	e320f000 	nop	{0}
8010189c:	e28dd010 	add	sp, sp, #16
801018a0:	e12fff1e 	bx	lr

801018a4 <randomnumber>:
801018a4:	e59fc03c 	ldr	ip, [pc, #60]	; 801018e8 <seed+0x8>
801018a8:	e89c0003 	ldm	ip, {r0, r1}
801018ac:	e11100a1 	tst	r1, r1, lsr #1
801018b0:	e1b02060 	rrxs	r2, r0
801018b4:	e0a11001 	adc	r1, r1, r1
801018b8:	e0222600 	eor	r2, r2, r0, lsl #12
801018bc:	e0220a22 	eor	r0, r2, r2, lsr #20
801018c0:	e88c0003 	stm	ip, {r0, r1}
801018c4:	e1a0f00e 	mov	pc, lr

801018c8 <seedrand>:
801018c8:	e92d0002 	stmfd	sp!, {r1}
801018cc:	e59f1018 	ldr	r1, [pc, #24]	; 801018ec <seed+0xc>
801018d0:	e5810000 	str	r0, [r1]
801018d4:	e8bd0002 	ldmfd	sp!, {r1}
801018d8:	e1a0f00e 	mov	pc, lr

801018dc <seedpointer>:
801018dc:	801018e0 	.word	0x801018e0

801018e0 <seed>:
801018e0:	55555555 	.word	0x55555555
801018e4:	55555555 	.word	0x55555555
801018e8:	801018dc 	.word	0x801018dc
801018ec:	801018e0 	.word	0x801018e0

801018f0 <HOW_TO_RETURN>:
801018f0:	eafffffe 	b	801018f0 <HOW_TO_RETURN>

801018f4 <CONDITIONAL_EXECUTE>:
801018f4:	e1a0f00e 	mov	pc, lr

801018f8 <DATA_PROCESS1>:
801018f8:	e1a0f00e 	mov	pc, lr

801018fc <DATA_PROCESS2>:
801018fc:	e1a0f00e 	mov	pc, lr

80101900 <SUM_OF_DEC>:
80101900:	e3a03000 	mov	r3, #0

80101904 <sum_loop>:
80101904:	e1a0f00e 	mov	pc, lr

80101908 <GRT_COM_MES>:
80101908:	e1500001 	cmp	r0, r1
8010190c:	c0400001 	subgt	r0, r0, r1
80101910:	b0411000 	sublt	r1, r1, r0
80101914:	1afffffb 	bne	80101908 <GRT_COM_MES>
80101918:	e1a0f00e 	mov	pc, lr

8010191c <MEMCPY_SINGLE>:
8010191c:	e92d4030 	push	{r4, r5, lr}

80101920 <copy_loop_single>:
80101920:	e8bd8030 	pop	{r4, r5, pc}

80101924 <MEMCPY_MULTIPLE>:
80101924:	e92d4030 	push	{r4, r5, lr}

80101928 <copy_loop_multiple>:
80101928:	e8bd8030 	pop	{r4, r5, pc}

8010192c <MEMCPY>:
8010192c:	e92d4030 	push	{r4, r5, lr}
80101930:	e352000c 	cmp	r2, #12
80101934:	ba000005 	blt	80101950 <copy_loop_single_word>

80101938 <copy_loop_multi_word>:
80101938:	e8b10038 	ldm	r1!, {r3, r4, r5}
8010193c:	e8a00038 	stmia	r0!, {r3, r4, r5}
80101940:	e242200c 	sub	r2, r2, #12
80101944:	e352000c 	cmp	r2, #12
80101948:	aafffffa 	bge	80101938 <copy_loop_multi_word>
8010194c:	0a00000c 	beq	80101984 <END_FUNC>

80101950 <copy_loop_single_word>:
80101950:	e4913004 	ldr	r3, [r1], #4
80101954:	e4803004 	str	r3, [r0], #4
80101958:	e2422004 	sub	r2, r2, #4
8010195c:	e3520004 	cmp	r2, #4
80101960:	aafffffa 	bge	80101950 <copy_loop_single_word>
80101964:	0a000006 	beq	80101984 <END_FUNC>
80101968:	e0d130b2 	ldrh	r3, [r1], #2
8010196c:	e0c030b2 	strh	r3, [r0], #2
80101970:	e2522002 	subs	r2, r2, #2
80101974:	0a000002 	beq	80101984 <END_FUNC>
80101978:	e4d13001 	ldrb	r3, [r1], #1
8010197c:	e4c03001 	strb	r3, [r0], #1
80101980:	e2522001 	subs	r2, r2, #1

80101984 <END_FUNC>:
80101984:	e8bd8030 	pop	{r4, r5, pc}

80101988 <SET_IF>:
80101988:	e10f0000 	mrs	r0, CPSR
8010198c:	e1a01000 	mov	r1, r0
80101990:	e38110c0 	orr	r1, r1, #192	; 0xc0
80101994:	e12ff001 	msr	CPSR_fsxc, r1
80101998:	e1a0f00e 	mov	pc, lr

8010199c <WR_IF>:
8010199c:	e12ff000 	msr	CPSR_fsxc, r0
801019a0:	e1a0f00e 	mov	pc, lr

801019a4 <CLR_IF>:
801019a4:	e10f0000 	mrs	r0, CPSR
801019a8:	e3c000c0 	bic	r0, r0, #192	; 0xc0
801019ac:	e12ff000 	msr	CPSR_fsxc, r0
801019b0:	e1a0f00e 	mov	pc, lr

801019b4 <MMU_EnableICache>:
801019b4:	ee110f10 	mrc	15, 0, r0, cr1, cr0, {0}
801019b8:	e3800a01 	orr	r0, r0, #4096	; 0x1000
801019bc:	ee010f10 	mcr	15, 0, r0, cr1, cr0, {0}
801019c0:	e1a0f00e 	mov	pc, lr

801019c4 <MMU_DisableICache>:
801019c4:	ee110f10 	mrc	15, 0, r0, cr1, cr0, {0}
801019c8:	e3c00a01 	bic	r0, r0, #4096	; 0x1000
801019cc:	ee010f10 	mcr	15, 0, r0, cr1, cr0, {0}
801019d0:	e1a0f00e 	mov	pc, lr

801019d4 <MMU_EnableDCache>:
801019d4:	ee110f10 	mrc	15, 0, r0, cr1, cr0, {0}
801019d8:	e3800004 	orr	r0, r0, #4
801019dc:	ee010f10 	mcr	15, 0, r0, cr1, cr0, {0}
801019e0:	e1a0f00e 	mov	pc, lr

801019e4 <MMU_DisableDCache>:
801019e4:	ee110f10 	mrc	15, 0, r0, cr1, cr0, {0}
801019e8:	e3c00004 	bic	r0, r0, #4
801019ec:	ee010f10 	mcr	15, 0, r0, cr1, cr0, {0}
801019f0:	e1a0f00e 	mov	pc, lr

801019f4 <MMU_EnableAlignFault>:
801019f4:	ee110f10 	mrc	15, 0, r0, cr1, cr0, {0}
801019f8:	e3800002 	orr	r0, r0, #2
801019fc:	ee010f10 	mcr	15, 0, r0, cr1, cr0, {0}
80101a00:	e1a0f00e 	mov	pc, lr

80101a04 <MMU_DisableAlignFault>:
80101a04:	ee110f10 	mrc	15, 0, r0, cr1, cr0, {0}
80101a08:	e3c00002 	bic	r0, r0, #2
80101a0c:	ee010f10 	mcr	15, 0, r0, cr1, cr0, {0}
80101a10:	e1a0f00e 	mov	pc, lr

80101a14 <MMU_EnableMMU>:
80101a14:	ee110f10 	mrc	15, 0, r0, cr1, cr0, {0}
80101a18:	e3800001 	orr	r0, r0, #1
80101a1c:	ee010f10 	mcr	15, 0, r0, cr1, cr0, {0}
80101a20:	e1a0f00e 	mov	pc, lr

80101a24 <MMU_DisableMMU>:
80101a24:	ee110f10 	mrc	15, 0, r0, cr1, cr0, {0}
80101a28:	e3c00001 	bic	r0, r0, #1
80101a2c:	ee010f10 	mcr	15, 0, r0, cr1, cr0, {0}
80101a30:	e1a0f00e 	mov	pc, lr

80101a34 <MMU_SetFastBusMode>:
80101a34:	ee110f10 	mrc	15, 0, r0, cr1, cr0, {0}
80101a38:	e3c00102 	bic	r0, r0, #-2147483648	; 0x80000000
80101a3c:	e3c00101 	bic	r0, r0, #1073741824	; 0x40000000
80101a40:	ee010f10 	mcr	15, 0, r0, cr1, cr0, {0}
80101a44:	e1a0f00e 	mov	pc, lr

80101a48 <MMU_SetAsyncBusMode>:
80101a48:	ee110f10 	mrc	15, 0, r0, cr1, cr0, {0}
80101a4c:	e3800101 	orr	r0, r0, #1073741824	; 0x40000000
80101a50:	e3800102 	orr	r0, r0, #-2147483648	; 0x80000000
80101a54:	ee010f10 	mcr	15, 0, r0, cr1, cr0, {0}
80101a58:	e1a0f00e 	mov	pc, lr

80101a5c <MMU_SetTTBase>:
80101a5c:	ee020f10 	mcr	15, 0, r0, cr2, cr0, {0}
80101a60:	e1a0f00e 	mov	pc, lr

80101a64 <MMU_SetDomain>:
80101a64:	ee030f10 	mcr	15, 0, r0, cr3, cr0, {0}
80101a68:	e1a0f00e 	mov	pc, lr

80101a6c <MMU_InvalidateIDCache>:
80101a6c:	ee070f17 	mcr	15, 0, r0, cr7, cr7, {0}
80101a70:	e1a0f00e 	mov	pc, lr

80101a74 <MMU_InvalidateICache>:
80101a74:	ee070f15 	mcr	15, 0, r0, cr7, cr5, {0}
80101a78:	e1a0f00e 	mov	pc, lr

80101a7c <MMU_InvalidateICacheMVA>:
80101a7c:	ee070f35 	mcr	15, 0, r0, cr7, cr5, {1}
80101a80:	e1a0f00e 	mov	pc, lr

80101a84 <MMU_PrefetchICacheMVA>:
80101a84:	ee070f3d 	mcr	15, 0, r0, cr7, cr13, {1}
80101a88:	e1a0f00e 	mov	pc, lr

80101a8c <MMU_InvalidateDCache>:
80101a8c:	ee070f16 	mcr	15, 0, r0, cr7, cr6, {0}
80101a90:	e1a0f00e 	mov	pc, lr

80101a94 <MMU_InvalidateDCacheMVA>:
80101a94:	ee070f36 	mcr	15, 0, r0, cr7, cr6, {1}
80101a98:	e1a0f00e 	mov	pc, lr

80101a9c <MMU_CleanDCacheMVA>:
80101a9c:	ee070f3a 	mcr	15, 0, r0, cr7, cr10, {1}
80101aa0:	e1a0f00e 	mov	pc, lr

80101aa4 <MMU_CleanInvalidateDCacheMVA>:
80101aa4:	ee070f3e 	mcr	15, 0, r0, cr7, cr14, {1}
80101aa8:	e1a0f00e 	mov	pc, lr

80101aac <MMU_CleanDCacheIndex>:
80101aac:	ee070f5a 	mcr	15, 0, r0, cr7, cr10, {2}
80101ab0:	e1a0f00e 	mov	pc, lr

80101ab4 <MMU_CleanInvalidateDCacheIndex>:
80101ab4:	ee070f5e 	mcr	15, 0, r0, cr7, cr14, {2}
80101ab8:	e1a0f00e 	mov	pc, lr

80101abc <MMU_WaitForInterrupt>:
80101abc:	ee070f90 	mcr	15, 0, r0, cr7, cr0, {4}
80101ac0:	e1a0f00e 	mov	pc, lr

80101ac4 <MMU_InvalidateTLB>:
80101ac4:	ee080f17 	mcr	15, 0, r0, cr8, cr7, {0}
80101ac8:	e1a0f00e 	mov	pc, lr

80101acc <MMU_InvalidateITLB>:
80101acc:	ee080f15 	mcr	15, 0, r0, cr8, cr5, {0}
80101ad0:	e1a0f00e 	mov	pc, lr

80101ad4 <MMU_InvalidateITLBMVA>:
80101ad4:	ee080f35 	mcr	15, 0, r0, cr8, cr5, {1}
80101ad8:	e1a0f00e 	mov	pc, lr

80101adc <MMU_InvalidateDTLB>:
80101adc:	ee080f16 	mcr	15, 0, r0, cr8, cr6, {0}
80101ae0:	e1a0f00e 	mov	pc, lr

80101ae4 <MMU_InvalidateDTLBMVA>:
80101ae4:	ee080f36 	mcr	15, 0, r0, cr8, cr6, {1}
80101ae8:	e1a0f00e 	mov	pc, lr

80101aec <MMU_SetDCacheLockdownBase>:
80101aec:	ee090f10 	mcr	15, 0, r0, cr9, cr0, {0}
80101af0:	e1a0f00e 	mov	pc, lr

80101af4 <MMU_SetICacheLockdownBase>:
80101af4:	ee090f30 	mcr	15, 0, r0, cr9, cr0, {1}
80101af8:	e1a0f00e 	mov	pc, lr

80101afc <MMU_SetDTLBLockdown>:
80101afc:	ee0a0f10 	mcr	15, 0, r0, cr10, cr0, {0}
80101b00:	e1a0f00e 	mov	pc, lr

80101b04 <MMU_SetITLBLockdown>:
80101b04:	ee0a0f30 	mcr	15, 0, r0, cr10, cr0, {1}
80101b08:	e1a0f00e 	mov	pc, lr

80101b0c <MMU_SetProcessId>:
80101b0c:	ee0d0f10 	mcr	15, 0, r0, cr13, cr0, {0}
80101b10:	e1a0f00e 	mov	pc, lr

80101b14 <strcmp>:
80101b14:	e020c001 	eor	ip, r0, r1
80101b18:	e31c0003 	tst	ip, #3
80101b1c:	1a000021 	bne	80101ba8 <strcmp+0x94>
80101b20:	e210c003 	ands	ip, r0, #3
80101b24:	e3c00003 	bic	r0, r0, #3
80101b28:	e3c11003 	bic	r1, r1, #3
80101b2c:	e4902004 	ldr	r2, [r0], #4
80101b30:	04913004 	ldreq	r3, [r1], #4
80101b34:	0a000006 	beq	80101b54 <strcmp+0x40>
80101b38:	e22cc003 	eor	ip, ip, #3
80101b3c:	e3e034ff 	mvn	r3, #-16777216	; 0xff000000
80101b40:	e1a0c18c 	lsl	ip, ip, #3
80101b44:	e1a0cc33 	lsr	ip, r3, ip
80101b48:	e4913004 	ldr	r3, [r1], #4
80101b4c:	e182200c 	orr	r2, r2, ip
80101b50:	e183300c 	orr	r3, r3, ip
80101b54:	e52d4004 	push	{r4}		; (str r4, [sp, #-4]!)
80101b58:	e3a04001 	mov	r4, #1
80101b5c:	e1844404 	orr	r4, r4, r4, lsl #8
80101b60:	e1844804 	orr	r4, r4, r4, lsl #16
80101b64:	e042c004 	sub	ip, r2, r4
80101b68:	e1520003 	cmp	r2, r3
80101b6c:	01ccc002 	biceq	ip, ip, r2
80101b70:	011c0384 	tsteq	ip, r4, lsl #7
80101b74:	04902004 	ldreq	r2, [r0], #4
80101b78:	04913004 	ldreq	r3, [r1], #4
80101b7c:	0afffff8 	beq	80101b64 <strcmp+0x50>
80101b80:	e1a00c02 	lsl	r0, r2, #24
80101b84:	e1a02422 	lsr	r2, r2, #8
80101b88:	e3500001 	cmp	r0, #1
80101b8c:	21500c03 	cmpcs	r0, r3, lsl #24
80101b90:	01a03423 	lsreq	r3, r3, #8
80101b94:	0afffff9 	beq	80101b80 <strcmp+0x6c>
80101b98:	e20330ff 	and	r3, r3, #255	; 0xff
80101b9c:	e0630c20 	rsb	r0, r3, r0, lsr #24
80101ba0:	e49d4004 	pop	{r4}		; (ldr r4, [sp], #4)
80101ba4:	e12fff1e 	bx	lr
80101ba8:	e3100003 	tst	r0, #3
80101bac:	0a000006 	beq	80101bcc <strcmp+0xb8>
80101bb0:	e4d02001 	ldrb	r2, [r0], #1
80101bb4:	e4d13001 	ldrb	r3, [r1], #1
80101bb8:	e3520001 	cmp	r2, #1
80101bbc:	21520003 	cmpcs	r2, r3
80101bc0:	0afffff8 	beq	80101ba8 <strcmp+0x94>
80101bc4:	e0420003 	sub	r0, r2, r3
80101bc8:	e12fff1e 	bx	lr
80101bcc:	e92d0030 	push	{r4, r5}
80101bd0:	e3a04001 	mov	r4, #1
80101bd4:	e1844404 	orr	r4, r4, r4, lsl #8
80101bd8:	e1844804 	orr	r4, r4, r4, lsl #16
80101bdc:	e4902004 	ldr	r2, [r0], #4
80101be0:	e2015003 	and	r5, r1, #3
80101be4:	e3c11003 	bic	r1, r1, #3
80101be8:	e4913004 	ldr	r3, [r1], #4
80101bec:	e3550002 	cmp	r5, #2
80101bf0:	0a000017 	beq	80101c54 <strcmp+0x140>
80101bf4:	8a00002d 	bhi	80101cb0 <strcmp+0x19c>
80101bf8:	e3c254ff 	bic	r5, r2, #-16777216	; 0xff000000
80101bfc:	e1550423 	cmp	r5, r3, lsr #8
80101c00:	e042c004 	sub	ip, r2, r4
80101c04:	e1ccc002 	bic	ip, ip, r2
80101c08:	1a000007 	bne	80101c2c <strcmp+0x118>
80101c0c:	e01cc384 	ands	ip, ip, r4, lsl #7
80101c10:	04913004 	ldreq	r3, [r1], #4
80101c14:	1a000006 	bne	80101c34 <strcmp+0x120>
80101c18:	e0255002 	eor	r5, r5, r2
80101c1c:	e1550c03 	cmp	r5, r3, lsl #24
80101c20:	1a000008 	bne	80101c48 <strcmp+0x134>
80101c24:	e4902004 	ldr	r2, [r0], #4
80101c28:	eafffff2 	b	80101bf8 <strcmp+0xe4>
80101c2c:	e1a03423 	lsr	r3, r3, #8
80101c30:	ea000036 	b	80101d10 <strcmp+0x1fc>
80101c34:	e3dcc4ff 	bics	ip, ip, #-16777216	; 0xff000000
80101c38:	1a000031 	bne	80101d04 <strcmp+0x1f0>
80101c3c:	e5d13000 	ldrb	r3, [r1]
80101c40:	e1a05c22 	lsr	r5, r2, #24
80101c44:	ea000031 	b	80101d10 <strcmp+0x1fc>
80101c48:	e1a05c22 	lsr	r5, r2, #24
80101c4c:	e20330ff 	and	r3, r3, #255	; 0xff
80101c50:	ea00002e 	b	80101d10 <strcmp+0x1fc>
80101c54:	e1a05802 	lsl	r5, r2, #16
80101c58:	e042c004 	sub	ip, r2, r4
80101c5c:	e1a05825 	lsr	r5, r5, #16
80101c60:	e1ccc002 	bic	ip, ip, r2
80101c64:	e1550823 	cmp	r5, r3, lsr #16
80101c68:	1a00000e 	bne	80101ca8 <strcmp+0x194>
80101c6c:	e01cc384 	ands	ip, ip, r4, lsl #7
80101c70:	04913004 	ldreq	r3, [r1], #4
80101c74:	1a000004 	bne	80101c8c <strcmp+0x178>
80101c78:	e0255002 	eor	r5, r5, r2
80101c7c:	e1550803 	cmp	r5, r3, lsl #16
80101c80:	1a000006 	bne	80101ca0 <strcmp+0x18c>
80101c84:	e4902004 	ldr	r2, [r0], #4
80101c88:	eafffff1 	b	80101c54 <strcmp+0x140>
80101c8c:	e1b0c80c 	lsls	ip, ip, #16
80101c90:	1a00001b 	bne	80101d04 <strcmp+0x1f0>
80101c94:	e1d130b0 	ldrh	r3, [r1]
80101c98:	e1a05822 	lsr	r5, r2, #16
80101c9c:	ea00001b 	b	80101d10 <strcmp+0x1fc>
80101ca0:	e1a03803 	lsl	r3, r3, #16
80101ca4:	e1a05822 	lsr	r5, r2, #16
80101ca8:	e1a03823 	lsr	r3, r3, #16
80101cac:	ea000017 	b	80101d10 <strcmp+0x1fc>
80101cb0:	e20250ff 	and	r5, r2, #255	; 0xff
80101cb4:	e1550c23 	cmp	r5, r3, lsr #24
80101cb8:	e042c004 	sub	ip, r2, r4
80101cbc:	e1ccc002 	bic	ip, ip, r2
80101cc0:	1a000007 	bne	80101ce4 <strcmp+0x1d0>
80101cc4:	e01cc384 	ands	ip, ip, r4, lsl #7
80101cc8:	04913004 	ldreq	r3, [r1], #4
80101ccc:	1a000006 	bne	80101cec <strcmp+0x1d8>
80101cd0:	e0255002 	eor	r5, r5, r2
80101cd4:	e1550403 	cmp	r5, r3, lsl #8
80101cd8:	1a000006 	bne	80101cf8 <strcmp+0x1e4>
80101cdc:	e4902004 	ldr	r2, [r0], #4
80101ce0:	eafffff2 	b	80101cb0 <strcmp+0x19c>
80101ce4:	e1a03c23 	lsr	r3, r3, #24
80101ce8:	ea000008 	b	80101d10 <strcmp+0x1fc>
80101cec:	e31200ff 	tst	r2, #255	; 0xff
80101cf0:	0a000003 	beq	80101d04 <strcmp+0x1f0>
80101cf4:	e4913004 	ldr	r3, [r1], #4
80101cf8:	e1a05422 	lsr	r5, r2, #8
80101cfc:	e3c334ff 	bic	r3, r3, #-16777216	; 0xff000000
80101d00:	ea000002 	b	80101d10 <strcmp+0x1fc>
80101d04:	e3a00000 	mov	r0, #0
80101d08:	e8bd0030 	pop	{r4, r5}
80101d0c:	e12fff1e 	bx	lr
80101d10:	e20520ff 	and	r2, r5, #255	; 0xff
80101d14:	e20300ff 	and	r0, r3, #255	; 0xff
80101d18:	e3500001 	cmp	r0, #1
80101d1c:	21500002 	cmpcs	r0, r2
80101d20:	01a05425 	lsreq	r5, r5, #8
80101d24:	01a03423 	lsreq	r3, r3, #8
80101d28:	0afffff8 	beq	80101d10 <strcmp+0x1fc>
80101d2c:	e0420000 	sub	r0, r2, r0
80101d30:	e8bd0030 	pop	{r4, r5}
80101d34:	e12fff1e 	bx	lr

80101d38 <__udivsi3>:
80101d38:	e2512001 	subs	r2, r1, #1
80101d3c:	012fff1e 	bxeq	lr
80101d40:	3a000036 	bcc	80101e20 <__udivsi3+0xe8>
80101d44:	e1500001 	cmp	r0, r1
80101d48:	9a000022 	bls	80101dd8 <__udivsi3+0xa0>
80101d4c:	e1110002 	tst	r1, r2
80101d50:	0a000023 	beq	80101de4 <__udivsi3+0xac>
80101d54:	e311020e 	tst	r1, #-536870912	; 0xe0000000
80101d58:	01a01181 	lsleq	r1, r1, #3
80101d5c:	03a03008 	moveq	r3, #8
80101d60:	13a03001 	movne	r3, #1
80101d64:	e3510201 	cmp	r1, #268435456	; 0x10000000
80101d68:	31510000 	cmpcc	r1, r0
80101d6c:	31a01201 	lslcc	r1, r1, #4
80101d70:	31a03203 	lslcc	r3, r3, #4
80101d74:	3afffffa 	bcc	80101d64 <__udivsi3+0x2c>
80101d78:	e3510102 	cmp	r1, #-2147483648	; 0x80000000
80101d7c:	31510000 	cmpcc	r1, r0
80101d80:	31a01081 	lslcc	r1, r1, #1
80101d84:	31a03083 	lslcc	r3, r3, #1
80101d88:	3afffffa 	bcc	80101d78 <__udivsi3+0x40>
80101d8c:	e3a02000 	mov	r2, #0
80101d90:	e1500001 	cmp	r0, r1
80101d94:	20400001 	subcs	r0, r0, r1
80101d98:	21822003 	orrcs	r2, r2, r3
80101d9c:	e15000a1 	cmp	r0, r1, lsr #1
80101da0:	204000a1 	subcs	r0, r0, r1, lsr #1
80101da4:	218220a3 	orrcs	r2, r2, r3, lsr #1
80101da8:	e1500121 	cmp	r0, r1, lsr #2
80101dac:	20400121 	subcs	r0, r0, r1, lsr #2
80101db0:	21822123 	orrcs	r2, r2, r3, lsr #2
80101db4:	e15001a1 	cmp	r0, r1, lsr #3
80101db8:	204001a1 	subcs	r0, r0, r1, lsr #3
80101dbc:	218221a3 	orrcs	r2, r2, r3, lsr #3
80101dc0:	e3500000 	cmp	r0, #0
80101dc4:	11b03223 	lsrsne	r3, r3, #4
80101dc8:	11a01221 	lsrne	r1, r1, #4
80101dcc:	1affffef 	bne	80101d90 <__udivsi3+0x58>
80101dd0:	e1a00002 	mov	r0, r2
80101dd4:	e12fff1e 	bx	lr
80101dd8:	03a00001 	moveq	r0, #1
80101ddc:	13a00000 	movne	r0, #0
80101de0:	e12fff1e 	bx	lr
80101de4:	e3510801 	cmp	r1, #65536	; 0x10000
80101de8:	21a01821 	lsrcs	r1, r1, #16
80101dec:	23a02010 	movcs	r2, #16
80101df0:	33a02000 	movcc	r2, #0
80101df4:	e3510c01 	cmp	r1, #256	; 0x100
80101df8:	21a01421 	lsrcs	r1, r1, #8
80101dfc:	22822008 	addcs	r2, r2, #8
80101e00:	e3510010 	cmp	r1, #16
80101e04:	21a01221 	lsrcs	r1, r1, #4
80101e08:	22822004 	addcs	r2, r2, #4
80101e0c:	e3510004 	cmp	r1, #4
80101e10:	82822003 	addhi	r2, r2, #3
80101e14:	908220a1 	addls	r2, r2, r1, lsr #1
80101e18:	e1a00230 	lsr	r0, r0, r2
80101e1c:	e12fff1e 	bx	lr
80101e20:	e3500000 	cmp	r0, #0
80101e24:	13e00000 	mvnne	r0, #0
80101e28:	ea000007 	b	80101e4c <__aeabi_idiv0>

80101e2c <__aeabi_uidivmod>:
80101e2c:	e3510000 	cmp	r1, #0
80101e30:	0afffffa 	beq	80101e20 <__udivsi3+0xe8>
80101e34:	e92d4003 	push	{r0, r1, lr}
80101e38:	ebffffbe 	bl	80101d38 <__udivsi3>
80101e3c:	e8bd4006 	pop	{r1, r2, lr}
80101e40:	e0030092 	mul	r3, r2, r0
80101e44:	e0411003 	sub	r1, r1, r3
80101e48:	e12fff1e 	bx	lr

80101e4c <__aeabi_idiv0>:
80101e4c:	e12fff1e 	bx	lr

80101e50 <__aeabi_drsub>:
80101e50:	e2211102 	eor	r1, r1, #-2147483648	; 0x80000000
80101e54:	ea000000 	b	80101e5c <__adddf3>

80101e58 <__aeabi_dsub>:
80101e58:	e2233102 	eor	r3, r3, #-2147483648	; 0x80000000

80101e5c <__adddf3>:
80101e5c:	e92d4030 	push	{r4, r5, lr}
80101e60:	e1a04081 	lsl	r4, r1, #1
80101e64:	e1a05083 	lsl	r5, r3, #1
80101e68:	e1340005 	teq	r4, r5
80101e6c:	01300002 	teqeq	r0, r2
80101e70:	1194c000 	orrsne	ip, r4, r0
80101e74:	1195c002 	orrsne	ip, r5, r2
80101e78:	11f0cac4 	mvnsne	ip, r4, asr #21
80101e7c:	11f0cac5 	mvnsne	ip, r5, asr #21
80101e80:	0a00008c 	beq	801020b8 <__adddf3+0x25c>
80101e84:	e1a04aa4 	lsr	r4, r4, #21
80101e88:	e0745aa5 	rsbs	r5, r4, r5, lsr #21
80101e8c:	b2655000 	rsblt	r5, r5, #0
80101e90:	da000006 	ble	80101eb0 <__adddf3+0x54>
80101e94:	e0844005 	add	r4, r4, r5
80101e98:	e0202002 	eor	r2, r0, r2
80101e9c:	e0213003 	eor	r3, r1, r3
80101ea0:	e0220000 	eor	r0, r2, r0
80101ea4:	e0231001 	eor	r1, r3, r1
80101ea8:	e0202002 	eor	r2, r0, r2
80101eac:	e0213003 	eor	r3, r1, r3
80101eb0:	e3550036 	cmp	r5, #54	; 0x36
80101eb4:	88bd4030 	pophi	{r4, r5, lr}
80101eb8:	812fff1e 	bxhi	lr
80101ebc:	e3110102 	tst	r1, #-2147483648	; 0x80000000
80101ec0:	e1a01601 	lsl	r1, r1, #12
80101ec4:	e3a0c601 	mov	ip, #1048576	; 0x100000
80101ec8:	e18c1621 	orr	r1, ip, r1, lsr #12
80101ecc:	0a000001 	beq	80101ed8 <__adddf3+0x7c>
80101ed0:	e2700000 	rsbs	r0, r0, #0
80101ed4:	e2e11000 	rsc	r1, r1, #0
80101ed8:	e3130102 	tst	r3, #-2147483648	; 0x80000000
80101edc:	e1a03603 	lsl	r3, r3, #12
80101ee0:	e18c3623 	orr	r3, ip, r3, lsr #12
80101ee4:	0a000001 	beq	80101ef0 <__adddf3+0x94>
80101ee8:	e2722000 	rsbs	r2, r2, #0
80101eec:	e2e33000 	rsc	r3, r3, #0
80101ef0:	e1340005 	teq	r4, r5
80101ef4:	0a000069 	beq	801020a0 <__adddf3+0x244>
80101ef8:	e2444001 	sub	r4, r4, #1
80101efc:	e275e020 	rsbs	lr, r5, #32
80101f00:	ba000005 	blt	80101f1c <__adddf3+0xc0>
80101f04:	e1a0ce12 	lsl	ip, r2, lr
80101f08:	e0900532 	adds	r0, r0, r2, lsr r5
80101f0c:	e2a11000 	adc	r1, r1, #0
80101f10:	e0900e13 	adds	r0, r0, r3, lsl lr
80101f14:	e0b11553 	adcs	r1, r1, r3, asr r5
80101f18:	ea000006 	b	80101f38 <__adddf3+0xdc>
80101f1c:	e2455020 	sub	r5, r5, #32
80101f20:	e28ee020 	add	lr, lr, #32
80101f24:	e3520001 	cmp	r2, #1
80101f28:	e1a0ce13 	lsl	ip, r3, lr
80101f2c:	238cc002 	orrcs	ip, ip, #2
80101f30:	e0900553 	adds	r0, r0, r3, asr r5
80101f34:	e0b11fc3 	adcs	r1, r1, r3, asr #31
80101f38:	e2015102 	and	r5, r1, #-2147483648	; 0x80000000
80101f3c:	5a000002 	bpl	80101f4c <__adddf3+0xf0>
80101f40:	e27cc000 	rsbs	ip, ip, #0
80101f44:	e2f00000 	rscs	r0, r0, #0
80101f48:	e2e11000 	rsc	r1, r1, #0
80101f4c:	e3510601 	cmp	r1, #1048576	; 0x100000
80101f50:	3a00000f 	bcc	80101f94 <__adddf3+0x138>
80101f54:	e3510602 	cmp	r1, #2097152	; 0x200000
80101f58:	3a000006 	bcc	80101f78 <__adddf3+0x11c>
80101f5c:	e1b010a1 	lsrs	r1, r1, #1
80101f60:	e1b00060 	rrxs	r0, r0
80101f64:	e1a0c06c 	rrx	ip, ip
80101f68:	e2844001 	add	r4, r4, #1
80101f6c:	e1a02a84 	lsl	r2, r4, #21
80101f70:	e3720501 	cmn	r2, #4194304	; 0x400000
80101f74:	2a00006b 	bcs	80102128 <__adddf3+0x2cc>
80101f78:	e35c0102 	cmp	ip, #-2147483648	; 0x80000000
80101f7c:	01b0c0a0 	lsrseq	ip, r0, #1
80101f80:	e2b00000 	adcs	r0, r0, #0
80101f84:	e0a11a04 	adc	r1, r1, r4, lsl #20
80101f88:	e1811005 	orr	r1, r1, r5
80101f8c:	e8bd4030 	pop	{r4, r5, lr}
80101f90:	e12fff1e 	bx	lr
80101f94:	e1b0c08c 	lsls	ip, ip, #1
80101f98:	e0b00000 	adcs	r0, r0, r0
80101f9c:	e0a11001 	adc	r1, r1, r1
80101fa0:	e3110601 	tst	r1, #1048576	; 0x100000
80101fa4:	e2444001 	sub	r4, r4, #1
80101fa8:	1afffff2 	bne	80101f78 <__adddf3+0x11c>
80101fac:	e3310000 	teq	r1, #0
80101fb0:	13a03014 	movne	r3, #20
80101fb4:	03a03034 	moveq	r3, #52	; 0x34
80101fb8:	01a01000 	moveq	r1, r0
80101fbc:	03a00000 	moveq	r0, #0
80101fc0:	e1a02001 	mov	r2, r1
80101fc4:	e3520801 	cmp	r2, #65536	; 0x10000
80101fc8:	21a02822 	lsrcs	r2, r2, #16
80101fcc:	22433010 	subcs	r3, r3, #16
80101fd0:	e3520c01 	cmp	r2, #256	; 0x100
80101fd4:	21a02422 	lsrcs	r2, r2, #8
80101fd8:	22433008 	subcs	r3, r3, #8
80101fdc:	e3520010 	cmp	r2, #16
80101fe0:	21a02222 	lsrcs	r2, r2, #4
80101fe4:	22433004 	subcs	r3, r3, #4
80101fe8:	e3520004 	cmp	r2, #4
80101fec:	22433002 	subcs	r3, r3, #2
80101ff0:	304330a2 	subcc	r3, r3, r2, lsr #1
80101ff4:	e04331a2 	sub	r3, r3, r2, lsr #3
80101ff8:	e2532020 	subs	r2, r3, #32
80101ffc:	aa000007 	bge	80102020 <__adddf3+0x1c4>
80102000:	e292200c 	adds	r2, r2, #12
80102004:	da000004 	ble	8010201c <__adddf3+0x1c0>
80102008:	e282c014 	add	ip, r2, #20
8010200c:	e262200c 	rsb	r2, r2, #12
80102010:	e1a00c11 	lsl	r0, r1, ip
80102014:	e1a01231 	lsr	r1, r1, r2
80102018:	ea000004 	b	80102030 <__adddf3+0x1d4>
8010201c:	e2822014 	add	r2, r2, #20
80102020:	d262c020 	rsble	ip, r2, #32
80102024:	e1a01211 	lsl	r1, r1, r2
80102028:	d1811c30 	orrle	r1, r1, r0, lsr ip
8010202c:	d1a00210 	lslle	r0, r0, r2
80102030:	e0544003 	subs	r4, r4, r3
80102034:	a0811a04 	addge	r1, r1, r4, lsl #20
80102038:	a1811005 	orrge	r1, r1, r5
8010203c:	a8bd4030 	popge	{r4, r5, lr}
80102040:	a12fff1e 	bxge	lr
80102044:	e1e04004 	mvn	r4, r4
80102048:	e254401f 	subs	r4, r4, #31
8010204c:	aa00000f 	bge	80102090 <__adddf3+0x234>
80102050:	e294400c 	adds	r4, r4, #12
80102054:	ca000006 	bgt	80102074 <__adddf3+0x218>
80102058:	e2844014 	add	r4, r4, #20
8010205c:	e2642020 	rsb	r2, r4, #32
80102060:	e1a00430 	lsr	r0, r0, r4
80102064:	e1800211 	orr	r0, r0, r1, lsl r2
80102068:	e1851431 	orr	r1, r5, r1, lsr r4
8010206c:	e8bd4030 	pop	{r4, r5, lr}
80102070:	e12fff1e 	bx	lr
80102074:	e264400c 	rsb	r4, r4, #12
80102078:	e2642020 	rsb	r2, r4, #32
8010207c:	e1a00230 	lsr	r0, r0, r2
80102080:	e1800411 	orr	r0, r0, r1, lsl r4
80102084:	e1a01005 	mov	r1, r5
80102088:	e8bd4030 	pop	{r4, r5, lr}
8010208c:	e12fff1e 	bx	lr
80102090:	e1a00431 	lsr	r0, r1, r4
80102094:	e1a01005 	mov	r1, r5
80102098:	e8bd4030 	pop	{r4, r5, lr}
8010209c:	e12fff1e 	bx	lr
801020a0:	e3340000 	teq	r4, #0
801020a4:	e2233601 	eor	r3, r3, #1048576	; 0x100000
801020a8:	02211601 	eoreq	r1, r1, #1048576	; 0x100000
801020ac:	02844001 	addeq	r4, r4, #1
801020b0:	12455001 	subne	r5, r5, #1
801020b4:	eaffff8f 	b	80101ef8 <__adddf3+0x9c>
801020b8:	e1f0cac4 	mvns	ip, r4, asr #21
801020bc:	11f0cac5 	mvnsne	ip, r5, asr #21
801020c0:	0a00001d 	beq	8010213c <__adddf3+0x2e0>
801020c4:	e1340005 	teq	r4, r5
801020c8:	01300002 	teqeq	r0, r2
801020cc:	0a000004 	beq	801020e4 <__adddf3+0x288>
801020d0:	e194c000 	orrs	ip, r4, r0
801020d4:	01a01003 	moveq	r1, r3
801020d8:	01a00002 	moveq	r0, r2
801020dc:	e8bd4030 	pop	{r4, r5, lr}
801020e0:	e12fff1e 	bx	lr
801020e4:	e1310003 	teq	r1, r3
801020e8:	13a01000 	movne	r1, #0
801020ec:	13a00000 	movne	r0, #0
801020f0:	18bd4030 	popne	{r4, r5, lr}
801020f4:	112fff1e 	bxne	lr
801020f8:	e1b0caa4 	lsrs	ip, r4, #21
801020fc:	1a000004 	bne	80102114 <__adddf3+0x2b8>
80102100:	e1b00080 	lsls	r0, r0, #1
80102104:	e0b11001 	adcs	r1, r1, r1
80102108:	23811102 	orrcs	r1, r1, #-2147483648	; 0x80000000
8010210c:	e8bd4030 	pop	{r4, r5, lr}
80102110:	e12fff1e 	bx	lr
80102114:	e2944501 	adds	r4, r4, #4194304	; 0x400000
80102118:	32811601 	addcc	r1, r1, #1048576	; 0x100000
8010211c:	38bd4030 	popcc	{r4, r5, lr}
80102120:	312fff1e 	bxcc	lr
80102124:	e2015102 	and	r5, r1, #-2147483648	; 0x80000000
80102128:	e385147f 	orr	r1, r5, #2130706432	; 0x7f000000
8010212c:	e381160f 	orr	r1, r1, #15728640	; 0xf00000
80102130:	e3a00000 	mov	r0, #0
80102134:	e8bd4030 	pop	{r4, r5, lr}
80102138:	e12fff1e 	bx	lr
8010213c:	e1f0cac4 	mvns	ip, r4, asr #21
80102140:	11a01003 	movne	r1, r3
80102144:	11a00002 	movne	r0, r2
80102148:	01f0cac5 	mvnseq	ip, r5, asr #21
8010214c:	11a03001 	movne	r3, r1
80102150:	11a02000 	movne	r2, r0
80102154:	e1904601 	orrs	r4, r0, r1, lsl #12
80102158:	01925603 	orrseq	r5, r2, r3, lsl #12
8010215c:	01310003 	teqeq	r1, r3
80102160:	13811702 	orrne	r1, r1, #524288	; 0x80000
80102164:	e8bd4030 	pop	{r4, r5, lr}
80102168:	e12fff1e 	bx	lr

8010216c <__aeabi_ui2d>:
8010216c:	e3300000 	teq	r0, #0
80102170:	03a01000 	moveq	r1, #0
80102174:	012fff1e 	bxeq	lr
80102178:	e92d4030 	push	{r4, r5, lr}
8010217c:	e3a04b01 	mov	r4, #1024	; 0x400
80102180:	e2844032 	add	r4, r4, #50	; 0x32
80102184:	e3a05000 	mov	r5, #0
80102188:	e3a01000 	mov	r1, #0
8010218c:	eaffff86 	b	80101fac <__adddf3+0x150>

80102190 <__aeabi_i2d>:
80102190:	e3300000 	teq	r0, #0
80102194:	03a01000 	moveq	r1, #0
80102198:	012fff1e 	bxeq	lr
8010219c:	e92d4030 	push	{r4, r5, lr}
801021a0:	e3a04b01 	mov	r4, #1024	; 0x400
801021a4:	e2844032 	add	r4, r4, #50	; 0x32
801021a8:	e2105102 	ands	r5, r0, #-2147483648	; 0x80000000
801021ac:	42600000 	rsbmi	r0, r0, #0
801021b0:	e3a01000 	mov	r1, #0
801021b4:	eaffff7c 	b	80101fac <__adddf3+0x150>

801021b8 <__aeabi_f2d>:
801021b8:	e1b02080 	lsls	r2, r0, #1
801021bc:	e1a011c2 	asr	r1, r2, #3
801021c0:	e1a01061 	rrx	r1, r1
801021c4:	e1a00e02 	lsl	r0, r2, #28
801021c8:	121234ff 	andsne	r3, r2, #-16777216	; 0xff000000
801021cc:	133304ff 	teqne	r3, #-16777216	; 0xff000000
801021d0:	1221130e 	eorne	r1, r1, #939524096	; 0x38000000
801021d4:	112fff1e 	bxne	lr
801021d8:	e3d224ff 	bics	r2, r2, #-16777216	; 0xff000000
801021dc:	012fff1e 	bxeq	lr
801021e0:	e33304ff 	teq	r3, #-16777216	; 0xff000000
801021e4:	03811702 	orreq	r1, r1, #524288	; 0x80000
801021e8:	012fff1e 	bxeq	lr
801021ec:	e92d4030 	push	{r4, r5, lr}
801021f0:	e3a04d0e 	mov	r4, #896	; 0x380
801021f4:	e2015102 	and	r5, r1, #-2147483648	; 0x80000000
801021f8:	e3c11102 	bic	r1, r1, #-2147483648	; 0x80000000
801021fc:	eaffff6a 	b	80101fac <__adddf3+0x150>

80102200 <__aeabi_ul2d>:
80102200:	e1902001 	orrs	r2, r0, r1
80102204:	012fff1e 	bxeq	lr
80102208:	e92d4030 	push	{r4, r5, lr}
8010220c:	e3a05000 	mov	r5, #0
80102210:	ea000006 	b	80102230 <__aeabi_l2d+0x1c>

80102214 <__aeabi_l2d>:
80102214:	e1902001 	orrs	r2, r0, r1
80102218:	012fff1e 	bxeq	lr
8010221c:	e92d4030 	push	{r4, r5, lr}
80102220:	e2115102 	ands	r5, r1, #-2147483648	; 0x80000000
80102224:	5a000001 	bpl	80102230 <__aeabi_l2d+0x1c>
80102228:	e2700000 	rsbs	r0, r0, #0
8010222c:	e2e11000 	rsc	r1, r1, #0
80102230:	e3a04b01 	mov	r4, #1024	; 0x400
80102234:	e2844032 	add	r4, r4, #50	; 0x32
80102238:	e1b0cb21 	lsrs	ip, r1, #22
8010223c:	0affff42 	beq	80101f4c <__adddf3+0xf0>
80102240:	e3a02003 	mov	r2, #3
80102244:	e1b0c1ac 	lsrs	ip, ip, #3
80102248:	12822003 	addne	r2, r2, #3
8010224c:	e1b0c1ac 	lsrs	ip, ip, #3
80102250:	12822003 	addne	r2, r2, #3
80102254:	e08221ac 	add	r2, r2, ip, lsr #3
80102258:	e2623020 	rsb	r3, r2, #32
8010225c:	e1a0c310 	lsl	ip, r0, r3
80102260:	e1a00230 	lsr	r0, r0, r2
80102264:	e1800311 	orr	r0, r0, r1, lsl r3
80102268:	e1a01231 	lsr	r1, r1, r2
8010226c:	e0844002 	add	r4, r4, r2
80102270:	eaffff35 	b	80101f4c <__adddf3+0xf0>

80102274 <__aeabi_dmul>:
80102274:	e92d4070 	push	{r4, r5, r6, lr}
80102278:	e3a0c0ff 	mov	ip, #255	; 0xff
8010227c:	e38ccc07 	orr	ip, ip, #1792	; 0x700
80102280:	e01c4a21 	ands	r4, ip, r1, lsr #20
80102284:	101c5a23 	andsne	r5, ip, r3, lsr #20
80102288:	1134000c 	teqne	r4, ip
8010228c:	1135000c 	teqne	r5, ip
80102290:	0b000075 	bleq	8010246c <__aeabi_dmul+0x1f8>
80102294:	e0844005 	add	r4, r4, r5
80102298:	e0216003 	eor	r6, r1, r3
8010229c:	e1c11a8c 	bic	r1, r1, ip, lsl #21
801022a0:	e1c33a8c 	bic	r3, r3, ip, lsl #21
801022a4:	e1905601 	orrs	r5, r0, r1, lsl #12
801022a8:	11925603 	orrsne	r5, r2, r3, lsl #12
801022ac:	e3811601 	orr	r1, r1, #1048576	; 0x100000
801022b0:	e3833601 	orr	r3, r3, #1048576	; 0x100000
801022b4:	0a00001d 	beq	80102330 <__aeabi_dmul+0xbc>
801022b8:	e08ec290 	umull	ip, lr, r0, r2
801022bc:	e3a05000 	mov	r5, #0
801022c0:	e0a5e291 	umlal	lr, r5, r1, r2
801022c4:	e2062102 	and	r2, r6, #-2147483648	; 0x80000000
801022c8:	e0a5e390 	umlal	lr, r5, r0, r3
801022cc:	e3a06000 	mov	r6, #0
801022d0:	e0a65391 	umlal	r5, r6, r1, r3
801022d4:	e33c0000 	teq	ip, #0
801022d8:	138ee001 	orrne	lr, lr, #1
801022dc:	e24440ff 	sub	r4, r4, #255	; 0xff
801022e0:	e3560c02 	cmp	r6, #512	; 0x200
801022e4:	e2c44c03 	sbc	r4, r4, #768	; 0x300
801022e8:	2a000002 	bcs	801022f8 <__aeabi_dmul+0x84>
801022ec:	e1b0e08e 	lsls	lr, lr, #1
801022f0:	e0b55005 	adcs	r5, r5, r5
801022f4:	e0a66006 	adc	r6, r6, r6
801022f8:	e1821586 	orr	r1, r2, r6, lsl #11
801022fc:	e1811aa5 	orr	r1, r1, r5, lsr #21
80102300:	e1a00585 	lsl	r0, r5, #11
80102304:	e1800aae 	orr	r0, r0, lr, lsr #21
80102308:	e1a0e58e 	lsl	lr, lr, #11
8010230c:	e254c0fd 	subs	ip, r4, #253	; 0xfd
80102310:	835c0c07 	cmphi	ip, #1792	; 0x700
80102314:	8a000011 	bhi	80102360 <__aeabi_dmul+0xec>
80102318:	e35e0102 	cmp	lr, #-2147483648	; 0x80000000
8010231c:	01b0e0a0 	lsrseq	lr, r0, #1
80102320:	e2b00000 	adcs	r0, r0, #0
80102324:	e0a11a04 	adc	r1, r1, r4, lsl #20
80102328:	e8bd4070 	pop	{r4, r5, r6, lr}
8010232c:	e12fff1e 	bx	lr
80102330:	e2066102 	and	r6, r6, #-2147483648	; 0x80000000
80102334:	e1861001 	orr	r1, r6, r1
80102338:	e1800002 	orr	r0, r0, r2
8010233c:	e0211003 	eor	r1, r1, r3
80102340:	e05440ac 	subs	r4, r4, ip, lsr #1
80102344:	c074500c 	rsbsgt	r5, r4, ip
80102348:	c1811a04 	orrgt	r1, r1, r4, lsl #20
8010234c:	c8bd4070 	popgt	{r4, r5, r6, lr}
80102350:	c12fff1e 	bxgt	lr
80102354:	e3811601 	orr	r1, r1, #1048576	; 0x100000
80102358:	e3a0e000 	mov	lr, #0
8010235c:	e2544001 	subs	r4, r4, #1
80102360:	ca00005d 	bgt	801024dc <__aeabi_dmul+0x268>
80102364:	e3740036 	cmn	r4, #54	; 0x36
80102368:	d3a00000 	movle	r0, #0
8010236c:	d2011102 	andle	r1, r1, #-2147483648	; 0x80000000
80102370:	d8bd4070 	pople	{r4, r5, r6, lr}
80102374:	d12fff1e 	bxle	lr
80102378:	e2644000 	rsb	r4, r4, #0
8010237c:	e2544020 	subs	r4, r4, #32
80102380:	aa00001a 	bge	801023f0 <__aeabi_dmul+0x17c>
80102384:	e294400c 	adds	r4, r4, #12
80102388:	ca00000c 	bgt	801023c0 <__aeabi_dmul+0x14c>
8010238c:	e2844014 	add	r4, r4, #20
80102390:	e2645020 	rsb	r5, r4, #32
80102394:	e1a03510 	lsl	r3, r0, r5
80102398:	e1a00430 	lsr	r0, r0, r4
8010239c:	e1800511 	orr	r0, r0, r1, lsl r5
801023a0:	e2012102 	and	r2, r1, #-2147483648	; 0x80000000
801023a4:	e3c11102 	bic	r1, r1, #-2147483648	; 0x80000000
801023a8:	e0900fa3 	adds	r0, r0, r3, lsr #31
801023ac:	e0a21431 	adc	r1, r2, r1, lsr r4
801023b0:	e19ee083 	orrs	lr, lr, r3, lsl #1
801023b4:	01c00fa3 	biceq	r0, r0, r3, lsr #31
801023b8:	e8bd4070 	pop	{r4, r5, r6, lr}
801023bc:	e12fff1e 	bx	lr
801023c0:	e264400c 	rsb	r4, r4, #12
801023c4:	e2645020 	rsb	r5, r4, #32
801023c8:	e1a03410 	lsl	r3, r0, r4
801023cc:	e1a00530 	lsr	r0, r0, r5
801023d0:	e1800411 	orr	r0, r0, r1, lsl r4
801023d4:	e2011102 	and	r1, r1, #-2147483648	; 0x80000000
801023d8:	e0900fa3 	adds	r0, r0, r3, lsr #31
801023dc:	e2a11000 	adc	r1, r1, #0
801023e0:	e19ee083 	orrs	lr, lr, r3, lsl #1
801023e4:	01c00fa3 	biceq	r0, r0, r3, lsr #31
801023e8:	e8bd4070 	pop	{r4, r5, r6, lr}
801023ec:	e12fff1e 	bx	lr
801023f0:	e2645020 	rsb	r5, r4, #32
801023f4:	e18ee510 	orr	lr, lr, r0, lsl r5
801023f8:	e1a03430 	lsr	r3, r0, r4
801023fc:	e1833511 	orr	r3, r3, r1, lsl r5
80102400:	e1a00431 	lsr	r0, r1, r4
80102404:	e2011102 	and	r1, r1, #-2147483648	; 0x80000000
80102408:	e1c00431 	bic	r0, r0, r1, lsr r4
8010240c:	e0800fa3 	add	r0, r0, r3, lsr #31
80102410:	e19ee083 	orrs	lr, lr, r3, lsl #1
80102414:	01c00fa3 	biceq	r0, r0, r3, lsr #31
80102418:	e8bd4070 	pop	{r4, r5, r6, lr}
8010241c:	e12fff1e 	bx	lr
80102420:	e3340000 	teq	r4, #0
80102424:	1a000008 	bne	8010244c <__aeabi_dmul+0x1d8>
80102428:	e2016102 	and	r6, r1, #-2147483648	; 0x80000000
8010242c:	e1b00080 	lsls	r0, r0, #1
80102430:	e0a11001 	adc	r1, r1, r1
80102434:	e3110601 	tst	r1, #1048576	; 0x100000
80102438:	02444001 	subeq	r4, r4, #1
8010243c:	0afffffa 	beq	8010242c <__aeabi_dmul+0x1b8>
80102440:	e1811006 	orr	r1, r1, r6
80102444:	e3350000 	teq	r5, #0
80102448:	112fff1e 	bxne	lr
8010244c:	e2036102 	and	r6, r3, #-2147483648	; 0x80000000
80102450:	e1b02082 	lsls	r2, r2, #1
80102454:	e0a33003 	adc	r3, r3, r3
80102458:	e3130601 	tst	r3, #1048576	; 0x100000
8010245c:	02455001 	subeq	r5, r5, #1
80102460:	0afffffa 	beq	80102450 <__aeabi_dmul+0x1dc>
80102464:	e1833006 	orr	r3, r3, r6
80102468:	e12fff1e 	bx	lr
8010246c:	e134000c 	teq	r4, ip
80102470:	e00c5a23 	and	r5, ip, r3, lsr #20
80102474:	1135000c 	teqne	r5, ip
80102478:	0a000007 	beq	8010249c <__aeabi_dmul+0x228>
8010247c:	e1906081 	orrs	r6, r0, r1, lsl #1
80102480:	11926083 	orrsne	r6, r2, r3, lsl #1
80102484:	1affffe5 	bne	80102420 <__aeabi_dmul+0x1ac>
80102488:	e0211003 	eor	r1, r1, r3
8010248c:	e2011102 	and	r1, r1, #-2147483648	; 0x80000000
80102490:	e3a00000 	mov	r0, #0
80102494:	e8bd4070 	pop	{r4, r5, r6, lr}
80102498:	e12fff1e 	bx	lr
8010249c:	e1906081 	orrs	r6, r0, r1, lsl #1
801024a0:	01a00002 	moveq	r0, r2
801024a4:	01a01003 	moveq	r1, r3
801024a8:	11926083 	orrsne	r6, r2, r3, lsl #1
801024ac:	0a000010 	beq	801024f4 <__aeabi_dmul+0x280>
801024b0:	e134000c 	teq	r4, ip
801024b4:	1a000001 	bne	801024c0 <__aeabi_dmul+0x24c>
801024b8:	e1906601 	orrs	r6, r0, r1, lsl #12
801024bc:	1a00000c 	bne	801024f4 <__aeabi_dmul+0x280>
801024c0:	e135000c 	teq	r5, ip
801024c4:	1a000003 	bne	801024d8 <__aeabi_dmul+0x264>
801024c8:	e1926603 	orrs	r6, r2, r3, lsl #12
801024cc:	11a00002 	movne	r0, r2
801024d0:	11a01003 	movne	r1, r3
801024d4:	1a000006 	bne	801024f4 <__aeabi_dmul+0x280>
801024d8:	e0211003 	eor	r1, r1, r3
801024dc:	e2011102 	and	r1, r1, #-2147483648	; 0x80000000
801024e0:	e381147f 	orr	r1, r1, #2130706432	; 0x7f000000
801024e4:	e381160f 	orr	r1, r1, #15728640	; 0xf00000
801024e8:	e3a00000 	mov	r0, #0
801024ec:	e8bd4070 	pop	{r4, r5, r6, lr}
801024f0:	e12fff1e 	bx	lr
801024f4:	e381147f 	orr	r1, r1, #2130706432	; 0x7f000000
801024f8:	e381173e 	orr	r1, r1, #16252928	; 0xf80000
801024fc:	e8bd4070 	pop	{r4, r5, r6, lr}
80102500:	e12fff1e 	bx	lr

80102504 <__aeabi_ddiv>:
80102504:	e92d4070 	push	{r4, r5, r6, lr}
80102508:	e3a0c0ff 	mov	ip, #255	; 0xff
8010250c:	e38ccc07 	orr	ip, ip, #1792	; 0x700
80102510:	e01c4a21 	ands	r4, ip, r1, lsr #20
80102514:	101c5a23 	andsne	r5, ip, r3, lsr #20
80102518:	1134000c 	teqne	r4, ip
8010251c:	1135000c 	teqne	r5, ip
80102520:	0b00005e 	bleq	801026a0 <__aeabi_ddiv+0x19c>
80102524:	e0444005 	sub	r4, r4, r5
80102528:	e021e003 	eor	lr, r1, r3
8010252c:	e1925603 	orrs	r5, r2, r3, lsl #12
80102530:	e1a01601 	lsl	r1, r1, #12
80102534:	0a00004c 	beq	8010266c <__aeabi_ddiv+0x168>
80102538:	e1a03603 	lsl	r3, r3, #12
8010253c:	e3a05201 	mov	r5, #268435456	; 0x10000000
80102540:	e1853223 	orr	r3, r5, r3, lsr #4
80102544:	e1833c22 	orr	r3, r3, r2, lsr #24
80102548:	e1a02402 	lsl	r2, r2, #8
8010254c:	e1855221 	orr	r5, r5, r1, lsr #4
80102550:	e1855c20 	orr	r5, r5, r0, lsr #24
80102554:	e1a06400 	lsl	r6, r0, #8
80102558:	e20e1102 	and	r1, lr, #-2147483648	; 0x80000000
8010255c:	e1550003 	cmp	r5, r3
80102560:	01560002 	cmpeq	r6, r2
80102564:	e2a440fd 	adc	r4, r4, #253	; 0xfd
80102568:	e2844c03 	add	r4, r4, #768	; 0x300
8010256c:	2a000001 	bcs	80102578 <__aeabi_ddiv+0x74>
80102570:	e1b030a3 	lsrs	r3, r3, #1
80102574:	e1a02062 	rrx	r2, r2
80102578:	e0566002 	subs	r6, r6, r2
8010257c:	e0c55003 	sbc	r5, r5, r3
80102580:	e1b030a3 	lsrs	r3, r3, #1
80102584:	e1a02062 	rrx	r2, r2
80102588:	e3a00601 	mov	r0, #1048576	; 0x100000
8010258c:	e3a0c702 	mov	ip, #524288	; 0x80000
80102590:	e056e002 	subs	lr, r6, r2
80102594:	e0d5e003 	sbcs	lr, r5, r3
80102598:	20466002 	subcs	r6, r6, r2
8010259c:	21a0500e 	movcs	r5, lr
801025a0:	2180000c 	orrcs	r0, r0, ip
801025a4:	e1b030a3 	lsrs	r3, r3, #1
801025a8:	e1a02062 	rrx	r2, r2
801025ac:	e056e002 	subs	lr, r6, r2
801025b0:	e0d5e003 	sbcs	lr, r5, r3
801025b4:	20466002 	subcs	r6, r6, r2
801025b8:	21a0500e 	movcs	r5, lr
801025bc:	218000ac 	orrcs	r0, r0, ip, lsr #1
801025c0:	e1b030a3 	lsrs	r3, r3, #1
801025c4:	e1a02062 	rrx	r2, r2
801025c8:	e056e002 	subs	lr, r6, r2
801025cc:	e0d5e003 	sbcs	lr, r5, r3
801025d0:	20466002 	subcs	r6, r6, r2
801025d4:	21a0500e 	movcs	r5, lr
801025d8:	2180012c 	orrcs	r0, r0, ip, lsr #2
801025dc:	e1b030a3 	lsrs	r3, r3, #1
801025e0:	e1a02062 	rrx	r2, r2
801025e4:	e056e002 	subs	lr, r6, r2
801025e8:	e0d5e003 	sbcs	lr, r5, r3
801025ec:	20466002 	subcs	r6, r6, r2
801025f0:	21a0500e 	movcs	r5, lr
801025f4:	218001ac 	orrcs	r0, r0, ip, lsr #3
801025f8:	e195e006 	orrs	lr, r5, r6
801025fc:	0a00000d 	beq	80102638 <__aeabi_ddiv+0x134>
80102600:	e1a05205 	lsl	r5, r5, #4
80102604:	e1855e26 	orr	r5, r5, r6, lsr #28
80102608:	e1a06206 	lsl	r6, r6, #4
8010260c:	e1a03183 	lsl	r3, r3, #3
80102610:	e1833ea2 	orr	r3, r3, r2, lsr #29
80102614:	e1a02182 	lsl	r2, r2, #3
80102618:	e1b0c22c 	lsrs	ip, ip, #4
8010261c:	1affffdb 	bne	80102590 <__aeabi_ddiv+0x8c>
80102620:	e3110601 	tst	r1, #1048576	; 0x100000
80102624:	1a000006 	bne	80102644 <__aeabi_ddiv+0x140>
80102628:	e1811000 	orr	r1, r1, r0
8010262c:	e3a00000 	mov	r0, #0
80102630:	e3a0c102 	mov	ip, #-2147483648	; 0x80000000
80102634:	eaffffd5 	b	80102590 <__aeabi_ddiv+0x8c>
80102638:	e3110601 	tst	r1, #1048576	; 0x100000
8010263c:	01811000 	orreq	r1, r1, r0
80102640:	03a00000 	moveq	r0, #0
80102644:	e254c0fd 	subs	ip, r4, #253	; 0xfd
80102648:	835c0c07 	cmphi	ip, #1792	; 0x700
8010264c:	8affff43 	bhi	80102360 <__aeabi_dmul+0xec>
80102650:	e055c003 	subs	ip, r5, r3
80102654:	0056c002 	subseq	ip, r6, r2
80102658:	01b0c0a0 	lsrseq	ip, r0, #1
8010265c:	e2b00000 	adcs	r0, r0, #0
80102660:	e0a11a04 	adc	r1, r1, r4, lsl #20
80102664:	e8bd4070 	pop	{r4, r5, r6, lr}
80102668:	e12fff1e 	bx	lr
8010266c:	e20ee102 	and	lr, lr, #-2147483648	; 0x80000000
80102670:	e18e1621 	orr	r1, lr, r1, lsr #12
80102674:	e09440ac 	adds	r4, r4, ip, lsr #1
80102678:	c074500c 	rsbsgt	r5, r4, ip
8010267c:	c1811a04 	orrgt	r1, r1, r4, lsl #20
80102680:	c8bd4070 	popgt	{r4, r5, r6, lr}
80102684:	c12fff1e 	bxgt	lr
80102688:	e3811601 	orr	r1, r1, #1048576	; 0x100000
8010268c:	e3a0e000 	mov	lr, #0
80102690:	e2544001 	subs	r4, r4, #1
80102694:	eaffff31 	b	80102360 <__aeabi_dmul+0xec>
80102698:	e185e006 	orr	lr, r5, r6
8010269c:	eaffff2f 	b	80102360 <__aeabi_dmul+0xec>
801026a0:	e00c5a23 	and	r5, ip, r3, lsr #20
801026a4:	e134000c 	teq	r4, ip
801026a8:	0135000c 	teqeq	r5, ip
801026ac:	0affff90 	beq	801024f4 <__aeabi_dmul+0x280>
801026b0:	e134000c 	teq	r4, ip
801026b4:	1a000006 	bne	801026d4 <__aeabi_ddiv+0x1d0>
801026b8:	e1904601 	orrs	r4, r0, r1, lsl #12
801026bc:	1affff8c 	bne	801024f4 <__aeabi_dmul+0x280>
801026c0:	e135000c 	teq	r5, ip
801026c4:	1affff83 	bne	801024d8 <__aeabi_dmul+0x264>
801026c8:	e1a00002 	mov	r0, r2
801026cc:	e1a01003 	mov	r1, r3
801026d0:	eaffff87 	b	801024f4 <__aeabi_dmul+0x280>
801026d4:	e135000c 	teq	r5, ip
801026d8:	1a000004 	bne	801026f0 <__aeabi_ddiv+0x1ec>
801026dc:	e1925603 	orrs	r5, r2, r3, lsl #12
801026e0:	0affff68 	beq	80102488 <__aeabi_dmul+0x214>
801026e4:	e1a00002 	mov	r0, r2
801026e8:	e1a01003 	mov	r1, r3
801026ec:	eaffff80 	b	801024f4 <__aeabi_dmul+0x280>
801026f0:	e1906081 	orrs	r6, r0, r1, lsl #1
801026f4:	11926083 	orrsne	r6, r2, r3, lsl #1
801026f8:	1affff48 	bne	80102420 <__aeabi_dmul+0x1ac>
801026fc:	e1904081 	orrs	r4, r0, r1, lsl #1
80102700:	1affff74 	bne	801024d8 <__aeabi_dmul+0x264>
80102704:	e1925083 	orrs	r5, r2, r3, lsl #1
80102708:	1affff5e 	bne	80102488 <__aeabi_dmul+0x214>
8010270c:	eaffff78 	b	801024f4 <__aeabi_dmul+0x280>

80102710 <__gedf2>:
80102710:	e3e0c000 	mvn	ip, #0
80102714:	ea000002 	b	80102724 <__cmpdf2+0x4>

80102718 <__ledf2>:
80102718:	e3a0c001 	mov	ip, #1
8010271c:	ea000000 	b	80102724 <__cmpdf2+0x4>

80102720 <__cmpdf2>:
80102720:	e3a0c001 	mov	ip, #1
80102724:	e52dc004 	push	{ip}		; (str ip, [sp, #-4]!)
80102728:	e1a0c081 	lsl	ip, r1, #1
8010272c:	e1f0cacc 	mvns	ip, ip, asr #21
80102730:	e1a0c083 	lsl	ip, r3, #1
80102734:	11f0cacc 	mvnsne	ip, ip, asr #21
80102738:	0a00000e 	beq	80102778 <__cmpdf2+0x58>
8010273c:	e28dd004 	add	sp, sp, #4
80102740:	e190c081 	orrs	ip, r0, r1, lsl #1
80102744:	0192c083 	orrseq	ip, r2, r3, lsl #1
80102748:	11310003 	teqne	r1, r3
8010274c:	01300002 	teqeq	r0, r2
80102750:	03a00000 	moveq	r0, #0
80102754:	012fff1e 	bxeq	lr
80102758:	e3700000 	cmn	r0, #0
8010275c:	e1310003 	teq	r1, r3
80102760:	51510003 	cmppl	r1, r3
80102764:	01500002 	cmpeq	r0, r2
80102768:	21a00fc3 	asrcs	r0, r3, #31
8010276c:	31e00fc3 	mvncc	r0, r3, asr #31
80102770:	e3800001 	orr	r0, r0, #1
80102774:	e12fff1e 	bx	lr
80102778:	e1a0c081 	lsl	ip, r1, #1
8010277c:	e1f0cacc 	mvns	ip, ip, asr #21
80102780:	1a000001 	bne	8010278c <__cmpdf2+0x6c>
80102784:	e190c601 	orrs	ip, r0, r1, lsl #12
80102788:	1a000004 	bne	801027a0 <__cmpdf2+0x80>
8010278c:	e1a0c083 	lsl	ip, r3, #1
80102790:	e1f0cacc 	mvns	ip, ip, asr #21
80102794:	1affffe8 	bne	8010273c <__cmpdf2+0x1c>
80102798:	e192c603 	orrs	ip, r2, r3, lsl #12
8010279c:	0affffe6 	beq	8010273c <__cmpdf2+0x1c>
801027a0:	e49d0004 	pop	{r0}		; (ldr r0, [sp], #4)
801027a4:	e12fff1e 	bx	lr

801027a8 <__aeabi_cdrcmple>:
801027a8:	e1a0c000 	mov	ip, r0
801027ac:	e1a00002 	mov	r0, r2
801027b0:	e1a0200c 	mov	r2, ip
801027b4:	e1a0c001 	mov	ip, r1
801027b8:	e1a01003 	mov	r1, r3
801027bc:	e1a0300c 	mov	r3, ip
801027c0:	eaffffff 	b	801027c4 <__aeabi_cdcmpeq>

801027c4 <__aeabi_cdcmpeq>:
801027c4:	e92d4001 	push	{r0, lr}
801027c8:	ebffffd4 	bl	80102720 <__cmpdf2>
801027cc:	e3500000 	cmp	r0, #0
801027d0:	43700000 	cmnmi	r0, #0
801027d4:	e8bd4001 	pop	{r0, lr}
801027d8:	e12fff1e 	bx	lr

801027dc <__aeabi_dcmpeq>:
801027dc:	e52de008 	str	lr, [sp, #-8]!
801027e0:	ebfffff7 	bl	801027c4 <__aeabi_cdcmpeq>
801027e4:	03a00001 	moveq	r0, #1
801027e8:	13a00000 	movne	r0, #0
801027ec:	e49de008 	ldr	lr, [sp], #8
801027f0:	e12fff1e 	bx	lr

801027f4 <__aeabi_dcmplt>:
801027f4:	e52de008 	str	lr, [sp, #-8]!
801027f8:	ebfffff1 	bl	801027c4 <__aeabi_cdcmpeq>
801027fc:	33a00001 	movcc	r0, #1
80102800:	23a00000 	movcs	r0, #0
80102804:	e49de008 	ldr	lr, [sp], #8
80102808:	e12fff1e 	bx	lr

8010280c <__aeabi_dcmple>:
8010280c:	e52de008 	str	lr, [sp, #-8]!
80102810:	ebffffeb 	bl	801027c4 <__aeabi_cdcmpeq>
80102814:	93a00001 	movls	r0, #1
80102818:	83a00000 	movhi	r0, #0
8010281c:	e49de008 	ldr	lr, [sp], #8
80102820:	e12fff1e 	bx	lr

80102824 <__aeabi_dcmpge>:
80102824:	e52de008 	str	lr, [sp, #-8]!
80102828:	ebffffde 	bl	801027a8 <__aeabi_cdrcmple>
8010282c:	93a00001 	movls	r0, #1
80102830:	83a00000 	movhi	r0, #0
80102834:	e49de008 	ldr	lr, [sp], #8
80102838:	e12fff1e 	bx	lr

8010283c <__aeabi_dcmpgt>:
8010283c:	e52de008 	str	lr, [sp, #-8]!
80102840:	ebffffd8 	bl	801027a8 <__aeabi_cdrcmple>
80102844:	33a00001 	movcc	r0, #1
80102848:	23a00000 	movcs	r0, #0
8010284c:	e49de008 	ldr	lr, [sp], #8
80102850:	e12fff1e 	bx	lr

80102854 <__aeabi_dcmpun>:
80102854:	e1a0c081 	lsl	ip, r1, #1
80102858:	e1f0cacc 	mvns	ip, ip, asr #21
8010285c:	1a000001 	bne	80102868 <__aeabi_dcmpun+0x14>
80102860:	e190c601 	orrs	ip, r0, r1, lsl #12
80102864:	1a000006 	bne	80102884 <__aeabi_dcmpun+0x30>
80102868:	e1a0c083 	lsl	ip, r3, #1
8010286c:	e1f0cacc 	mvns	ip, ip, asr #21
80102870:	1a000001 	bne	8010287c <__aeabi_dcmpun+0x28>
80102874:	e192c603 	orrs	ip, r2, r3, lsl #12
80102878:	1a000001 	bne	80102884 <__aeabi_dcmpun+0x30>
8010287c:	e3a00000 	mov	r0, #0
80102880:	e12fff1e 	bx	lr
80102884:	e3a00001 	mov	r0, #1
80102888:	e12fff1e 	bx	lr

8010288c <__aeabi_d2iz>:
8010288c:	e1a02081 	lsl	r2, r1, #1
80102890:	e2922602 	adds	r2, r2, #2097152	; 0x200000
80102894:	2a00000c 	bcs	801028cc <__aeabi_d2iz+0x40>
80102898:	5a000009 	bpl	801028c4 <__aeabi_d2iz+0x38>
8010289c:	e3e03e3e 	mvn	r3, #992	; 0x3e0
801028a0:	e0532ac2 	subs	r2, r3, r2, asr #21
801028a4:	9a00000a 	bls	801028d4 <__aeabi_d2iz+0x48>
801028a8:	e1a03581 	lsl	r3, r1, #11
801028ac:	e3833102 	orr	r3, r3, #-2147483648	; 0x80000000
801028b0:	e1833aa0 	orr	r3, r3, r0, lsr #21
801028b4:	e3110102 	tst	r1, #-2147483648	; 0x80000000
801028b8:	e1a00233 	lsr	r0, r3, r2
801028bc:	12600000 	rsbne	r0, r0, #0
801028c0:	e12fff1e 	bx	lr
801028c4:	e3a00000 	mov	r0, #0
801028c8:	e12fff1e 	bx	lr
801028cc:	e1900601 	orrs	r0, r0, r1, lsl #12
801028d0:	1a000002 	bne	801028e0 <__aeabi_d2iz+0x54>
801028d4:	e2110102 	ands	r0, r1, #-2147483648	; 0x80000000
801028d8:	03e00102 	mvneq	r0, #-2147483648	; 0x80000000
801028dc:	e12fff1e 	bx	lr
801028e0:	e3a00000 	mov	r0, #0
801028e4:	e12fff1e 	bx	lr

801028e8 <__aeabi_uldivmod>:
801028e8:	e3530000 	cmp	r3, #0
801028ec:	03520000 	cmpeq	r2, #0
801028f0:	1a000004 	bne	80102908 <__aeabi_uldivmod+0x20>
801028f4:	e3510000 	cmp	r1, #0
801028f8:	03500000 	cmpeq	r0, #0
801028fc:	13e01000 	mvnne	r1, #0
80102900:	13e00000 	mvnne	r0, #0
80102904:	eafffd50 	b	80101e4c <__aeabi_idiv0>
80102908:	e24dd008 	sub	sp, sp, #8
8010290c:	e92d6000 	push	{sp, lr}
80102910:	eb000003 	bl	80102924 <__udivmoddi4>
80102914:	e59de004 	ldr	lr, [sp, #4]
80102918:	e28dd008 	add	sp, sp, #8
8010291c:	e8bd000c 	pop	{r2, r3}
80102920:	e12fff1e 	bx	lr

80102924 <__udivmoddi4>:
80102924:	e92d4ff0 	push	{r4, r5, r6, r7, r8, r9, sl, fp, lr}
80102928:	e1a04000 	mov	r4, r0
8010292c:	e1a05001 	mov	r5, r1
80102930:	e1510003 	cmp	r1, r3
80102934:	e24dd00c 	sub	sp, sp, #12
80102938:	01500002 	cmpeq	r0, r2
8010293c:	e88d0030 	stm	sp, {r4, r5}
80102940:	e59da030 	ldr	sl, [sp, #48]	; 0x30
80102944:	33a08000 	movcc	r8, #0
80102948:	33a09000 	movcc	r9, #0
8010294c:	3a000047 	bcc	80102a70 <__udivmoddi4+0x14c>
80102950:	e1a00002 	mov	r0, r2
80102954:	e1a01003 	mov	r1, r3
80102958:	e1a08002 	mov	r8, r2
8010295c:	e1a09003 	mov	r9, r3
80102960:	eb00004a 	bl	80102a90 <__clzdi2>
80102964:	e1a01005 	mov	r1, r5
80102968:	e1a0b000 	mov	fp, r0
8010296c:	e1a00004 	mov	r0, r4
80102970:	eb000046 	bl	80102a90 <__clzdi2>
80102974:	e04bb000 	sub	fp, fp, r0
80102978:	e1a07b19 	lsl	r7, r9, fp
8010297c:	e24b2020 	sub	r2, fp, #32
80102980:	e1877218 	orr	r7, r7, r8, lsl r2
80102984:	e26bc020 	rsb	ip, fp, #32
80102988:	e1877c38 	orr	r7, r7, r8, lsr ip
8010298c:	e1550007 	cmp	r5, r7
80102990:	e1a06b18 	lsl	r6, r8, fp
80102994:	01540006 	cmpeq	r4, r6
80102998:	33a08000 	movcc	r8, #0
8010299c:	33a09000 	movcc	r9, #0
801029a0:	3a000006 	bcc	801029c0 <__udivmoddi4+0x9c>
801029a4:	e3a0e001 	mov	lr, #1
801029a8:	e0544006 	subs	r4, r4, r6
801029ac:	e0c55007 	sbc	r5, r5, r7
801029b0:	e88d0030 	stm	sp, {r4, r5}
801029b4:	e1a0921e 	lsl	r9, lr, r2
801029b8:	e1899c3e 	orr	r9, r9, lr, lsr ip
801029bc:	e1a08b1e 	lsl	r8, lr, fp
801029c0:	e35b0000 	cmp	fp, #0
801029c4:	0a000029 	beq	80102a70 <__udivmoddi4+0x14c>
801029c8:	e1b070a7 	lsrs	r7, r7, #1
801029cc:	e1a06066 	rrx	r6, r6
801029d0:	e1a0e00b 	mov	lr, fp
801029d4:	ea000009 	b	80102a00 <__udivmoddi4+0xdc>
801029d8:	e0533006 	subs	r3, r3, r6
801029dc:	e0c44007 	sbc	r4, r4, r7
801029e0:	e1a01004 	mov	r1, r4
801029e4:	e0934003 	adds	r4, r3, r3
801029e8:	e0a15001 	adc	r5, r1, r1
801029ec:	e2940001 	adds	r0, r4, #1
801029f0:	e2a51000 	adc	r1, r5, #0
801029f4:	e25ee001 	subs	lr, lr, #1
801029f8:	e88d0003 	stm	sp, {r0, r1}
801029fc:	0a000009 	beq	80102a28 <__udivmoddi4+0x104>
80102a00:	e89d0018 	ldm	sp, {r3, r4}
80102a04:	e1540007 	cmp	r4, r7
80102a08:	01530006 	cmpeq	r3, r6
80102a0c:	2afffff1 	bcs	801029d8 <__udivmoddi4+0xb4>
80102a10:	e89d0003 	ldm	sp, {r0, r1}
80102a14:	e0903000 	adds	r3, r0, r0
80102a18:	e0a14001 	adc	r4, r1, r1
80102a1c:	e25ee001 	subs	lr, lr, #1
80102a20:	e88d0018 	stm	sp, {r3, r4}
80102a24:	1afffff5 	bne	80102a00 <__udivmoddi4+0xdc>
80102a28:	e89d0018 	ldm	sp, {r3, r4}
80102a2c:	e1a0eb33 	lsr	lr, r3, fp
80102a30:	e18eec14 	orr	lr, lr, r4, lsl ip
80102a34:	e1a01b34 	lsr	r1, r4, fp
80102a38:	e18ee234 	orr	lr, lr, r4, lsr r2
80102a3c:	e0936008 	adds	r6, r3, r8
80102a40:	e58d1004 	str	r1, [sp, #4]
80102a44:	e58de000 	str	lr, [sp]
80102a48:	e0a47009 	adc	r7, r4, r9
80102a4c:	e89d0018 	ldm	sp, {r3, r4}
80102a50:	e1a01b14 	lsl	r1, r4, fp
80102a54:	e1811213 	orr	r1, r1, r3, lsl r2
80102a58:	e1a00b13 	lsl	r0, r3, fp
80102a5c:	e0566000 	subs	r6, r6, r0
80102a60:	e1811c33 	orr	r1, r1, r3, lsr ip
80102a64:	e0c77001 	sbc	r7, r7, r1
80102a68:	e1a08006 	mov	r8, r6
80102a6c:	e1a09007 	mov	r9, r7
80102a70:	e35a0000 	cmp	sl, #0
80102a74:	189d0018 	ldmne	sp, {r3, r4}
80102a78:	188a0018 	stmne	sl, {r3, r4}
80102a7c:	e1a00008 	mov	r0, r8
80102a80:	e1a01009 	mov	r1, r9
80102a84:	e28dd00c 	add	sp, sp, #12
80102a88:	e8bd4ff0 	pop	{r4, r5, r6, r7, r8, r9, sl, fp, lr}
80102a8c:	e12fff1e 	bx	lr

80102a90 <__clzdi2>:
80102a90:	e92d4010 	push	{r4, lr}
80102a94:	e3510000 	cmp	r1, #0
80102a98:	1a000002 	bne	80102aa8 <__clzdi2+0x18>
80102a9c:	eb000005 	bl	80102ab8 <__clzsi2>
80102aa0:	e2800020 	add	r0, r0, #32
80102aa4:	ea000001 	b	80102ab0 <__clzdi2+0x20>
80102aa8:	e1a00001 	mov	r0, r1
80102aac:	eb000001 	bl	80102ab8 <__clzsi2>
80102ab0:	e8bd4010 	pop	{r4, lr}
80102ab4:	e12fff1e 	bx	lr

80102ab8 <__clzsi2>:
80102ab8:	e3a0101c 	mov	r1, #28
80102abc:	e3500801 	cmp	r0, #65536	; 0x10000
80102ac0:	21a00820 	lsrcs	r0, r0, #16
80102ac4:	22411010 	subcs	r1, r1, #16
80102ac8:	e3500c01 	cmp	r0, #256	; 0x100
80102acc:	21a00420 	lsrcs	r0, r0, #8
80102ad0:	22411008 	subcs	r1, r1, #8
80102ad4:	e3500010 	cmp	r0, #16
80102ad8:	21a00220 	lsrcs	r0, r0, #4
80102adc:	22411004 	subcs	r1, r1, #4
80102ae0:	e28f2008 	add	r2, pc, #8
80102ae4:	e7d20000 	ldrb	r0, [r2, r0]
80102ae8:	e0800001 	add	r0, r0, r1
80102aec:	e12fff1e 	bx	lr
80102af0:	02020304 	.word	0x02020304
80102af4:	01010101 	.word	0x01010101
	...

Disassembly of section .init:

80102b00 <_init>:
80102b00:	e1a0c00d 	mov	ip, sp
80102b04:	e92ddff8 	push	{r3, r4, r5, r6, r7, r8, r9, sl, fp, ip, lr, pc}
80102b08:	e24cb004 	sub	fp, ip, #4
80102b0c:	e24bd028 	sub	sp, fp, #40	; 0x28
80102b10:	e89d6ff0 	ldm	sp, {r4, r5, r6, r7, r8, r9, sl, fp, sp, lr}
80102b14:	e12fff1e 	bx	lr

Disassembly of section .fini:

80102b18 <_fini>:
80102b18:	e1a0c00d 	mov	ip, sp
80102b1c:	e92ddff8 	push	{r3, r4, r5, r6, r7, r8, r9, sl, fp, ip, lr, pc}
80102b20:	e24cb004 	sub	fp, ip, #4
80102b24:	e24bd028 	sub	sp, fp, #40	; 0x28
80102b28:	e89d6ff0 	ldm	sp, {r4, r5, r6, r7, r8, r9, sl, fp, sp, lr}
80102b2c:	e12fff1e 	bx	lr

Disassembly of section .text.__errno:

80102b30 <__errno>:
80102b30:	e59f3004 	ldr	r3, [pc, #4]	; 80102b3c <__errno+0xc>
80102b34:	e5930000 	ldr	r0, [r3]
80102b38:	e12fff1e 	bx	lr
80102b3c:	8010acf4 	.word	0x8010acf4

Disassembly of section .text.exit:

80102b40 <exit>:
80102b40:	e92d4010 	push	{r4, lr}
80102b44:	e3a01000 	mov	r1, #0
80102b48:	e1a04000 	mov	r4, r0
80102b4c:	eb000092 	bl	80102d9c <__call_exitprocs>
80102b50:	e59f3018 	ldr	r3, [pc, #24]	; 80102b70 <exit+0x30>
80102b54:	e5930000 	ldr	r0, [r3]
80102b58:	e590303c 	ldr	r3, [r0, #60]	; 0x3c
80102b5c:	e3530000 	cmp	r3, #0
80102b60:	11a0e00f 	movne	lr, pc
80102b64:	112fff13 	bxne	r3
80102b68:	e1a00004 	mov	r0, r4
80102b6c:	ebfff9ff 	bl	80101370 <_exit>
80102b70:	8010aa10 	.word	0x8010aa10

Disassembly of section .text.__libc_init_array:

80102b74 <__libc_init_array>:
80102b74:	e92d4070 	push	{r4, r5, r6, lr}
80102b78:	e59f606c 	ldr	r6, [pc, #108]	; 80102bec <__libc_init_array+0x78>
80102b7c:	e59f506c 	ldr	r5, [pc, #108]	; 80102bf0 <__libc_init_array+0x7c>
80102b80:	e0466005 	sub	r6, r6, r5
80102b84:	e1b06146 	asrs	r6, r6, #2
80102b88:	0a000007 	beq	80102bac <__libc_init_array+0x38>
80102b8c:	e3a04000 	mov	r4, #0
80102b90:	e2455004 	sub	r5, r5, #4
80102b94:	e2844001 	add	r4, r4, #1
80102b98:	e5b53004 	ldr	r3, [r5, #4]!
80102b9c:	e1a0e00f 	mov	lr, pc
80102ba0:	e12fff13 	bx	r3
80102ba4:	e1560004 	cmp	r6, r4
80102ba8:	1afffff9 	bne	80102b94 <__libc_init_array+0x20>
80102bac:	e59f6040 	ldr	r6, [pc, #64]	; 80102bf4 <__libc_init_array+0x80>
80102bb0:	e59f5040 	ldr	r5, [pc, #64]	; 80102bf8 <__libc_init_array+0x84>
80102bb4:	e0466005 	sub	r6, r6, r5
80102bb8:	ebffffd0 	bl	80102b00 <_init>
80102bbc:	e1b06146 	asrs	r6, r6, #2
80102bc0:	0a000007 	beq	80102be4 <__libc_init_array+0x70>
80102bc4:	e3a04000 	mov	r4, #0
80102bc8:	e2455004 	sub	r5, r5, #4
80102bcc:	e2844001 	add	r4, r4, #1
80102bd0:	e5b53004 	ldr	r3, [r5, #4]!
80102bd4:	e1a0e00f 	mov	lr, pc
80102bd8:	e12fff13 	bx	r3
80102bdc:	e1560004 	cmp	r6, r4
80102be0:	1afffff9 	bne	80102bcc <__libc_init_array+0x58>
80102be4:	e8bd4070 	pop	{r4, r5, r6, lr}
80102be8:	e12fff1e 	bx	lr
	...

Disassembly of section .text.memset:

80102bfc <memset>:
80102bfc:	e3100003 	tst	r0, #3
80102c00:	0a000040 	beq	80102d08 <memset+0x10c>
80102c04:	e3520000 	cmp	r2, #0
80102c08:	e2422001 	sub	r2, r2, #1
80102c0c:	012fff1e 	bxeq	lr
80102c10:	e201c0ff 	and	ip, r1, #255	; 0xff
80102c14:	e1a03000 	mov	r3, r0
80102c18:	ea000002 	b	80102c28 <memset+0x2c>
80102c1c:	e2422001 	sub	r2, r2, #1
80102c20:	e3720001 	cmn	r2, #1
80102c24:	012fff1e 	bxeq	lr
80102c28:	e4c3c001 	strb	ip, [r3], #1
80102c2c:	e3130003 	tst	r3, #3
80102c30:	1afffff9 	bne	80102c1c <memset+0x20>
80102c34:	e3520003 	cmp	r2, #3
80102c38:	9a00002a 	bls	80102ce8 <memset+0xec>
80102c3c:	e92d4030 	push	{r4, r5, lr}
80102c40:	e201e0ff 	and	lr, r1, #255	; 0xff
80102c44:	e18ee40e 	orr	lr, lr, lr, lsl #8
80102c48:	e352000f 	cmp	r2, #15
80102c4c:	e18ee80e 	orr	lr, lr, lr, lsl #16
80102c50:	9a000010 	bls	80102c98 <memset+0x9c>
80102c54:	e2425010 	sub	r5, r2, #16
80102c58:	e1a05225 	lsr	r5, r5, #4
80102c5c:	e2834020 	add	r4, r3, #32
80102c60:	e0844205 	add	r4, r4, r5, lsl #4
80102c64:	e283c010 	add	ip, r3, #16
80102c68:	e50ce010 	str	lr, [ip, #-16]
80102c6c:	e50ce00c 	str	lr, [ip, #-12]
80102c70:	e50ce008 	str	lr, [ip, #-8]
80102c74:	e50ce004 	str	lr, [ip, #-4]
80102c78:	e28cc010 	add	ip, ip, #16
80102c7c:	e15c0004 	cmp	ip, r4
80102c80:	1afffff8 	bne	80102c68 <memset+0x6c>
80102c84:	e202200f 	and	r2, r2, #15
80102c88:	e2855001 	add	r5, r5, #1
80102c8c:	e3520003 	cmp	r2, #3
80102c90:	e0833205 	add	r3, r3, r5, lsl #4
80102c94:	9a00000a 	bls	80102cc4 <memset+0xc8>
80102c98:	e1a04003 	mov	r4, r3
80102c9c:	e1a0c002 	mov	ip, r2
80102ca0:	e24cc004 	sub	ip, ip, #4
80102ca4:	e35c0003 	cmp	ip, #3
80102ca8:	e484e004 	str	lr, [r4], #4
80102cac:	8afffffb 	bhi	80102ca0 <memset+0xa4>
80102cb0:	e242c004 	sub	ip, r2, #4
80102cb4:	e3ccc003 	bic	ip, ip, #3
80102cb8:	e28cc004 	add	ip, ip, #4
80102cbc:	e083300c 	add	r3, r3, ip
80102cc0:	e2022003 	and	r2, r2, #3
80102cc4:	e3520000 	cmp	r2, #0
80102cc8:	120110ff 	andne	r1, r1, #255	; 0xff
80102ccc:	10832002 	addne	r2, r3, r2
80102cd0:	0a000002 	beq	80102ce0 <memset+0xe4>
80102cd4:	e4c31001 	strb	r1, [r3], #1
80102cd8:	e1520003 	cmp	r2, r3
80102cdc:	1afffffc 	bne	80102cd4 <memset+0xd8>
80102ce0:	e8bd4030 	pop	{r4, r5, lr}
80102ce4:	e12fff1e 	bx	lr
80102ce8:	e3520000 	cmp	r2, #0
80102cec:	012fff1e 	bxeq	lr
80102cf0:	e20110ff 	and	r1, r1, #255	; 0xff
80102cf4:	e0832002 	add	r2, r3, r2
80102cf8:	e4c31001 	strb	r1, [r3], #1
80102cfc:	e1520003 	cmp	r2, r3
80102d00:	1afffffc 	bne	80102cf8 <memset+0xfc>
80102d04:	e12fff1e 	bx	lr
80102d08:	e1a03000 	mov	r3, r0
80102d0c:	eaffffc8 	b	80102c34 <memset+0x38>

Disassembly of section .text._vsprintf_r:

80102d10 <_vsprintf_r>:
80102d10:	e3e0c102 	mvn	ip, #-2147483648	; 0x80000000
80102d14:	e52de004 	push	{lr}		; (str lr, [sp, #-4]!)
80102d18:	e59fe034 	ldr	lr, [pc, #52]	; 80102d54 <_vsprintf_r+0x44>
80102d1c:	e24dd06c 	sub	sp, sp, #108	; 0x6c
80102d20:	e58d1000 	str	r1, [sp]
80102d24:	e58d1010 	str	r1, [sp, #16]
80102d28:	e1a0100d 	mov	r1, sp
80102d2c:	e58dc014 	str	ip, [sp, #20]
80102d30:	e58dc008 	str	ip, [sp, #8]
80102d34:	e58de00c 	str	lr, [sp, #12]
80102d38:	eb00009f 	bl	80102fbc <_svfprintf_r>
80102d3c:	e3a02000 	mov	r2, #0
80102d40:	e59d3000 	ldr	r3, [sp]
80102d44:	e5c32000 	strb	r2, [r3]
80102d48:	e28dd06c 	add	sp, sp, #108	; 0x6c
80102d4c:	e49de004 	pop	{lr}		; (ldr lr, [sp], #4)
80102d50:	e12fff1e 	bx	lr
80102d54:	ffff0208 	.word	0xffff0208

Disassembly of section .text.vsprintf:

80102d58 <vsprintf>:
80102d58:	e59fc010 	ldr	ip, [pc, #16]	; 80102d70 <vsprintf+0x18>
80102d5c:	e1a03002 	mov	r3, r2
80102d60:	e1a02001 	mov	r2, r1
80102d64:	e1a01000 	mov	r1, r0
80102d68:	e59c0000 	ldr	r0, [ip]
80102d6c:	eaffffe7 	b	80102d10 <_vsprintf_r>
80102d70:	8010acf4 	.word	0x8010acf4

Disassembly of section .text.startup.register_fini:

80102d74 <register_fini>:
80102d74:	e59f3018 	ldr	r3, [pc, #24]	; 80102d94 <register_fini+0x20>
80102d78:	e3530000 	cmp	r3, #0
80102d7c:	012fff1e 	bxeq	lr
80102d80:	e92d4010 	push	{r4, lr}
80102d84:	e59f000c 	ldr	r0, [pc, #12]	; 80102d98 <register_fini+0x24>
80102d88:	eb000065 	bl	80102f24 <atexit>
80102d8c:	e8bd4010 	pop	{r4, lr}
80102d90:	e12fff1e 	bx	lr
80102d94:	00000000 	.word	0x00000000
80102d98:	80102f44 	.word	0x80102f44

Disassembly of section .text.__call_exitprocs:

80102d9c <__call_exitprocs>:
80102d9c:	e92d4ff0 	push	{r4, r5, r6, r7, r8, r9, sl, fp, lr}
80102da0:	e59f3170 	ldr	r3, [pc, #368]	; 80102f18 <__call_exitprocs+0x17c>
80102da4:	e24dd014 	sub	sp, sp, #20
80102da8:	e58d000c 	str	r0, [sp, #12]
80102dac:	e5930000 	ldr	r0, [r3]
80102db0:	e1a07001 	mov	r7, r1
80102db4:	eb000079 	bl	80102fa0 <__retarget_lock_acquire_recursive>
80102db8:	e59f315c 	ldr	r3, [pc, #348]	; 80102f1c <__call_exitprocs+0x180>
80102dbc:	e5933000 	ldr	r3, [r3]
80102dc0:	e58d3004 	str	r3, [sp, #4]
80102dc4:	e2833f52 	add	r3, r3, #328	; 0x148
80102dc8:	e58d3008 	str	r3, [sp, #8]
80102dcc:	e59d3004 	ldr	r3, [sp, #4]
80102dd0:	e5936148 	ldr	r6, [r3, #328]	; 0x148
80102dd4:	e3560000 	cmp	r6, #0
80102dd8:	0a000039 	beq	80102ec4 <__call_exitprocs+0x128>
80102ddc:	e3a08001 	mov	r8, #1
80102de0:	e59da008 	ldr	sl, [sp, #8]
80102de4:	e5964004 	ldr	r4, [r6, #4]
80102de8:	e2545001 	subs	r5, r4, #1
80102dec:	4a000025 	bmi	80102e88 <__call_exitprocs+0xec>
80102df0:	e2844001 	add	r4, r4, #1
80102df4:	e3a09000 	mov	r9, #0
80102df8:	e0864104 	add	r4, r6, r4, lsl #2
80102dfc:	ea000003 	b	80102e10 <__call_exitprocs+0x74>
80102e00:	e2455001 	sub	r5, r5, #1
80102e04:	e3750001 	cmn	r5, #1
80102e08:	e2444004 	sub	r4, r4, #4
80102e0c:	0a00001d 	beq	80102e88 <__call_exitprocs+0xec>
80102e10:	e3570000 	cmp	r7, #0
80102e14:	0a000002 	beq	80102e24 <__call_exitprocs+0x88>
80102e18:	e5943100 	ldr	r3, [r4, #256]	; 0x100
80102e1c:	e1530007 	cmp	r3, r7
80102e20:	1afffff6 	bne	80102e00 <__call_exitprocs+0x64>
80102e24:	e5963004 	ldr	r3, [r6, #4]
80102e28:	e2433001 	sub	r3, r3, #1
80102e2c:	e1530005 	cmp	r3, r5
80102e30:	e5943000 	ldr	r3, [r4]
80102e34:	05865004 	streq	r5, [r6, #4]
80102e38:	15849000 	strne	r9, [r4]
80102e3c:	e3530000 	cmp	r3, #0
80102e40:	0affffee 	beq	80102e00 <__call_exitprocs+0x64>
80102e44:	e5961188 	ldr	r1, [r6, #392]	; 0x188
80102e48:	e1a02518 	lsl	r2, r8, r5
80102e4c:	e1120001 	tst	r2, r1
80102e50:	e596b004 	ldr	fp, [r6, #4]
80102e54:	1a000020 	bne	80102edc <__call_exitprocs+0x140>
80102e58:	e1a0e00f 	mov	lr, pc
80102e5c:	e12fff13 	bx	r3
80102e60:	e5963004 	ldr	r3, [r6, #4]
80102e64:	e153000b 	cmp	r3, fp
80102e68:	1affffd7 	bne	80102dcc <__call_exitprocs+0x30>
80102e6c:	e59a3000 	ldr	r3, [sl]
80102e70:	e1530006 	cmp	r3, r6
80102e74:	1affffd4 	bne	80102dcc <__call_exitprocs+0x30>
80102e78:	e2455001 	sub	r5, r5, #1
80102e7c:	e3750001 	cmn	r5, #1
80102e80:	e2444004 	sub	r4, r4, #4
80102e84:	1affffe1 	bne	80102e10 <__call_exitprocs+0x74>
80102e88:	e59f3090 	ldr	r3, [pc, #144]	; 80102f20 <__call_exitprocs+0x184>
80102e8c:	e3530000 	cmp	r3, #0
80102e90:	0a00000b 	beq	80102ec4 <__call_exitprocs+0x128>
80102e94:	e5963004 	ldr	r3, [r6, #4]
80102e98:	e3530000 	cmp	r3, #0
80102e9c:	e5963000 	ldr	r3, [r6]
80102ea0:	1a000015 	bne	80102efc <__call_exitprocs+0x160>
80102ea4:	e3530000 	cmp	r3, #0
80102ea8:	0a000013 	beq	80102efc <__call_exitprocs+0x160>
80102eac:	e1a00006 	mov	r0, r6
80102eb0:	e58a3000 	str	r3, [sl]
80102eb4:	e320f000 	nop	{0}
80102eb8:	e59a6000 	ldr	r6, [sl]
80102ebc:	e3560000 	cmp	r6, #0
80102ec0:	1affffc7 	bne	80102de4 <__call_exitprocs+0x48>
80102ec4:	e59f304c 	ldr	r3, [pc, #76]	; 80102f18 <__call_exitprocs+0x17c>
80102ec8:	e5930000 	ldr	r0, [r3]
80102ecc:	eb000039 	bl	80102fb8 <__retarget_lock_release_recursive>
80102ed0:	e28dd014 	add	sp, sp, #20
80102ed4:	e8bd4ff0 	pop	{r4, r5, r6, r7, r8, r9, sl, fp, lr}
80102ed8:	e12fff1e 	bx	lr
80102edc:	e596118c 	ldr	r1, [r6, #396]	; 0x18c
80102ee0:	e1120001 	tst	r2, r1
80102ee4:	e5941080 	ldr	r1, [r4, #128]	; 0x80
80102ee8:	1a000006 	bne	80102f08 <__call_exitprocs+0x16c>
80102eec:	e59d000c 	ldr	r0, [sp, #12]
80102ef0:	e1a0e00f 	mov	lr, pc
80102ef4:	e12fff13 	bx	r3
80102ef8:	eaffffd8 	b	80102e60 <__call_exitprocs+0xc4>
80102efc:	e1a0a006 	mov	sl, r6
80102f00:	e1a06003 	mov	r6, r3
80102f04:	eaffffec 	b	80102ebc <__call_exitprocs+0x120>
80102f08:	e1a00001 	mov	r0, r1
80102f0c:	e1a0e00f 	mov	lr, pc
80102f10:	e12fff13 	bx	r3
80102f14:	eaffffd1 	b	80102e60 <__call_exitprocs+0xc4>
80102f18:	8010b120 	.word	0x8010b120
80102f1c:	8010aa10 	.word	0x8010aa10
80102f20:	00000000 	.word	0x00000000

Disassembly of section .text.atexit:

80102f24 <atexit>:
80102f24:	e3a03000 	mov	r3, #0
80102f28:	e92d4010 	push	{r4, lr}
80102f2c:	e1a01000 	mov	r1, r0
80102f30:	e1a02003 	mov	r2, r3
80102f34:	e1a00003 	mov	r0, r3
80102f38:	eb0009d9 	bl	801056a4 <__register_exitproc>
80102f3c:	e8bd4010 	pop	{r4, lr}
80102f40:	e12fff1e 	bx	lr

Disassembly of section .text.__libc_fini_array:

80102f44 <__libc_fini_array>:
80102f44:	e92d4070 	push	{r4, r5, r6, lr}
80102f48:	e59f4034 	ldr	r4, [pc, #52]	; 80102f84 <__libc_fini_array+0x40>
80102f4c:	e59f5034 	ldr	r5, [pc, #52]	; 80102f88 <__libc_fini_array+0x44>
80102f50:	e0444005 	sub	r4, r4, r5
80102f54:	e1b04144 	asrs	r4, r4, #2
80102f58:	0a000006 	beq	80102f78 <__libc_fini_array+0x34>
80102f5c:	e0855104 	add	r5, r5, r4, lsl #2
80102f60:	e2444001 	sub	r4, r4, #1
80102f64:	e5353004 	ldr	r3, [r5, #-4]!
80102f68:	e1a0e00f 	mov	lr, pc
80102f6c:	e12fff13 	bx	r3
80102f70:	e3540000 	cmp	r4, #0
80102f74:	1afffff9 	bne	80102f60 <__libc_fini_array+0x1c>
80102f78:	ebfffee6 	bl	80102b18 <_fini>
80102f7c:	e8bd4070 	pop	{r4, r5, r6, lr}
80102f80:	e12fff1e 	bx	lr
	...

Disassembly of section .text.__retarget_lock_init:

80102f8c <__retarget_lock_init>:
80102f8c:	e12fff1e 	bx	lr

Disassembly of section .text.__retarget_lock_init_recursive:

80102f90 <__retarget_lock_init_recursive>:
80102f90:	e12fff1e 	bx	lr

Disassembly of section .text.__retarget_lock_close:

80102f94 <__retarget_lock_close>:
80102f94:	e12fff1e 	bx	lr

Disassembly of section .text.__retarget_lock_close_recursive:

80102f98 <__retarget_lock_close_recursive>:
80102f98:	e12fff1e 	bx	lr

Disassembly of section .text.__retarget_lock_acquire:

80102f9c <__retarget_lock_acquire>:
80102f9c:	e12fff1e 	bx	lr

Disassembly of section .text.__retarget_lock_acquire_recursive:

80102fa0 <__retarget_lock_acquire_recursive>:
80102fa0:	e12fff1e 	bx	lr

Disassembly of section .text.__retarget_lock_try_acquire:

80102fa4 <__retarget_lock_try_acquire>:
80102fa4:	e3a00001 	mov	r0, #1
80102fa8:	e12fff1e 	bx	lr

Disassembly of section .text.__retarget_lock_try_acquire_recursive:

80102fac <__retarget_lock_try_acquire_recursive>:
80102fac:	e3a00001 	mov	r0, #1
80102fb0:	e12fff1e 	bx	lr

Disassembly of section .text.__retarget_lock_release:

80102fb4 <__retarget_lock_release>:
80102fb4:	e12fff1e 	bx	lr

Disassembly of section .text.__retarget_lock_release_recursive:

80102fb8 <__retarget_lock_release_recursive>:
80102fb8:	e12fff1e 	bx	lr

Disassembly of section .text._svfprintf_r:

80102fbc <_svfprintf_r>:
80102fbc:	e92d4ff0 	push	{r4, r5, r6, r7, r8, r9, sl, fp, lr}
80102fc0:	e24ddf57 	sub	sp, sp, #348	; 0x15c
80102fc4:	e1a04001 	mov	r4, r1
80102fc8:	e58d1024 	str	r1, [sp, #36]	; 0x24
80102fcc:	e1a0a002 	mov	sl, r2
80102fd0:	e58d3034 	str	r3, [sp, #52]	; 0x34
80102fd4:	e58d0020 	str	r0, [sp, #32]
80102fd8:	eb0010e2 	bl	80107368 <_localeconv_r>
80102fdc:	e5903000 	ldr	r3, [r0]
80102fe0:	e1a00003 	mov	r0, r3
80102fe4:	e58d3074 	str	r3, [sp, #116]	; 0x74
80102fe8:	eb001704 	bl	80108c00 <strlen>
80102fec:	e1d430bc 	ldrh	r3, [r4, #12]
80102ff0:	e3130080 	tst	r3, #128	; 0x80
80102ff4:	e58d006c 	str	r0, [sp, #108]	; 0x6c
80102ff8:	0a000002 	beq	80103008 <_svfprintf_r+0x4c>
80102ffc:	e5943010 	ldr	r3, [r4, #16]
80103000:	e3530000 	cmp	r3, #0
80103004:	0a000573 	beq	801045d8 <_svfprintf_r+0x161c>
80103008:	e3a03000 	mov	r3, #0
8010300c:	e1a01003 	mov	r1, r3
80103010:	e58d3060 	str	r3, [sp, #96]	; 0x60
80103014:	e58d3050 	str	r3, [sp, #80]	; 0x50
80103018:	e58d305c 	str	r3, [sp, #92]	; 0x5c
8010301c:	e58d30b0 	str	r3, [sp, #176]	; 0xb0
80103020:	e58d30ac 	str	r3, [sp, #172]	; 0xac
80103024:	e58d3070 	str	r3, [sp, #112]	; 0x70
80103028:	e58d3080 	str	r3, [sp, #128]	; 0x80
8010302c:	e58d3078 	str	r3, [sp, #120]	; 0x78
80103030:	e58d3084 	str	r3, [sp, #132]	; 0x84
80103034:	e58d307c 	str	r3, [sp, #124]	; 0x7c
80103038:	e58d301c 	str	r3, [sp, #28]
8010303c:	e58d3064 	str	r3, [sp, #100]	; 0x64
80103040:	e58d3068 	str	r3, [sp, #104]	; 0x68
80103044:	e28d30b4 	add	r3, sp, #180	; 0xb4
80103048:	e1a0b003 	mov	fp, r3
8010304c:	e1a0900a 	mov	r9, sl
80103050:	e58d30a8 	str	r3, [sp, #168]	; 0xa8
80103054:	e5d93000 	ldrb	r3, [r9]
80103058:	e3530000 	cmp	r3, #0
8010305c:	13530025 	cmpne	r3, #37	; 0x25
80103060:	e1a04009 	mov	r4, r9
80103064:	0a000013 	beq	801030b8 <_svfprintf_r+0xfc>
80103068:	e5f43001 	ldrb	r3, [r4, #1]!
8010306c:	e3530000 	cmp	r3, #0
80103070:	13530025 	cmpne	r3, #37	; 0x25
80103074:	1afffffb 	bne	80103068 <_svfprintf_r+0xac>
80103078:	e0545009 	subs	r5, r4, r9
8010307c:	0a00000d 	beq	801030b8 <_svfprintf_r+0xfc>
80103080:	e59d30ac 	ldr	r3, [sp, #172]	; 0xac
80103084:	e59d20b0 	ldr	r2, [sp, #176]	; 0xb0
80103088:	e2833001 	add	r3, r3, #1
8010308c:	e3530007 	cmp	r3, #7
80103090:	e0822005 	add	r2, r2, r5
80103094:	e58b9000 	str	r9, [fp]
80103098:	e58b5004 	str	r5, [fp, #4]
8010309c:	e58d30ac 	str	r3, [sp, #172]	; 0xac
801030a0:	e58d20b0 	str	r2, [sp, #176]	; 0xb0
801030a4:	d28bb008 	addle	fp, fp, #8
801030a8:	ca000070 	bgt	80103270 <_svfprintf_r+0x2b4>
801030ac:	e59d301c 	ldr	r3, [sp, #28]
801030b0:	e0833005 	add	r3, r3, r5
801030b4:	e58d301c 	str	r3, [sp, #28]
801030b8:	e5d43000 	ldrb	r3, [r4]
801030bc:	e3530000 	cmp	r3, #0
801030c0:	0a000618 	beq	80104928 <_svfprintf_r+0x196c>
801030c4:	e3e05000 	mvn	r5, #0
801030c8:	e3a03000 	mov	r3, #0
801030cc:	e1a06005 	mov	r6, r5
801030d0:	e1a08003 	mov	r8, r3
801030d4:	e58d3030 	str	r3, [sp, #48]	; 0x30
801030d8:	e5cd308b 	strb	r3, [sp, #139]	; 0x8b
801030dc:	e5d43001 	ldrb	r3, [r4, #1]
801030e0:	e284a001 	add	sl, r4, #1
801030e4:	e28aa001 	add	sl, sl, #1
801030e8:	e2432020 	sub	r2, r3, #32
801030ec:	e352005a 	cmp	r2, #90	; 0x5a
801030f0:	979ff102 	ldrls	pc, [pc, r2, lsl #2]
801030f4:	ea0002fd 	b	80103cf0 <_svfprintf_r+0xd34>
801030f8:	801039c8 	.word	0x801039c8
801030fc:	80103cf0 	.word	0x80103cf0
80103100:	80103cf0 	.word	0x80103cf0
80103104:	801039bc 	.word	0x801039bc
80103108:	80103cf0 	.word	0x80103cf0
8010310c:	80103cf0 	.word	0x80103cf0
80103110:	80103cf0 	.word	0x80103cf0
80103114:	80103968 	.word	0x80103968
80103118:	80103cf0 	.word	0x80103cf0
8010311c:	80103cf0 	.word	0x80103cf0
80103120:	80103938 	.word	0x80103938
80103124:	80103928 	.word	0x80103928
80103128:	80103cf0 	.word	0x80103cf0
8010312c:	8010391c 	.word	0x8010391c
80103130:	801038d4 	.word	0x801038d4
80103134:	80103cf0 	.word	0x80103cf0
80103138:	80103ca0 	.word	0x80103ca0
8010313c:	8010336c 	.word	0x8010336c
80103140:	8010336c 	.word	0x8010336c
80103144:	8010336c 	.word	0x8010336c
80103148:	8010336c 	.word	0x8010336c
8010314c:	8010336c 	.word	0x8010336c
80103150:	8010336c 	.word	0x8010336c
80103154:	8010336c 	.word	0x8010336c
80103158:	8010336c 	.word	0x8010336c
8010315c:	8010336c 	.word	0x8010336c
80103160:	80103cf0 	.word	0x80103cf0
80103164:	80103cf0 	.word	0x80103cf0
80103168:	80103cf0 	.word	0x80103cf0
8010316c:	80103cf0 	.word	0x80103cf0
80103170:	80103cf0 	.word	0x80103cf0
80103174:	80103cf0 	.word	0x80103cf0
80103178:	80103cf0 	.word	0x80103cf0
8010317c:	80103bbc 	.word	0x80103bbc
80103180:	80103cf0 	.word	0x80103cf0
80103184:	80103b70 	.word	0x80103b70
80103188:	80103b2c 	.word	0x80103b2c
8010318c:	80103bbc 	.word	0x80103bbc
80103190:	80103bbc 	.word	0x80103bbc
80103194:	80103bbc 	.word	0x80103bbc
80103198:	80103cf0 	.word	0x80103cf0
8010319c:	80103cf0 	.word	0x80103cf0
801031a0:	80103cf0 	.word	0x80103cf0
801031a4:	80103cf0 	.word	0x80103cf0
801031a8:	80103b20 	.word	0x80103b20
801031ac:	80103cf0 	.word	0x80103cf0
801031b0:	80103cf0 	.word	0x80103cf0
801031b4:	80103ae4 	.word	0x80103ae4
801031b8:	80103cf0 	.word	0x80103cf0
801031bc:	80103cf0 	.word	0x80103cf0
801031c0:	80103cf0 	.word	0x80103cf0
801031c4:	80103a6c 	.word	0x80103a6c
801031c8:	80103cf0 	.word	0x80103cf0
801031cc:	80103cac 	.word	0x80103cac
801031d0:	80103cf0 	.word	0x80103cf0
801031d4:	80103cf0 	.word	0x80103cf0
801031d8:	80103894 	.word	0x80103894
801031dc:	80103cf0 	.word	0x80103cf0
801031e0:	80103cf0 	.word	0x80103cf0
801031e4:	80103cf0 	.word	0x80103cf0
801031e8:	80103cf0 	.word	0x80103cf0
801031ec:	80103cf0 	.word	0x80103cf0
801031f0:	80103cf0 	.word	0x80103cf0
801031f4:	80103cf0 	.word	0x80103cf0
801031f8:	80103cf0 	.word	0x80103cf0
801031fc:	80103bbc 	.word	0x80103bbc
80103200:	80103cf0 	.word	0x80103cf0
80103204:	80103b70 	.word	0x80103b70
80103208:	801032e4 	.word	0x801032e4
8010320c:	80103bbc 	.word	0x80103bbc
80103210:	80103bbc 	.word	0x80103bbc
80103214:	80103bbc 	.word	0x80103bbc
80103218:	80103c84 	.word	0x80103c84
8010321c:	801032e4 	.word	0x801032e4
80103220:	80103264 	.word	0x80103264
80103224:	80103cf0 	.word	0x80103cf0
80103228:	80103a18 	.word	0x80103a18
8010322c:	80103cf0 	.word	0x80103cf0
80103230:	801039e0 	.word	0x801039e0
80103234:	80103808 	.word	0x80103808
80103238:	80103a34 	.word	0x80103a34
8010323c:	80103264 	.word	0x80103264
80103240:	80103cf0 	.word	0x80103cf0
80103244:	80103a6c 	.word	0x80103a6c
80103248:	80103268 	.word	0x80103268
8010324c:	80103394 	.word	0x80103394
80103250:	80103cf0 	.word	0x80103cf0
80103254:	80103cf0 	.word	0x80103cf0
80103258:	80103838 	.word	0x80103838
8010325c:	80103cf0 	.word	0x80103cf0
80103260:	80103268 	.word	0x80103268
80103264:	e3888020 	orr	r8, r8, #32
80103268:	e5da3000 	ldrb	r3, [sl]
8010326c:	eaffff9c 	b	801030e4 <_svfprintf_r+0x128>
80103270:	e28d0020 	add	r0, sp, #32
80103274:	e28d20a8 	add	r2, sp, #168	; 0xa8
80103278:	e8900003 	ldm	r0, {r0, r1}
8010327c:	eb0016af 	bl	80108d40 <__ssprint_r>
80103280:	e3500000 	cmp	r0, #0
80103284:	1a00000c 	bne	801032bc <_svfprintf_r+0x300>
80103288:	e28db0b4 	add	fp, sp, #180	; 0xb4
8010328c:	eaffff86 	b	801030ac <_svfprintf_r+0xf0>
80103290:	e28d0020 	add	r0, sp, #32
80103294:	e28d20a8 	add	r2, sp, #168	; 0xa8
80103298:	e8900003 	ldm	r0, {r0, r1}
8010329c:	eb0016a7 	bl	80108d40 <__ssprint_r>
801032a0:	e3500000 	cmp	r0, #0
801032a4:	0a00014d 	beq	801037e0 <_svfprintf_r+0x824>
801032a8:	e59d3038 	ldr	r3, [sp, #56]	; 0x38
801032ac:	e3530000 	cmp	r3, #0
801032b0:	11a01003 	movne	r1, r3
801032b4:	159d0020 	ldrne	r0, [sp, #32]
801032b8:	1b000f71 	blne	80107084 <_free_r>
801032bc:	e59d3024 	ldr	r3, [sp, #36]	; 0x24
801032c0:	e1d330bc 	ldrh	r3, [r3, #12]
801032c4:	e3130040 	tst	r3, #64	; 0x40
801032c8:	e59d301c 	ldr	r3, [sp, #28]
801032cc:	13e03000 	mvnne	r3, #0
801032d0:	e58d301c 	str	r3, [sp, #28]
801032d4:	e59d001c 	ldr	r0, [sp, #28]
801032d8:	e28ddf57 	add	sp, sp, #348	; 0x15c
801032dc:	e8bd4ff0 	pop	{r4, r5, r6, r7, r8, r9, sl, fp, lr}
801032e0:	e12fff1e 	bx	lr
801032e4:	e1a04008 	mov	r4, r8
801032e8:	e3140020 	tst	r4, #32
801032ec:	e58d3044 	str	r3, [sp, #68]	; 0x44
801032f0:	0a000211 	beq	80103b3c <_svfprintf_r+0xb80>
801032f4:	e59d3034 	ldr	r3, [sp, #52]	; 0x34
801032f8:	e2831007 	add	r1, r3, #7
801032fc:	e3c11007 	bic	r1, r1, #7
80103300:	e891000c 	ldm	r1, {r2, r3}
80103304:	e1a06002 	mov	r6, r2
80103308:	e1a07003 	mov	r7, r3
8010330c:	e2811008 	add	r1, r1, #8
80103310:	e58d1034 	str	r1, [sp, #52]	; 0x34
80103314:	e3520000 	cmp	r2, #0
80103318:	e2d33000 	sbcs	r3, r3, #0
8010331c:	aa000003 	bge	80103330 <_svfprintf_r+0x374>
80103320:	e3a0302d 	mov	r3, #45	; 0x2d
80103324:	e2766000 	rsbs	r6, r6, #0
80103328:	e5cd308b 	strb	r3, [sp, #139]	; 0x8b
8010332c:	e2e77000 	rsc	r7, r7, #0
80103330:	e3750001 	cmn	r5, #1
80103334:	e28d3f56 	add	r3, sp, #344	; 0x158
80103338:	e58d3018 	str	r3, [sp, #24]
8010333c:	13a02001 	movne	r2, #1
80103340:	1a000024 	bne	801033d8 <_svfprintf_r+0x41c>
80103344:	e3570000 	cmp	r7, #0
80103348:	03560009 	cmpeq	r6, #9
8010334c:	8a00046e 	bhi	8010450c <_svfprintf_r+0x1550>
80103350:	e3a03001 	mov	r3, #1
80103354:	e28d9f56 	add	r9, sp, #344	; 0x158
80103358:	e2866030 	add	r6, r6, #48	; 0x30
8010335c:	e1a08004 	mov	r8, r4
80103360:	e5696001 	strb	r6, [r9, #-1]!
80103364:	e58d3028 	str	r3, [sp, #40]	; 0x28
80103368:	ea00002c 	b	80103420 <_svfprintf_r+0x464>
8010336c:	e3a01000 	mov	r1, #0
80103370:	e2432030 	sub	r2, r3, #48	; 0x30
80103374:	e4da3001 	ldrb	r3, [sl], #1
80103378:	e0811101 	add	r1, r1, r1, lsl #2
8010337c:	e0821081 	add	r1, r2, r1, lsl #1
80103380:	e2432030 	sub	r2, r3, #48	; 0x30
80103384:	e3520009 	cmp	r2, #9
80103388:	9afffff9 	bls	80103374 <_svfprintf_r+0x3b8>
8010338c:	e58d1030 	str	r1, [sp, #48]	; 0x30
80103390:	eaffff54 	b	801030e8 <_svfprintf_r+0x12c>
80103394:	e3180020 	tst	r8, #32
80103398:	e58d3044 	str	r3, [sp, #68]	; 0x44
8010339c:	0a000246 	beq	80103cbc <_svfprintf_r+0xd00>
801033a0:	e59d3034 	ldr	r3, [sp, #52]	; 0x34
801033a4:	e2834007 	add	r4, r3, #7
801033a8:	e3c43007 	bic	r3, r4, #7
801033ac:	e2832008 	add	r2, r3, #8
801033b0:	e58d2034 	str	r2, [sp, #52]	; 0x34
801033b4:	e1a04008 	mov	r4, r8
801033b8:	e3a02001 	mov	r2, #1
801033bc:	e89300c0 	ldm	r3, {r6, r7}
801033c0:	e3a03000 	mov	r3, #0
801033c4:	e3750001 	cmn	r5, #1
801033c8:	e5cd308b 	strb	r3, [sp, #139]	; 0x8b
801033cc:	e28d3f56 	add	r3, sp, #344	; 0x158
801033d0:	e58d3018 	str	r3, [sp, #24]
801033d4:	0a0002dc 	beq	80103f4c <_svfprintf_r+0xf90>
801033d8:	e1963007 	orrs	r3, r6, r7
801033dc:	13a03001 	movne	r3, #1
801033e0:	03a03000 	moveq	r3, #0
801033e4:	e3550000 	cmp	r5, #0
801033e8:	13a03001 	movne	r3, #1
801033ec:	e3530000 	cmp	r3, #0
801033f0:	e3c48080 	bic	r8, r4, #128	; 0x80
801033f4:	1a0002d3 	bne	80103f48 <_svfprintf_r+0xf8c>
801033f8:	e3520000 	cmp	r2, #0
801033fc:	1a000343 	bne	80104110 <_svfprintf_r+0x1154>
80103400:	e2143001 	ands	r3, r4, #1
80103404:	e58d3028 	str	r3, [sp, #40]	; 0x28
80103408:	01a05002 	moveq	r5, r2
8010340c:	028d9f56 	addeq	r9, sp, #344	; 0x158
80103410:	13a03030 	movne	r3, #48	; 0x30
80103414:	11a05002 	movne	r5, r2
80103418:	128d9f56 	addne	r9, sp, #344	; 0x158
8010341c:	15693001 	strbne	r3, [r9, #-1]!
80103420:	e59d2028 	ldr	r2, [sp, #40]	; 0x28
80103424:	e1550002 	cmp	r5, r2
80103428:	e3a03000 	mov	r3, #0
8010342c:	a1a02005 	movge	r2, r5
80103430:	e58d3038 	str	r3, [sp, #56]	; 0x38
80103434:	e58d2018 	str	r2, [sp, #24]
80103438:	e58d3058 	str	r3, [sp, #88]	; 0x58
8010343c:	e58d3054 	str	r3, [sp, #84]	; 0x54
80103440:	e58d304c 	str	r3, [sp, #76]	; 0x4c
80103444:	e5dd208b 	ldrb	r2, [sp, #139]	; 0x8b
80103448:	e3520000 	cmp	r2, #0
8010344c:	0a000002 	beq	8010345c <_svfprintf_r+0x4a0>
80103450:	e59d3018 	ldr	r3, [sp, #24]
80103454:	e2833001 	add	r3, r3, #1
80103458:	e58d3018 	str	r3, [sp, #24]
8010345c:	e2183002 	ands	r3, r8, #2
80103460:	e58d303c 	str	r3, [sp, #60]	; 0x3c
80103464:	159d3018 	ldrne	r3, [sp, #24]
80103468:	12833002 	addne	r3, r3, #2
8010346c:	158d3018 	strne	r3, [sp, #24]
80103470:	e2183084 	ands	r3, r8, #132	; 0x84
80103474:	e58d3040 	str	r3, [sp, #64]	; 0x40
80103478:	e59d40b0 	ldr	r4, [sp, #176]	; 0xb0
8010347c:	1a00003b 	bne	80103570 <_svfprintf_r+0x5b4>
80103480:	e59d3030 	ldr	r3, [sp, #48]	; 0x30
80103484:	e59d1018 	ldr	r1, [sp, #24]
80103488:	e0436001 	sub	r6, r3, r1
8010348c:	e3560000 	cmp	r6, #0
80103490:	da000036 	ble	80103570 <_svfprintf_r+0x5b4>
80103494:	e3560010 	cmp	r6, #16
80103498:	e59d20ac 	ldr	r2, [sp, #172]	; 0xac
8010349c:	d59f7fbc 	ldrle	r7, [pc, #4028]	; 80104460 <_svfprintf_r+0x14a4>
801034a0:	da000028 	ble	80103548 <_svfprintf_r+0x58c>
801034a4:	e1a0100b 	mov	r1, fp
801034a8:	e1a00004 	mov	r0, r4
801034ac:	e1a0b009 	mov	fp, r9
801034b0:	e3a03010 	mov	r3, #16
801034b4:	e1a09008 	mov	r9, r8
801034b8:	e59f7fa0 	ldr	r7, [pc, #4000]	; 80104460 <_svfprintf_r+0x14a4>
801034bc:	e1a08005 	mov	r8, r5
801034c0:	e59d4020 	ldr	r4, [sp, #32]
801034c4:	e59d5024 	ldr	r5, [sp, #36]	; 0x24
801034c8:	ea000002 	b	801034d8 <_svfprintf_r+0x51c>
801034cc:	e2466010 	sub	r6, r6, #16
801034d0:	e3560010 	cmp	r6, #16
801034d4:	da000016 	ble	80103534 <_svfprintf_r+0x578>
801034d8:	e2822001 	add	r2, r2, #1
801034dc:	e3520007 	cmp	r2, #7
801034e0:	e2800010 	add	r0, r0, #16
801034e4:	e5817000 	str	r7, [r1]
801034e8:	e5813004 	str	r3, [r1, #4]
801034ec:	e58d20ac 	str	r2, [sp, #172]	; 0xac
801034f0:	e58d00b0 	str	r0, [sp, #176]	; 0xb0
801034f4:	d2811008 	addle	r1, r1, #8
801034f8:	dafffff3 	ble	801034cc <_svfprintf_r+0x510>
801034fc:	e28d20a8 	add	r2, sp, #168	; 0xa8
80103500:	e1a01005 	mov	r1, r5
80103504:	e1a00004 	mov	r0, r4
80103508:	e58d3048 	str	r3, [sp, #72]	; 0x48
8010350c:	eb00160b 	bl	80108d40 <__ssprint_r>
80103510:	e3500000 	cmp	r0, #0
80103514:	1affff63 	bne	801032a8 <_svfprintf_r+0x2ec>
80103518:	e2466010 	sub	r6, r6, #16
8010351c:	e3560010 	cmp	r6, #16
80103520:	e28d10b4 	add	r1, sp, #180	; 0xb4
80103524:	e59d00b0 	ldr	r0, [sp, #176]	; 0xb0
80103528:	e59d20ac 	ldr	r2, [sp, #172]	; 0xac
8010352c:	e59d3048 	ldr	r3, [sp, #72]	; 0x48
80103530:	caffffe8 	bgt	801034d8 <_svfprintf_r+0x51c>
80103534:	e1a05008 	mov	r5, r8
80103538:	e1a04000 	mov	r4, r0
8010353c:	e1a08009 	mov	r8, r9
80103540:	e1a0900b 	mov	r9, fp
80103544:	e1a0b001 	mov	fp, r1
80103548:	e2822001 	add	r2, r2, #1
8010354c:	e0844006 	add	r4, r4, r6
80103550:	e3520007 	cmp	r2, #7
80103554:	e58d20ac 	str	r2, [sp, #172]	; 0xac
80103558:	e58d40b0 	str	r4, [sp, #176]	; 0xb0
8010355c:	e58b7000 	str	r7, [fp]
80103560:	e58b6004 	str	r6, [fp, #4]
80103564:	ca00044a 	bgt	80104694 <_svfprintf_r+0x16d8>
80103568:	e5dd208b 	ldrb	r2, [sp, #139]	; 0x8b
8010356c:	e28bb008 	add	fp, fp, #8
80103570:	e3520000 	cmp	r2, #0
80103574:	0a00000b 	beq	801035a8 <_svfprintf_r+0x5ec>
80103578:	e3a01001 	mov	r1, #1
8010357c:	e59d20ac 	ldr	r2, [sp, #172]	; 0xac
80103580:	e0822001 	add	r2, r2, r1
80103584:	e3520007 	cmp	r2, #7
80103588:	e0844001 	add	r4, r4, r1
8010358c:	e58d20ac 	str	r2, [sp, #172]	; 0xac
80103590:	e28d208b 	add	r2, sp, #139	; 0x8b
80103594:	e58b1004 	str	r1, [fp, #4]
80103598:	e58b2000 	str	r2, [fp]
8010359c:	e58d40b0 	str	r4, [sp, #176]	; 0xb0
801035a0:	d28bb008 	addle	fp, fp, #8
801035a4:	ca0002dd 	bgt	80104120 <_svfprintf_r+0x1164>
801035a8:	e59d303c 	ldr	r3, [sp, #60]	; 0x3c
801035ac:	e3530000 	cmp	r3, #0
801035b0:	0a00000b 	beq	801035e4 <_svfprintf_r+0x628>
801035b4:	e3a02002 	mov	r2, #2
801035b8:	e59d30ac 	ldr	r3, [sp, #172]	; 0xac
801035bc:	e2833001 	add	r3, r3, #1
801035c0:	e3530007 	cmp	r3, #7
801035c4:	e0844002 	add	r4, r4, r2
801035c8:	e58d30ac 	str	r3, [sp, #172]	; 0xac
801035cc:	e28d308c 	add	r3, sp, #140	; 0x8c
801035d0:	e58b2004 	str	r2, [fp, #4]
801035d4:	e58b3000 	str	r3, [fp]
801035d8:	e58d40b0 	str	r4, [sp, #176]	; 0xb0
801035dc:	d28bb008 	addle	fp, fp, #8
801035e0:	ca000308 	bgt	80104208 <_svfprintf_r+0x124c>
801035e4:	e59d3040 	ldr	r3, [sp, #64]	; 0x40
801035e8:	e3530080 	cmp	r3, #128	; 0x80
801035ec:	0a000217 	beq	80103e50 <_svfprintf_r+0xe94>
801035f0:	e59d3028 	ldr	r3, [sp, #40]	; 0x28
801035f4:	e0455003 	sub	r5, r5, r3
801035f8:	e3550000 	cmp	r5, #0
801035fc:	da000031 	ble	801036c8 <_svfprintf_r+0x70c>
80103600:	e3550010 	cmp	r5, #16
80103604:	e59d30ac 	ldr	r3, [sp, #172]	; 0xac
80103608:	da00001d 	ble	80103684 <_svfprintf_r+0x6c8>
8010360c:	e1a02004 	mov	r2, r4
80103610:	e3a06010 	mov	r6, #16
80103614:	e59d7020 	ldr	r7, [sp, #32]
80103618:	e59d4024 	ldr	r4, [sp, #36]	; 0x24
8010361c:	ea000002 	b	8010362c <_svfprintf_r+0x670>
80103620:	e2455010 	sub	r5, r5, #16
80103624:	e3550010 	cmp	r5, #16
80103628:	da000014 	ble	80103680 <_svfprintf_r+0x6c4>
8010362c:	e2833001 	add	r3, r3, #1
80103630:	e59f1e58 	ldr	r1, [pc, #3672]	; 80104490 <_svfprintf_r+0x14d4>
80103634:	e3530007 	cmp	r3, #7
80103638:	e2822010 	add	r2, r2, #16
8010363c:	e88b0042 	stm	fp, {r1, r6}
80103640:	e58d30ac 	str	r3, [sp, #172]	; 0xac
80103644:	e58d20b0 	str	r2, [sp, #176]	; 0xb0
80103648:	d28bb008 	addle	fp, fp, #8
8010364c:	dafffff3 	ble	80103620 <_svfprintf_r+0x664>
80103650:	e28d20a8 	add	r2, sp, #168	; 0xa8
80103654:	e1a01004 	mov	r1, r4
80103658:	e1a00007 	mov	r0, r7
8010365c:	eb0015b7 	bl	80108d40 <__ssprint_r>
80103660:	e3500000 	cmp	r0, #0
80103664:	1affff0f 	bne	801032a8 <_svfprintf_r+0x2ec>
80103668:	e2455010 	sub	r5, r5, #16
8010366c:	e3550010 	cmp	r5, #16
80103670:	e28db0b4 	add	fp, sp, #180	; 0xb4
80103674:	e59d20b0 	ldr	r2, [sp, #176]	; 0xb0
80103678:	e59d30ac 	ldr	r3, [sp, #172]	; 0xac
8010367c:	caffffea 	bgt	8010362c <_svfprintf_r+0x670>
80103680:	e1a04002 	mov	r4, r2
80103684:	e2833001 	add	r3, r3, #1
80103688:	e3530007 	cmp	r3, #7
8010368c:	e58d30ac 	str	r3, [sp, #172]	; 0xac
80103690:	e59f3df8 	ldr	r3, [pc, #3576]	; 80104490 <_svfprintf_r+0x14d4>
80103694:	e0844005 	add	r4, r4, r5
80103698:	e88b0028 	stm	fp, {r3, r5}
8010369c:	e58d40b0 	str	r4, [sp, #176]	; 0xb0
801036a0:	d28bb008 	addle	fp, fp, #8
801036a4:	da000007 	ble	801036c8 <_svfprintf_r+0x70c>
801036a8:	e28d0020 	add	r0, sp, #32
801036ac:	e28d20a8 	add	r2, sp, #168	; 0xa8
801036b0:	e8900003 	ldm	r0, {r0, r1}
801036b4:	eb0015a1 	bl	80108d40 <__ssprint_r>
801036b8:	e3500000 	cmp	r0, #0
801036bc:	1afffef9 	bne	801032a8 <_svfprintf_r+0x2ec>
801036c0:	e59d40b0 	ldr	r4, [sp, #176]	; 0xb0
801036c4:	e28db0b4 	add	fp, sp, #180	; 0xb4
801036c8:	e3180c01 	tst	r8, #256	; 0x100
801036cc:	1a000199 	bne	80103d38 <_svfprintf_r+0xd7c>
801036d0:	e59d30ac 	ldr	r3, [sp, #172]	; 0xac
801036d4:	e59d2028 	ldr	r2, [sp, #40]	; 0x28
801036d8:	e2833001 	add	r3, r3, #1
801036dc:	e0844002 	add	r4, r4, r2
801036e0:	e3530007 	cmp	r3, #7
801036e4:	e58d40b0 	str	r4, [sp, #176]	; 0xb0
801036e8:	e58b9000 	str	r9, [fp]
801036ec:	e58b2004 	str	r2, [fp, #4]
801036f0:	e58d30ac 	str	r3, [sp, #172]	; 0xac
801036f4:	ca0002ba 	bgt	801041e4 <_svfprintf_r+0x1228>
801036f8:	e28bb008 	add	fp, fp, #8
801036fc:	e3180004 	tst	r8, #4
80103700:	0a00002d 	beq	801037bc <_svfprintf_r+0x800>
80103704:	e59d3030 	ldr	r3, [sp, #48]	; 0x30
80103708:	e59d2018 	ldr	r2, [sp, #24]
8010370c:	e0435002 	sub	r5, r3, r2
80103710:	e3550000 	cmp	r5, #0
80103714:	da000028 	ble	801037bc <_svfprintf_r+0x800>
80103718:	e3550010 	cmp	r5, #16
8010371c:	e59d30ac 	ldr	r3, [sp, #172]	; 0xac
80103720:	d59f7d38 	ldrle	r7, [pc, #3384]	; 80104460 <_svfprintf_r+0x14a4>
80103724:	da00001c 	ble	8010379c <_svfprintf_r+0x7e0>
80103728:	e28d8020 	add	r8, sp, #32
8010372c:	e3a06010 	mov	r6, #16
80103730:	e59f7d28 	ldr	r7, [pc, #3368]	; 80104460 <_svfprintf_r+0x14a4>
80103734:	e8980300 	ldm	r8, {r8, r9}
80103738:	ea000002 	b	80103748 <_svfprintf_r+0x78c>
8010373c:	e2455010 	sub	r5, r5, #16
80103740:	e3550010 	cmp	r5, #16
80103744:	da000014 	ble	8010379c <_svfprintf_r+0x7e0>
80103748:	e2833001 	add	r3, r3, #1
8010374c:	e3530007 	cmp	r3, #7
80103750:	e2844010 	add	r4, r4, #16
80103754:	e58b7000 	str	r7, [fp]
80103758:	e58b6004 	str	r6, [fp, #4]
8010375c:	e58d30ac 	str	r3, [sp, #172]	; 0xac
80103760:	e58d40b0 	str	r4, [sp, #176]	; 0xb0
80103764:	d28bb008 	addle	fp, fp, #8
80103768:	dafffff3 	ble	8010373c <_svfprintf_r+0x780>
8010376c:	e28d20a8 	add	r2, sp, #168	; 0xa8
80103770:	e1a01009 	mov	r1, r9
80103774:	e1a00008 	mov	r0, r8
80103778:	eb001570 	bl	80108d40 <__ssprint_r>
8010377c:	e3500000 	cmp	r0, #0
80103780:	1afffec8 	bne	801032a8 <_svfprintf_r+0x2ec>
80103784:	e2455010 	sub	r5, r5, #16
80103788:	e28d30ac 	add	r3, sp, #172	; 0xac
8010378c:	e3550010 	cmp	r5, #16
80103790:	e28db0b4 	add	fp, sp, #180	; 0xb4
80103794:	e8930018 	ldm	r3, {r3, r4}
80103798:	caffffea 	bgt	80103748 <_svfprintf_r+0x78c>
8010379c:	e2833001 	add	r3, r3, #1
801037a0:	e0844005 	add	r4, r4, r5
801037a4:	e3530007 	cmp	r3, #7
801037a8:	e58d30ac 	str	r3, [sp, #172]	; 0xac
801037ac:	e58d40b0 	str	r4, [sp, #176]	; 0xb0
801037b0:	e58b7000 	str	r7, [fp]
801037b4:	e58b5004 	str	r5, [fp, #4]
801037b8:	ca0002ff 	bgt	801043bc <_svfprintf_r+0x1400>
801037bc:	e59d301c 	ldr	r3, [sp, #28]
801037c0:	e59d2030 	ldr	r2, [sp, #48]	; 0x30
801037c4:	e59d1018 	ldr	r1, [sp, #24]
801037c8:	e1520001 	cmp	r2, r1
801037cc:	a0833002 	addge	r3, r3, r2
801037d0:	b0833001 	addlt	r3, r3, r1
801037d4:	e3540000 	cmp	r4, #0
801037d8:	e58d301c 	str	r3, [sp, #28]
801037dc:	1afffeab 	bne	80103290 <_svfprintf_r+0x2d4>
801037e0:	e3a03000 	mov	r3, #0
801037e4:	e59d2038 	ldr	r2, [sp, #56]	; 0x38
801037e8:	e1520003 	cmp	r2, r3
801037ec:	e58d30ac 	str	r3, [sp, #172]	; 0xac
801037f0:	159d1038 	ldrne	r1, [sp, #56]	; 0x38
801037f4:	159d0020 	ldrne	r0, [sp, #32]
801037f8:	1b000e21 	blne	80107084 <_free_r>
801037fc:	e28db0b4 	add	fp, sp, #180	; 0xb4
80103800:	e1a0900a 	mov	r9, sl
80103804:	eafffe12 	b	80103054 <_svfprintf_r+0x98>
80103808:	e3180020 	tst	r8, #32
8010380c:	e58d3044 	str	r3, [sp, #68]	; 0x44
80103810:	0a0000b7 	beq	80103af4 <_svfprintf_r+0xb38>
80103814:	e59d3034 	ldr	r3, [sp, #52]	; 0x34
80103818:	e2834007 	add	r4, r3, #7
8010381c:	e3c43007 	bic	r3, r4, #7
80103820:	e2832008 	add	r2, r3, #8
80103824:	e58d2034 	str	r2, [sp, #52]	; 0x34
80103828:	e89300c0 	ldm	r3, {r6, r7}
8010382c:	e3c84b01 	bic	r4, r8, #1024	; 0x400
80103830:	e3a02000 	mov	r2, #0
80103834:	eafffee1 	b	801033c0 <_svfprintf_r+0x404>
80103838:	e58d3044 	str	r3, [sp, #68]	; 0x44
8010383c:	e59f3c3c 	ldr	r3, [pc, #3132]	; 80104480 <_svfprintf_r+0x14c4>
80103840:	e3180020 	tst	r8, #32
80103844:	e58d3070 	str	r3, [sp, #112]	; 0x70
80103848:	0a000016 	beq	801038a8 <_svfprintf_r+0x8ec>
8010384c:	e59d3034 	ldr	r3, [sp, #52]	; 0x34
80103850:	e2834007 	add	r4, r3, #7
80103854:	e3c43007 	bic	r3, r4, #7
80103858:	e2832008 	add	r2, r3, #8
8010385c:	e58d2034 	str	r2, [sp, #52]	; 0x34
80103860:	e89300c0 	ldm	r3, {r6, r7}
80103864:	e1963007 	orrs	r3, r6, r7
80103868:	12083001 	andne	r3, r8, #1
8010386c:	03a03000 	moveq	r3, #0
80103870:	e3530000 	cmp	r3, #0
80103874:	13a03030 	movne	r3, #48	; 0x30
80103878:	159d2044 	ldrne	r2, [sp, #68]	; 0x44
8010387c:	13888002 	orrne	r8, r8, #2
80103880:	15cd208d 	strbne	r2, [sp, #141]	; 0x8d
80103884:	15cd308c 	strbne	r3, [sp, #140]	; 0x8c
80103888:	e3a02002 	mov	r2, #2
8010388c:	e3c84b01 	bic	r4, r8, #1024	; 0x400
80103890:	eafffeca 	b	801033c0 <_svfprintf_r+0x404>
80103894:	e58d3044 	str	r3, [sp, #68]	; 0x44
80103898:	e59f3be4 	ldr	r3, [pc, #3044]	; 80104484 <_svfprintf_r+0x14c8>
8010389c:	e3180020 	tst	r8, #32
801038a0:	e58d3070 	str	r3, [sp, #112]	; 0x70
801038a4:	1affffe8 	bne	8010384c <_svfprintf_r+0x890>
801038a8:	e59d2034 	ldr	r2, [sp, #52]	; 0x34
801038ac:	e3180010 	tst	r8, #16
801038b0:	e2823004 	add	r3, r2, #4
801038b4:	1a0002d0 	bne	801043fc <_svfprintf_r+0x1440>
801038b8:	e3180040 	tst	r8, #64	; 0x40
801038bc:	e59d2034 	ldr	r2, [sp, #52]	; 0x34
801038c0:	0a0002cb 	beq	801043f4 <_svfprintf_r+0x1438>
801038c4:	e1d260b0 	ldrh	r6, [r2]
801038c8:	e58d3034 	str	r3, [sp, #52]	; 0x34
801038cc:	e3a07000 	mov	r7, #0
801038d0:	eaffffe3 	b	80103864 <_svfprintf_r+0x8a8>
801038d4:	e5da3000 	ldrb	r3, [sl]
801038d8:	e353002a 	cmp	r3, #42	; 0x2a
801038dc:	e28a1001 	add	r1, sl, #1
801038e0:	0a000753 	beq	80105634 <_svfprintf_r+0x2678>
801038e4:	e2432030 	sub	r2, r3, #48	; 0x30
801038e8:	e3520009 	cmp	r2, #9
801038ec:	81a0a001 	movhi	sl, r1
801038f0:	83a05000 	movhi	r5, #0
801038f4:	8afffdfb 	bhi	801030e8 <_svfprintf_r+0x12c>
801038f8:	e3a05000 	mov	r5, #0
801038fc:	e4d13001 	ldrb	r3, [r1], #1
80103900:	e0855105 	add	r5, r5, r5, lsl #2
80103904:	e0825085 	add	r5, r2, r5, lsl #1
80103908:	e2432030 	sub	r2, r3, #48	; 0x30
8010390c:	e3520009 	cmp	r2, #9
80103910:	9afffff9 	bls	801038fc <_svfprintf_r+0x940>
80103914:	e1a0a001 	mov	sl, r1
80103918:	eafffdf2 	b	801030e8 <_svfprintf_r+0x12c>
8010391c:	e5da3000 	ldrb	r3, [sl]
80103920:	e3888004 	orr	r8, r8, #4
80103924:	eafffdee 	b	801030e4 <_svfprintf_r+0x128>
80103928:	e3a0302b 	mov	r3, #43	; 0x2b
8010392c:	e5cd308b 	strb	r3, [sp, #139]	; 0x8b
80103930:	e5da3000 	ldrb	r3, [sl]
80103934:	eafffdea 	b	801030e4 <_svfprintf_r+0x128>
80103938:	e59d3034 	ldr	r3, [sp, #52]	; 0x34
8010393c:	e5932000 	ldr	r2, [r3]
80103940:	e58d2030 	str	r2, [sp, #48]	; 0x30
80103944:	e3520000 	cmp	r2, #0
80103948:	e2832004 	add	r2, r3, #4
8010394c:	e58d2034 	str	r2, [sp, #52]	; 0x34
80103950:	e5da3000 	ldrb	r3, [sl]
80103954:	aafffde2 	bge	801030e4 <_svfprintf_r+0x128>
80103958:	e59d2030 	ldr	r2, [sp, #48]	; 0x30
8010395c:	e2622000 	rsb	r2, r2, #0
80103960:	e58d2030 	str	r2, [sp, #48]	; 0x30
80103964:	eaffffed 	b	80103920 <_svfprintf_r+0x964>
80103968:	e59d7020 	ldr	r7, [sp, #32]
8010396c:	e1a00007 	mov	r0, r7
80103970:	eb000e7c 	bl	80107368 <_localeconv_r>
80103974:	e5903004 	ldr	r3, [r0, #4]
80103978:	e1a00003 	mov	r0, r3
8010397c:	e58d307c 	str	r3, [sp, #124]	; 0x7c
80103980:	eb00149e 	bl	80108c00 <strlen>
80103984:	e1a04000 	mov	r4, r0
80103988:	e58d0084 	str	r0, [sp, #132]	; 0x84
8010398c:	e1a00007 	mov	r0, r7
80103990:	eb000e74 	bl	80107368 <_localeconv_r>
80103994:	e5903008 	ldr	r3, [r0, #8]
80103998:	e3540000 	cmp	r4, #0
8010399c:	13530000 	cmpne	r3, #0
801039a0:	e58d3078 	str	r3, [sp, #120]	; 0x78
801039a4:	0afffe2f 	beq	80103268 <_svfprintf_r+0x2ac>
801039a8:	e5d33000 	ldrb	r3, [r3]
801039ac:	e3530000 	cmp	r3, #0
801039b0:	13888b01 	orrne	r8, r8, #1024	; 0x400
801039b4:	e5da3000 	ldrb	r3, [sl]
801039b8:	eafffdc9 	b	801030e4 <_svfprintf_r+0x128>
801039bc:	e3888001 	orr	r8, r8, #1
801039c0:	e5da3000 	ldrb	r3, [sl]
801039c4:	eafffdc6 	b	801030e4 <_svfprintf_r+0x128>
801039c8:	e5dd308b 	ldrb	r3, [sp, #139]	; 0x8b
801039cc:	e3530000 	cmp	r3, #0
801039d0:	03a02020 	moveq	r2, #32
801039d4:	e5da3000 	ldrb	r3, [sl]
801039d8:	05cd208b 	strbeq	r2, [sp, #139]	; 0x8b
801039dc:	eafffdc0 	b	801030e4 <_svfprintf_r+0x128>
801039e0:	e59d2034 	ldr	r2, [sp, #52]	; 0x34
801039e4:	e4923004 	ldr	r3, [r2], #4
801039e8:	e3180020 	tst	r8, #32
801039ec:	e58d2034 	str	r2, [sp, #52]	; 0x34
801039f0:	1a000296 	bne	80104450 <_svfprintf_r+0x1494>
801039f4:	e3180010 	tst	r8, #16
801039f8:	1a0003c7 	bne	8010491c <_svfprintf_r+0x1960>
801039fc:	e3180040 	tst	r8, #64	; 0x40
80103a00:	1a0004ea 	bne	80104db0 <_svfprintf_r+0x1df4>
80103a04:	e3180c02 	tst	r8, #512	; 0x200
80103a08:	0a0003c3 	beq	8010491c <_svfprintf_r+0x1960>
80103a0c:	e59d201c 	ldr	r2, [sp, #28]
80103a10:	e5c32000 	strb	r2, [r3]
80103a14:	eaffff79 	b	80103800 <_svfprintf_r+0x844>
80103a18:	e5da3000 	ldrb	r3, [sl]
80103a1c:	e353006c 	cmp	r3, #108	; 0x6c
80103a20:	05da3001 	ldrbeq	r3, [sl, #1]
80103a24:	03888020 	orreq	r8, r8, #32
80103a28:	028aa001 	addeq	sl, sl, #1
80103a2c:	13888010 	orrne	r8, r8, #16
80103a30:	eafffdab 	b	801030e4 <_svfprintf_r+0x128>
80103a34:	e59f3a28 	ldr	r3, [pc, #2600]	; 80104464 <_svfprintf_r+0x14a8>
80103a38:	e1cd38bc 	strh	r3, [sp, #140]	; 0x8c
80103a3c:	e59f3a3c 	ldr	r3, [pc, #2620]	; 80104480 <_svfprintf_r+0x14c4>
80103a40:	e58d3070 	str	r3, [sp, #112]	; 0x70
80103a44:	e3a03078 	mov	r3, #120	; 0x78
80103a48:	e59d2034 	ldr	r2, [sp, #52]	; 0x34
80103a4c:	e5926000 	ldr	r6, [r2]
80103a50:	e2822004 	add	r2, r2, #4
80103a54:	e58d2034 	str	r2, [sp, #52]	; 0x34
80103a58:	e3884002 	orr	r4, r8, #2
80103a5c:	e3a07000 	mov	r7, #0
80103a60:	e3a02002 	mov	r2, #2
80103a64:	e58d3044 	str	r3, [sp, #68]	; 0x44
80103a68:	eafffe54 	b	801033c0 <_svfprintf_r+0x404>
80103a6c:	e3a06000 	mov	r6, #0
80103a70:	e58d3044 	str	r3, [sp, #68]	; 0x44
80103a74:	e59d3034 	ldr	r3, [sp, #52]	; 0x34
80103a78:	e5939000 	ldr	r9, [r3]
80103a7c:	e1590006 	cmp	r9, r6
80103a80:	e5cd608b 	strb	r6, [sp, #139]	; 0x8b
80103a84:	e2834004 	add	r4, r3, #4
80103a88:	0a0002f3 	beq	8010465c <_svfprintf_r+0x16a0>
80103a8c:	e3750001 	cmn	r5, #1
80103a90:	0a00042c 	beq	80104b48 <_svfprintf_r+0x1b8c>
80103a94:	e1a02005 	mov	r2, r5
80103a98:	e1a01006 	mov	r1, r6
80103a9c:	e1a00009 	mov	r0, r9
80103aa0:	eb00102f 	bl	80107b64 <memchr>
80103aa4:	e2503000 	subs	r3, r0, #0
80103aa8:	e58d3038 	str	r3, [sp, #56]	; 0x38
80103aac:	0a00060e 	beq	801052ec <_svfprintf_r+0x2330>
80103ab0:	e1a05006 	mov	r5, r6
80103ab4:	e59d3038 	ldr	r3, [sp, #56]	; 0x38
80103ab8:	e58d4034 	str	r4, [sp, #52]	; 0x34
80103abc:	e0433009 	sub	r3, r3, r9
80103ac0:	e58d3028 	str	r3, [sp, #40]	; 0x28
80103ac4:	e1c33fc3 	bic	r3, r3, r3, asr #31
80103ac8:	e58d3018 	str	r3, [sp, #24]
80103acc:	e58d5038 	str	r5, [sp, #56]	; 0x38
80103ad0:	e58d5058 	str	r5, [sp, #88]	; 0x58
80103ad4:	e58d5054 	str	r5, [sp, #84]	; 0x54
80103ad8:	e58d504c 	str	r5, [sp, #76]	; 0x4c
80103adc:	e5dd208b 	ldrb	r2, [sp, #139]	; 0x8b
80103ae0:	eafffe58 	b	80103448 <_svfprintf_r+0x48c>
80103ae4:	e3888010 	orr	r8, r8, #16
80103ae8:	e3180020 	tst	r8, #32
80103aec:	e58d3044 	str	r3, [sp, #68]	; 0x44
80103af0:	1affff47 	bne	80103814 <_svfprintf_r+0x858>
80103af4:	e59d2034 	ldr	r2, [sp, #52]	; 0x34
80103af8:	e3180010 	tst	r8, #16
80103afc:	e2823004 	add	r3, r2, #4
80103b00:	1a000237 	bne	801043e4 <_svfprintf_r+0x1428>
80103b04:	e3180040 	tst	r8, #64	; 0x40
80103b08:	e59d2034 	ldr	r2, [sp, #52]	; 0x34
80103b0c:	0a000232 	beq	801043dc <_svfprintf_r+0x1420>
80103b10:	e1d260b0 	ldrh	r6, [r2]
80103b14:	e58d3034 	str	r3, [sp, #52]	; 0x34
80103b18:	e3a07000 	mov	r7, #0
80103b1c:	eaffff42 	b	8010382c <_svfprintf_r+0x870>
80103b20:	e3888008 	orr	r8, r8, #8
80103b24:	e5da3000 	ldrb	r3, [sl]
80103b28:	eafffd6d 	b	801030e4 <_svfprintf_r+0x128>
80103b2c:	e3884010 	orr	r4, r8, #16
80103b30:	e3140020 	tst	r4, #32
80103b34:	e58d3044 	str	r3, [sp, #68]	; 0x44
80103b38:	1afffded 	bne	801032f4 <_svfprintf_r+0x338>
80103b3c:	e59d2034 	ldr	r2, [sp, #52]	; 0x34
80103b40:	e3140010 	tst	r4, #16
80103b44:	e2823004 	add	r3, r2, #4
80103b48:	1a000231 	bne	80104414 <_svfprintf_r+0x1458>
80103b4c:	e3140040 	tst	r4, #64	; 0x40
80103b50:	e59d2034 	ldr	r2, [sp, #52]	; 0x34
80103b54:	0a00022c 	beq	8010440c <_svfprintf_r+0x1450>
80103b58:	e1d260f0 	ldrsh	r6, [r2]
80103b5c:	e1a07fc6 	asr	r7, r6, #31
80103b60:	e58d3034 	str	r3, [sp, #52]	; 0x34
80103b64:	e1a02006 	mov	r2, r6
80103b68:	e1a03007 	mov	r3, r7
80103b6c:	eafffde8 	b	80103314 <_svfprintf_r+0x358>
80103b70:	e58d3044 	str	r3, [sp, #68]	; 0x44
80103b74:	e3a03000 	mov	r3, #0
80103b78:	e3a00001 	mov	r0, #1
80103b7c:	e59dc034 	ldr	ip, [sp, #52]	; 0x34
80103b80:	e59c1000 	ldr	r1, [ip]
80103b84:	e1a02003 	mov	r2, r3
80103b88:	e5cd308b 	strb	r3, [sp, #139]	; 0x8b
80103b8c:	e58d3038 	str	r3, [sp, #56]	; 0x38
80103b90:	e1a05003 	mov	r5, r3
80103b94:	e58d3058 	str	r3, [sp, #88]	; 0x58
80103b98:	e58d3054 	str	r3, [sp, #84]	; 0x54
80103b9c:	e58d304c 	str	r3, [sp, #76]	; 0x4c
80103ba0:	e28c3004 	add	r3, ip, #4
80103ba4:	e58d0018 	str	r0, [sp, #24]
80103ba8:	e58d0028 	str	r0, [sp, #40]	; 0x28
80103bac:	e5cd10f4 	strb	r1, [sp, #244]	; 0xf4
80103bb0:	e58d3034 	str	r3, [sp, #52]	; 0x34
80103bb4:	e28d90f4 	add	r9, sp, #244	; 0xf4
80103bb8:	eafffe27 	b	8010345c <_svfprintf_r+0x4a0>
80103bbc:	e58d3044 	str	r3, [sp, #68]	; 0x44
80103bc0:	e59d3034 	ldr	r3, [sp, #52]	; 0x34
80103bc4:	e2834007 	add	r4, r3, #7
80103bc8:	e3c4c007 	bic	ip, r4, #7
80103bcc:	e59c3004 	ldr	r3, [ip, #4]
80103bd0:	e59c7000 	ldr	r7, [ip]
80103bd4:	e3c34102 	bic	r4, r3, #-2147483648	; 0x80000000
80103bd8:	e58d305c 	str	r3, [sp, #92]	; 0x5c
80103bdc:	e28cc008 	add	ip, ip, #8
80103be0:	e1a00007 	mov	r0, r7
80103be4:	e1a01004 	mov	r1, r4
80103be8:	e3e02000 	mvn	r2, #0
80103bec:	e59f3874 	ldr	r3, [pc, #2164]	; 80104468 <_svfprintf_r+0x14ac>
80103bf0:	e58d7060 	str	r7, [sp, #96]	; 0x60
80103bf4:	e58dc034 	str	ip, [sp, #52]	; 0x34
80103bf8:	ebfffb15 	bl	80102854 <__aeabi_dcmpun>
80103bfc:	e3500000 	cmp	r0, #0
80103c00:	1a000223 	bne	80104494 <_svfprintf_r+0x14d8>
80103c04:	e1a00007 	mov	r0, r7
80103c08:	e1a01004 	mov	r1, r4
80103c0c:	e3e02000 	mvn	r2, #0
80103c10:	e59f3850 	ldr	r3, [pc, #2128]	; 80104468 <_svfprintf_r+0x14ac>
80103c14:	ebfffafc 	bl	8010280c <__aeabi_dcmple>
80103c18:	e3500000 	cmp	r0, #0
80103c1c:	1a00021c 	bne	80104494 <_svfprintf_r+0x14d8>
80103c20:	e59d2064 	ldr	r2, [sp, #100]	; 0x64
80103c24:	e1a00007 	mov	r0, r7
80103c28:	e59d3068 	ldr	r3, [sp, #104]	; 0x68
80103c2c:	e59d105c 	ldr	r1, [sp, #92]	; 0x5c
80103c30:	ebfffaef 	bl	801027f4 <__aeabi_dcmplt>
80103c34:	e3500000 	cmp	r0, #0
80103c38:	1a0004e6 	bne	80104fd8 <_svfprintf_r+0x201c>
80103c3c:	e5dd208b 	ldrb	r2, [sp, #139]	; 0x8b
80103c40:	e3a0c003 	mov	ip, #3
80103c44:	e3a00000 	mov	r0, #0
80103c48:	e58dc018 	str	ip, [sp, #24]
80103c4c:	e58d0038 	str	r0, [sp, #56]	; 0x38
80103c50:	e59f1814 	ldr	r1, [pc, #2068]	; 8010446c <_svfprintf_r+0x14b0>
80103c54:	e59f3814 	ldr	r3, [pc, #2068]	; 80104470 <_svfprintf_r+0x14b4>
80103c58:	e1a05000 	mov	r5, r0
80103c5c:	e58d0058 	str	r0, [sp, #88]	; 0x58
80103c60:	e58d0054 	str	r0, [sp, #84]	; 0x54
80103c64:	e58d004c 	str	r0, [sp, #76]	; 0x4c
80103c68:	e59d0044 	ldr	r0, [sp, #68]	; 0x44
80103c6c:	e3500047 	cmp	r0, #71	; 0x47
80103c70:	e3c88080 	bic	r8, r8, #128	; 0x80
80103c74:	e58dc028 	str	ip, [sp, #40]	; 0x28
80103c78:	c1a09001 	movgt	r9, r1
80103c7c:	d1a09003 	movle	r9, r3
80103c80:	eafffdf0 	b	80103448 <_svfprintf_r+0x48c>
80103c84:	e5da3000 	ldrb	r3, [sl]
80103c88:	e3530068 	cmp	r3, #104	; 0x68
80103c8c:	05da3001 	ldrbeq	r3, [sl, #1]
80103c90:	03888c02 	orreq	r8, r8, #512	; 0x200
80103c94:	028aa001 	addeq	sl, sl, #1
80103c98:	13888040 	orrne	r8, r8, #64	; 0x40
80103c9c:	eafffd10 	b	801030e4 <_svfprintf_r+0x128>
80103ca0:	e3888080 	orr	r8, r8, #128	; 0x80
80103ca4:	e5da3000 	ldrb	r3, [sl]
80103ca8:	eafffd0d 	b	801030e4 <_svfprintf_r+0x128>
80103cac:	e3888010 	orr	r8, r8, #16
80103cb0:	e3180020 	tst	r8, #32
80103cb4:	e58d3044 	str	r3, [sp, #68]	; 0x44
80103cb8:	1afffdb8 	bne	801033a0 <_svfprintf_r+0x3e4>
80103cbc:	e59d2034 	ldr	r2, [sp, #52]	; 0x34
80103cc0:	e3180010 	tst	r8, #16
80103cc4:	e2823004 	add	r3, r2, #4
80103cc8:	1a0001da 	bne	80104438 <_svfprintf_r+0x147c>
80103ccc:	e3180040 	tst	r8, #64	; 0x40
80103cd0:	0a0001d5 	beq	8010442c <_svfprintf_r+0x1470>
80103cd4:	e59d2034 	ldr	r2, [sp, #52]	; 0x34
80103cd8:	e1a04008 	mov	r4, r8
80103cdc:	e1d260b0 	ldrh	r6, [r2]
80103ce0:	e58d3034 	str	r3, [sp, #52]	; 0x34
80103ce4:	e3a07000 	mov	r7, #0
80103ce8:	e3a02001 	mov	r2, #1
80103cec:	eafffdb3 	b	801033c0 <_svfprintf_r+0x404>
80103cf0:	e3530000 	cmp	r3, #0
80103cf4:	e1a01003 	mov	r1, r3
80103cf8:	e58d3044 	str	r3, [sp, #68]	; 0x44
80103cfc:	0a000309 	beq	80104928 <_svfprintf_r+0x196c>
80103d00:	e3a03000 	mov	r3, #0
80103d04:	e3a00001 	mov	r0, #1
80103d08:	e1a02003 	mov	r2, r3
80103d0c:	e58d0018 	str	r0, [sp, #24]
80103d10:	e5cd10f4 	strb	r1, [sp, #244]	; 0xf4
80103d14:	e5cd308b 	strb	r3, [sp, #139]	; 0x8b
80103d18:	e58d3038 	str	r3, [sp, #56]	; 0x38
80103d1c:	e1a05003 	mov	r5, r3
80103d20:	e58d3058 	str	r3, [sp, #88]	; 0x58
80103d24:	e58d3054 	str	r3, [sp, #84]	; 0x54
80103d28:	e58d304c 	str	r3, [sp, #76]	; 0x4c
80103d2c:	e58d0028 	str	r0, [sp, #40]	; 0x28
80103d30:	e28d90f4 	add	r9, sp, #244	; 0xf4
80103d34:	eafffdc8 	b	8010345c <_svfprintf_r+0x4a0>
80103d38:	e59d3044 	ldr	r3, [sp, #68]	; 0x44
80103d3c:	e3530065 	cmp	r3, #101	; 0x65
80103d40:	da0000b1 	ble	8010400c <_svfprintf_r+0x1050>
80103d44:	e28d0060 	add	r0, sp, #96	; 0x60
80103d48:	e890000d 	ldm	r0, {r0, r2, r3}
80103d4c:	e59d105c 	ldr	r1, [sp, #92]	; 0x5c
80103d50:	ebfffaa1 	bl	801027dc <__aeabi_dcmpeq>
80103d54:	e3500000 	cmp	r0, #0
80103d58:	0a0000f9 	beq	80104144 <_svfprintf_r+0x1188>
80103d5c:	e3a02001 	mov	r2, #1
80103d60:	e59d30ac 	ldr	r3, [sp, #172]	; 0xac
80103d64:	e0833002 	add	r3, r3, r2
80103d68:	e3530007 	cmp	r3, #7
80103d6c:	e58d30ac 	str	r3, [sp, #172]	; 0xac
80103d70:	e59f36fc 	ldr	r3, [pc, #1788]	; 80104474 <_svfprintf_r+0x14b8>
80103d74:	e0844002 	add	r4, r4, r2
80103d78:	e58b2004 	str	r2, [fp, #4]
80103d7c:	e58b3000 	str	r3, [fp]
80103d80:	e58d40b0 	str	r4, [sp, #176]	; 0xb0
80103d84:	d28bb008 	addle	fp, fp, #8
80103d88:	ca0002cd 	bgt	801048c4 <_svfprintf_r+0x1908>
80103d8c:	e59d3090 	ldr	r3, [sp, #144]	; 0x90
80103d90:	e59d2050 	ldr	r2, [sp, #80]	; 0x50
80103d94:	e1530002 	cmp	r3, r2
80103d98:	aa000184 	bge	801043b0 <_svfprintf_r+0x13f4>
80103d9c:	e28d30ac 	add	r3, sp, #172	; 0xac
80103da0:	e8930018 	ldm	r3, {r3, r4}
80103da4:	e59d206c 	ldr	r2, [sp, #108]	; 0x6c
80103da8:	e2833001 	add	r3, r3, #1
80103dac:	e59d1074 	ldr	r1, [sp, #116]	; 0x74
80103db0:	e3530007 	cmp	r3, #7
80103db4:	e0824004 	add	r4, r2, r4
80103db8:	e88b0006 	stm	fp, {r1, r2}
80103dbc:	e58d30ac 	str	r3, [sp, #172]	; 0xac
80103dc0:	e58d40b0 	str	r4, [sp, #176]	; 0xb0
80103dc4:	d28bb008 	addle	fp, fp, #8
80103dc8:	ca00021a 	bgt	80104638 <_svfprintf_r+0x167c>
80103dcc:	e59d3050 	ldr	r3, [sp, #80]	; 0x50
80103dd0:	e2435001 	sub	r5, r3, #1
80103dd4:	e3550000 	cmp	r5, #0
80103dd8:	dafffe47 	ble	801036fc <_svfprintf_r+0x740>
80103ddc:	e3550010 	cmp	r5, #16
80103de0:	e59d30ac 	ldr	r3, [sp, #172]	; 0xac
80103de4:	da0002ad 	ble	801048a0 <_svfprintf_r+0x18e4>
80103de8:	e28d7020 	add	r7, sp, #32
80103dec:	e3a06010 	mov	r6, #16
80103df0:	e8970280 	ldm	r7, {r7, r9}
80103df4:	ea000002 	b	80103e04 <_svfprintf_r+0xe48>
80103df8:	e2455010 	sub	r5, r5, #16
80103dfc:	e3550010 	cmp	r5, #16
80103e00:	da0002a6 	ble	801048a0 <_svfprintf_r+0x18e4>
80103e04:	e2833001 	add	r3, r3, #1
80103e08:	e59f2680 	ldr	r2, [pc, #1664]	; 80104490 <_svfprintf_r+0x14d4>
80103e0c:	e3530007 	cmp	r3, #7
80103e10:	e2844010 	add	r4, r4, #16
80103e14:	e88b0044 	stm	fp, {r2, r6}
80103e18:	e58d30ac 	str	r3, [sp, #172]	; 0xac
80103e1c:	e58d40b0 	str	r4, [sp, #176]	; 0xb0
80103e20:	d28bb008 	addle	fp, fp, #8
80103e24:	dafffff3 	ble	80103df8 <_svfprintf_r+0xe3c>
80103e28:	e28d20a8 	add	r2, sp, #168	; 0xa8
80103e2c:	e1a01009 	mov	r1, r9
80103e30:	e1a00007 	mov	r0, r7
80103e34:	eb0013c1 	bl	80108d40 <__ssprint_r>
80103e38:	e3500000 	cmp	r0, #0
80103e3c:	1afffd19 	bne	801032a8 <_svfprintf_r+0x2ec>
80103e40:	e28d30ac 	add	r3, sp, #172	; 0xac
80103e44:	e28db0b4 	add	fp, sp, #180	; 0xb4
80103e48:	e8930018 	ldm	r3, {r3, r4}
80103e4c:	eaffffe9 	b	80103df8 <_svfprintf_r+0xe3c>
80103e50:	e59d3030 	ldr	r3, [sp, #48]	; 0x30
80103e54:	e59d2018 	ldr	r2, [sp, #24]
80103e58:	e0436002 	sub	r6, r3, r2
80103e5c:	e3560000 	cmp	r6, #0
80103e60:	dafffde2 	ble	801035f0 <_svfprintf_r+0x634>
80103e64:	e3560010 	cmp	r6, #16
80103e68:	e59d30ac 	ldr	r3, [sp, #172]	; 0xac
80103e6c:	da000023 	ble	80103f00 <_svfprintf_r+0xf44>
80103e70:	e1a01004 	mov	r1, r4
80103e74:	e28d4020 	add	r4, sp, #32
80103e78:	e1a0200b 	mov	r2, fp
80103e7c:	e3a07010 	mov	r7, #16
80103e80:	e1a0b006 	mov	fp, r6
80103e84:	e1a06005 	mov	r6, r5
80103e88:	e8940030 	ldm	r4, {r4, r5}
80103e8c:	ea000002 	b	80103e9c <_svfprintf_r+0xee0>
80103e90:	e24bb010 	sub	fp, fp, #16
80103e94:	e35b0010 	cmp	fp, #16
80103e98:	da000014 	ble	80103ef0 <_svfprintf_r+0xf34>
80103e9c:	e2833001 	add	r3, r3, #1
80103ea0:	e59f05e8 	ldr	r0, [pc, #1512]	; 80104490 <_svfprintf_r+0x14d4>
80103ea4:	e3530007 	cmp	r3, #7
80103ea8:	e2811010 	add	r1, r1, #16
80103eac:	e8820081 	stm	r2, {r0, r7}
80103eb0:	e58d30ac 	str	r3, [sp, #172]	; 0xac
80103eb4:	e58d10b0 	str	r1, [sp, #176]	; 0xb0
80103eb8:	d2822008 	addle	r2, r2, #8
80103ebc:	dafffff3 	ble	80103e90 <_svfprintf_r+0xed4>
80103ec0:	e28d20a8 	add	r2, sp, #168	; 0xa8
80103ec4:	e1a01005 	mov	r1, r5
80103ec8:	e1a00004 	mov	r0, r4
80103ecc:	eb00139b 	bl	80108d40 <__ssprint_r>
80103ed0:	e3500000 	cmp	r0, #0
80103ed4:	1afffcf3 	bne	801032a8 <_svfprintf_r+0x2ec>
80103ed8:	e24bb010 	sub	fp, fp, #16
80103edc:	e35b0010 	cmp	fp, #16
80103ee0:	e28d20b4 	add	r2, sp, #180	; 0xb4
80103ee4:	e59d10b0 	ldr	r1, [sp, #176]	; 0xb0
80103ee8:	e59d30ac 	ldr	r3, [sp, #172]	; 0xac
80103eec:	caffffea 	bgt	80103e9c <_svfprintf_r+0xee0>
80103ef0:	e1a05006 	mov	r5, r6
80103ef4:	e1a04001 	mov	r4, r1
80103ef8:	e1a0600b 	mov	r6, fp
80103efc:	e1a0b002 	mov	fp, r2
80103f00:	e2833001 	add	r3, r3, #1
80103f04:	e3530007 	cmp	r3, #7
80103f08:	e58d30ac 	str	r3, [sp, #172]	; 0xac
80103f0c:	e59f357c 	ldr	r3, [pc, #1404]	; 80104490 <_svfprintf_r+0x14d4>
80103f10:	e0844006 	add	r4, r4, r6
80103f14:	e88b0048 	stm	fp, {r3, r6}
80103f18:	e58d40b0 	str	r4, [sp, #176]	; 0xb0
80103f1c:	d28bb008 	addle	fp, fp, #8
80103f20:	dafffdb2 	ble	801035f0 <_svfprintf_r+0x634>
80103f24:	e28d0020 	add	r0, sp, #32
80103f28:	e28d20a8 	add	r2, sp, #168	; 0xa8
80103f2c:	e8900003 	ldm	r0, {r0, r1}
80103f30:	eb001382 	bl	80108d40 <__ssprint_r>
80103f34:	e3500000 	cmp	r0, #0
80103f38:	1afffcda 	bne	801032a8 <_svfprintf_r+0x2ec>
80103f3c:	e28db0b4 	add	fp, sp, #180	; 0xb4
80103f40:	e59d40b0 	ldr	r4, [sp, #176]	; 0xb0
80103f44:	eafffda9 	b	801035f0 <_svfprintf_r+0x634>
80103f48:	e1a04008 	mov	r4, r8
80103f4c:	e3520001 	cmp	r2, #1
80103f50:	0afffcfb 	beq	80103344 <_svfprintf_r+0x388>
80103f54:	e3520002 	cmp	r2, #2
80103f58:	128d1f56 	addne	r1, sp, #344	; 0x158
80103f5c:	1a000011 	bne	80103fa8 <_svfprintf_r+0xfec>
80103f60:	e59d0070 	ldr	r0, [sp, #112]	; 0x70
80103f64:	e28d9f56 	add	r9, sp, #344	; 0x158
80103f68:	e1a03226 	lsr	r3, r6, #4
80103f6c:	e1833e07 	orr	r3, r3, r7, lsl #28
80103f70:	e1a01227 	lsr	r1, r7, #4
80103f74:	e206200f 	and	r2, r6, #15
80103f78:	e1a07001 	mov	r7, r1
80103f7c:	e1a06003 	mov	r6, r3
80103f80:	e7d03002 	ldrb	r3, [r0, r2]
80103f84:	e1962007 	orrs	r2, r6, r7
80103f88:	e5693001 	strb	r3, [r9, #-1]!
80103f8c:	1afffff5 	bne	80103f68 <_svfprintf_r+0xfac>
80103f90:	e59d3018 	ldr	r3, [sp, #24]
80103f94:	e0433009 	sub	r3, r3, r9
80103f98:	e58d3028 	str	r3, [sp, #40]	; 0x28
80103f9c:	e1a08004 	mov	r8, r4
80103fa0:	eafffd1e 	b	80103420 <_svfprintf_r+0x464>
80103fa4:	e1a01009 	mov	r1, r9
80103fa8:	e1a021a6 	lsr	r2, r6, #3
80103fac:	e1822e87 	orr	r2, r2, r7, lsl #29
80103fb0:	e1a001a7 	lsr	r0, r7, #3
80103fb4:	e2063007 	and	r3, r6, #7
80103fb8:	e1a07000 	mov	r7, r0
80103fbc:	e1a06002 	mov	r6, r2
80103fc0:	e2833030 	add	r3, r3, #48	; 0x30
80103fc4:	e1962007 	orrs	r2, r6, r7
80103fc8:	e5413001 	strb	r3, [r1, #-1]
80103fcc:	e2419001 	sub	r9, r1, #1
80103fd0:	1afffff3 	bne	80103fa4 <_svfprintf_r+0xfe8>
80103fd4:	e3530030 	cmp	r3, #48	; 0x30
80103fd8:	03a03000 	moveq	r3, #0
80103fdc:	12043001 	andne	r3, r4, #1
80103fe0:	e3530000 	cmp	r3, #0
80103fe4:	0affffe9 	beq	80103f90 <_svfprintf_r+0xfd4>
80103fe8:	e3a03030 	mov	r3, #48	; 0x30
80103fec:	e59d2018 	ldr	r2, [sp, #24]
80103ff0:	e2411002 	sub	r1, r1, #2
80103ff4:	e0422001 	sub	r2, r2, r1
80103ff8:	e5493001 	strb	r3, [r9, #-1]
80103ffc:	e58d2028 	str	r2, [sp, #40]	; 0x28
80104000:	e1a08004 	mov	r8, r4
80104004:	e1a09001 	mov	r9, r1
80104008:	eafffd04 	b	80103420 <_svfprintf_r+0x464>
8010400c:	e59d2050 	ldr	r2, [sp, #80]	; 0x50
80104010:	e59d30ac 	ldr	r3, [sp, #172]	; 0xac
80104014:	e3520001 	cmp	r2, #1
80104018:	e2844001 	add	r4, r4, #1
8010401c:	e2835001 	add	r5, r3, #1
80104020:	e28b6008 	add	r6, fp, #8
80104024:	da0000a0 	ble	801042ac <_svfprintf_r+0x12f0>
80104028:	e3a03001 	mov	r3, #1
8010402c:	e3550007 	cmp	r5, #7
80104030:	e58b9000 	str	r9, [fp]
80104034:	e58d40b0 	str	r4, [sp, #176]	; 0xb0
80104038:	e58d50ac 	str	r5, [sp, #172]	; 0xac
8010403c:	e58b3004 	str	r3, [fp, #4]
80104040:	ca00020c 	bgt	80104878 <_svfprintf_r+0x18bc>
80104044:	e59d306c 	ldr	r3, [sp, #108]	; 0x6c
80104048:	e2855001 	add	r5, r5, #1
8010404c:	e59d2074 	ldr	r2, [sp, #116]	; 0x74
80104050:	e3550007 	cmp	r5, #7
80104054:	e0844003 	add	r4, r4, r3
80104058:	e886000c 	stm	r6, {r2, r3}
8010405c:	e58d50ac 	str	r5, [sp, #172]	; 0xac
80104060:	e58d40b0 	str	r4, [sp, #176]	; 0xb0
80104064:	d2866008 	addle	r6, r6, #8
80104068:	ca0001f8 	bgt	80104850 <_svfprintf_r+0x1894>
8010406c:	e28d0060 	add	r0, sp, #96	; 0x60
80104070:	e890000d 	ldm	r0, {r0, r2, r3}
80104074:	e59d105c 	ldr	r1, [sp, #92]	; 0x5c
80104078:	ebfff9d7 	bl	801027dc <__aeabi_dcmpeq>
8010407c:	e59d1050 	ldr	r1, [sp, #80]	; 0x50
80104080:	e2852001 	add	r2, r5, #1
80104084:	e3500000 	cmp	r0, #0
80104088:	e1a03002 	mov	r3, r2
8010408c:	e2417001 	sub	r7, r1, #1
80104090:	e286b008 	add	fp, r6, #8
80104094:	1a000064 	bne	8010422c <_svfprintf_r+0x1270>
80104098:	e2892001 	add	r2, r9, #1
8010409c:	e0844007 	add	r4, r4, r7
801040a0:	e3530007 	cmp	r3, #7
801040a4:	e5862000 	str	r2, [r6]
801040a8:	e58d40b0 	str	r4, [sp, #176]	; 0xb0
801040ac:	e5867004 	str	r7, [r6, #4]
801040b0:	e58d30ac 	str	r3, [sp, #172]	; 0xac
801040b4:	ca000153 	bgt	80104608 <_svfprintf_r+0x164c>
801040b8:	e2862010 	add	r2, r6, #16
801040bc:	e1a0600b 	mov	r6, fp
801040c0:	e1a0b002 	mov	fp, r2
801040c4:	e2853002 	add	r3, r5, #2
801040c8:	e59d1080 	ldr	r1, [sp, #128]	; 0x80
801040cc:	e28d2098 	add	r2, sp, #152	; 0x98
801040d0:	e0814004 	add	r4, r1, r4
801040d4:	e3530007 	cmp	r3, #7
801040d8:	e58d40b0 	str	r4, [sp, #176]	; 0xb0
801040dc:	e5861004 	str	r1, [r6, #4]
801040e0:	e58d30ac 	str	r3, [sp, #172]	; 0xac
801040e4:	e5862000 	str	r2, [r6]
801040e8:	dafffd83 	ble	801036fc <_svfprintf_r+0x740>
801040ec:	e28d0020 	add	r0, sp, #32
801040f0:	e28d20a8 	add	r2, sp, #168	; 0xa8
801040f4:	e8900003 	ldm	r0, {r0, r1}
801040f8:	eb001310 	bl	80108d40 <__ssprint_r>
801040fc:	e3500000 	cmp	r0, #0
80104100:	1afffc68 	bne	801032a8 <_svfprintf_r+0x2ec>
80104104:	e28db0b4 	add	fp, sp, #180	; 0xb4
80104108:	e59d40b0 	ldr	r4, [sp, #176]	; 0xb0
8010410c:	eafffd7a 	b	801036fc <_svfprintf_r+0x740>
80104110:	e1a05003 	mov	r5, r3
80104114:	e28d9f56 	add	r9, sp, #344	; 0x158
80104118:	e58d3028 	str	r3, [sp, #40]	; 0x28
8010411c:	eafffcbf 	b	80103420 <_svfprintf_r+0x464>
80104120:	e28d0020 	add	r0, sp, #32
80104124:	e28d20a8 	add	r2, sp, #168	; 0xa8
80104128:	e8900003 	ldm	r0, {r0, r1}
8010412c:	eb001303 	bl	80108d40 <__ssprint_r>
80104130:	e3500000 	cmp	r0, #0
80104134:	1afffc5b 	bne	801032a8 <_svfprintf_r+0x2ec>
80104138:	e28db0b4 	add	fp, sp, #180	; 0xb4
8010413c:	e59d40b0 	ldr	r4, [sp, #176]	; 0xb0
80104140:	eafffd18 	b	801035a8 <_svfprintf_r+0x5ec>
80104144:	e59d5090 	ldr	r5, [sp, #144]	; 0x90
80104148:	e3550000 	cmp	r5, #0
8010414c:	ca000062 	bgt	801042dc <_svfprintf_r+0x1320>
80104150:	e3a02001 	mov	r2, #1
80104154:	e59d30ac 	ldr	r3, [sp, #172]	; 0xac
80104158:	e0833002 	add	r3, r3, r2
8010415c:	e3530007 	cmp	r3, #7
80104160:	e58d30ac 	str	r3, [sp, #172]	; 0xac
80104164:	e59f3308 	ldr	r3, [pc, #776]	; 80104474 <_svfprintf_r+0x14b8>
80104168:	e0844002 	add	r4, r4, r2
8010416c:	e58b2004 	str	r2, [fp, #4]
80104170:	e58b3000 	str	r3, [fp]
80104174:	e58d40b0 	str	r4, [sp, #176]	; 0xb0
80104178:	d28bb008 	addle	fp, fp, #8
8010417c:	ca000433 	bgt	80105250 <_svfprintf_r+0x2294>
80104180:	e59d3050 	ldr	r3, [sp, #80]	; 0x50
80104184:	e1933005 	orrs	r3, r3, r5
80104188:	0a00047f 	beq	8010538c <_svfprintf_r+0x23d0>
8010418c:	e59d30ac 	ldr	r3, [sp, #172]	; 0xac
80104190:	e59d206c 	ldr	r2, [sp, #108]	; 0x6c
80104194:	e2833001 	add	r3, r3, #1
80104198:	e59d1074 	ldr	r1, [sp, #116]	; 0x74
8010419c:	e0824004 	add	r4, r2, r4
801041a0:	e3530007 	cmp	r3, #7
801041a4:	e88b0006 	stm	fp, {r1, r2}
801041a8:	e58d40b0 	str	r4, [sp, #176]	; 0xb0
801041ac:	e58d30ac 	str	r3, [sp, #172]	; 0xac
801041b0:	d28bb008 	addle	fp, fp, #8
801041b4:	ca00043b 	bgt	801052a8 <_svfprintf_r+0x22ec>
801041b8:	e3550000 	cmp	r5, #0
801041bc:	ba000498 	blt	80105424 <_svfprintf_r+0x2468>
801041c0:	e59d2050 	ldr	r2, [sp, #80]	; 0x50
801041c4:	e2833001 	add	r3, r3, #1
801041c8:	e0844002 	add	r4, r4, r2
801041cc:	e3530007 	cmp	r3, #7
801041d0:	e58d30ac 	str	r3, [sp, #172]	; 0xac
801041d4:	e58d40b0 	str	r4, [sp, #176]	; 0xb0
801041d8:	e58b9000 	str	r9, [fp]
801041dc:	e58b2004 	str	r2, [fp, #4]
801041e0:	dafffd44 	ble	801036f8 <_svfprintf_r+0x73c>
801041e4:	e28d0020 	add	r0, sp, #32
801041e8:	e28d20a8 	add	r2, sp, #168	; 0xa8
801041ec:	e8900003 	ldm	r0, {r0, r1}
801041f0:	eb0012d2 	bl	80108d40 <__ssprint_r>
801041f4:	e3500000 	cmp	r0, #0
801041f8:	1afffc2a 	bne	801032a8 <_svfprintf_r+0x2ec>
801041fc:	e59d40b0 	ldr	r4, [sp, #176]	; 0xb0
80104200:	e28db0b4 	add	fp, sp, #180	; 0xb4
80104204:	eafffd3c 	b	801036fc <_svfprintf_r+0x740>
80104208:	e28d0020 	add	r0, sp, #32
8010420c:	e28d20a8 	add	r2, sp, #168	; 0xa8
80104210:	e8900003 	ldm	r0, {r0, r1}
80104214:	eb0012c9 	bl	80108d40 <__ssprint_r>
80104218:	e3500000 	cmp	r0, #0
8010421c:	1afffc21 	bne	801032a8 <_svfprintf_r+0x2ec>
80104220:	e28db0b4 	add	fp, sp, #180	; 0xb4
80104224:	e59d40b0 	ldr	r4, [sp, #176]	; 0xb0
80104228:	eafffced 	b	801035e4 <_svfprintf_r+0x628>
8010422c:	e3570000 	cmp	r7, #0
80104230:	daffffa4 	ble	801040c8 <_svfprintf_r+0x110c>
80104234:	e3570010 	cmp	r7, #16
80104238:	da0004de 	ble	801055b8 <_svfprintf_r+0x25fc>
8010423c:	e1a03004 	mov	r3, r4
80104240:	e3a09010 	mov	r9, #16
80104244:	e59db020 	ldr	fp, [sp, #32]
80104248:	e59d4024 	ldr	r4, [sp, #36]	; 0x24
8010424c:	e1a05002 	mov	r5, r2
80104250:	ea000003 	b	80104264 <_svfprintf_r+0x12a8>
80104254:	e2477010 	sub	r7, r7, #16
80104258:	e3570010 	cmp	r7, #16
8010425c:	da0001a0 	ble	801048e4 <_svfprintf_r+0x1928>
80104260:	e2855001 	add	r5, r5, #1
80104264:	e59f2224 	ldr	r2, [pc, #548]	; 80104490 <_svfprintf_r+0x14d4>
80104268:	e2833010 	add	r3, r3, #16
8010426c:	e3550007 	cmp	r5, #7
80104270:	e8860204 	stm	r6, {r2, r9}
80104274:	e58d50ac 	str	r5, [sp, #172]	; 0xac
80104278:	e58d30b0 	str	r3, [sp, #176]	; 0xb0
8010427c:	d2866008 	addle	r6, r6, #8
80104280:	dafffff3 	ble	80104254 <_svfprintf_r+0x1298>
80104284:	e28d20a8 	add	r2, sp, #168	; 0xa8
80104288:	e1a01004 	mov	r1, r4
8010428c:	e1a0000b 	mov	r0, fp
80104290:	eb0012aa 	bl	80108d40 <__ssprint_r>
80104294:	e3500000 	cmp	r0, #0
80104298:	1afffc02 	bne	801032a8 <_svfprintf_r+0x2ec>
8010429c:	e28d60b4 	add	r6, sp, #180	; 0xb4
801042a0:	e59d30b0 	ldr	r3, [sp, #176]	; 0xb0
801042a4:	e59d50ac 	ldr	r5, [sp, #172]	; 0xac
801042a8:	eaffffe9 	b	80104254 <_svfprintf_r+0x1298>
801042ac:	e3180001 	tst	r8, #1
801042b0:	1affff5c 	bne	80104028 <_svfprintf_r+0x106c>
801042b4:	e3a02001 	mov	r2, #1
801042b8:	e3550007 	cmp	r5, #7
801042bc:	e58b9000 	str	r9, [fp]
801042c0:	e58d40b0 	str	r4, [sp, #176]	; 0xb0
801042c4:	e58d50ac 	str	r5, [sp, #172]	; 0xac
801042c8:	e58b2004 	str	r2, [fp, #4]
801042cc:	ca0003e9 	bgt	80105278 <_svfprintf_r+0x22bc>
801042d0:	e2833002 	add	r3, r3, #2
801042d4:	e28bb010 	add	fp, fp, #16
801042d8:	eaffff7a 	b	801040c8 <_svfprintf_r+0x110c>
801042dc:	e59d304c 	ldr	r3, [sp, #76]	; 0x4c
801042e0:	e59d2050 	ldr	r2, [sp, #80]	; 0x50
801042e4:	e1530002 	cmp	r3, r2
801042e8:	b1a05003 	movlt	r5, r3
801042ec:	a1a05002 	movge	r5, r2
801042f0:	e3550000 	cmp	r5, #0
801042f4:	da000009 	ble	80104320 <_svfprintf_r+0x1364>
801042f8:	e59d30ac 	ldr	r3, [sp, #172]	; 0xac
801042fc:	e2833001 	add	r3, r3, #1
80104300:	e0844005 	add	r4, r4, r5
80104304:	e3530007 	cmp	r3, #7
80104308:	e58b9000 	str	r9, [fp]
8010430c:	e58b5004 	str	r5, [fp, #4]
80104310:	e58d40b0 	str	r4, [sp, #176]	; 0xb0
80104314:	e58d30ac 	str	r3, [sp, #172]	; 0xac
80104318:	d28bb008 	addle	fp, fp, #8
8010431c:	ca00033b 	bgt	80105010 <_svfprintf_r+0x2054>
80104320:	e59d304c 	ldr	r3, [sp, #76]	; 0x4c
80104324:	e3550000 	cmp	r5, #0
80104328:	a0433005 	subge	r3, r3, r5
8010432c:	e3530000 	cmp	r3, #0
80104330:	e1a05003 	mov	r5, r3
80104334:	da0000f2 	ble	80104704 <_svfprintf_r+0x1748>
80104338:	e3530010 	cmp	r3, #16
8010433c:	e59d30ac 	ldr	r3, [sp, #172]	; 0xac
80104340:	da0000de 	ble	801046c0 <_svfprintf_r+0x1704>
80104344:	e1a02004 	mov	r2, r4
80104348:	e3a06010 	mov	r6, #16
8010434c:	e59d7020 	ldr	r7, [sp, #32]
80104350:	e59d4024 	ldr	r4, [sp, #36]	; 0x24
80104354:	ea000002 	b	80104364 <_svfprintf_r+0x13a8>
80104358:	e2455010 	sub	r5, r5, #16
8010435c:	e3550010 	cmp	r5, #16
80104360:	da0000d5 	ble	801046bc <_svfprintf_r+0x1700>
80104364:	e2833001 	add	r3, r3, #1
80104368:	e59f1120 	ldr	r1, [pc, #288]	; 80104490 <_svfprintf_r+0x14d4>
8010436c:	e3530007 	cmp	r3, #7
80104370:	e2822010 	add	r2, r2, #16
80104374:	e88b0042 	stm	fp, {r1, r6}
80104378:	e58d30ac 	str	r3, [sp, #172]	; 0xac
8010437c:	e58d20b0 	str	r2, [sp, #176]	; 0xb0
80104380:	d28bb008 	addle	fp, fp, #8
80104384:	dafffff3 	ble	80104358 <_svfprintf_r+0x139c>
80104388:	e28d20a8 	add	r2, sp, #168	; 0xa8
8010438c:	e1a01004 	mov	r1, r4
80104390:	e1a00007 	mov	r0, r7
80104394:	eb001269 	bl	80108d40 <__ssprint_r>
80104398:	e3500000 	cmp	r0, #0
8010439c:	1afffbc1 	bne	801032a8 <_svfprintf_r+0x2ec>
801043a0:	e28db0b4 	add	fp, sp, #180	; 0xb4
801043a4:	e59d20b0 	ldr	r2, [sp, #176]	; 0xb0
801043a8:	e59d30ac 	ldr	r3, [sp, #172]	; 0xac
801043ac:	eaffffe9 	b	80104358 <_svfprintf_r+0x139c>
801043b0:	e3180001 	tst	r8, #1
801043b4:	1afffe78 	bne	80103d9c <_svfprintf_r+0xde0>
801043b8:	eaffff52 	b	80104108 <_svfprintf_r+0x114c>
801043bc:	e28d0020 	add	r0, sp, #32
801043c0:	e28d20a8 	add	r2, sp, #168	; 0xa8
801043c4:	e8900003 	ldm	r0, {r0, r1}
801043c8:	eb00125c 	bl	80108d40 <__ssprint_r>
801043cc:	e3500000 	cmp	r0, #0
801043d0:	1afffbb4 	bne	801032a8 <_svfprintf_r+0x2ec>
801043d4:	e59d40b0 	ldr	r4, [sp, #176]	; 0xb0
801043d8:	eafffcf7 	b	801037bc <_svfprintf_r+0x800>
801043dc:	e3180c02 	tst	r8, #512	; 0x200
801043e0:	1a00025d 	bne	80104d5c <_svfprintf_r+0x1da0>
801043e4:	e5926000 	ldr	r6, [r2]
801043e8:	e3a07000 	mov	r7, #0
801043ec:	e58d3034 	str	r3, [sp, #52]	; 0x34
801043f0:	eafffd0d 	b	8010382c <_svfprintf_r+0x870>
801043f4:	e3180c02 	tst	r8, #512	; 0x200
801043f8:	1a000262 	bne	80104d88 <_svfprintf_r+0x1dcc>
801043fc:	e5926000 	ldr	r6, [r2]
80104400:	e3a07000 	mov	r7, #0
80104404:	e58d3034 	str	r3, [sp, #52]	; 0x34
80104408:	eafffd15 	b	80103864 <_svfprintf_r+0x8a8>
8010440c:	e3140c02 	tst	r4, #512	; 0x200
80104410:	1a000260 	bne	80104d98 <_svfprintf_r+0x1ddc>
80104414:	e5926000 	ldr	r6, [r2]
80104418:	e1a07fc6 	asr	r7, r6, #31
8010441c:	e58d3034 	str	r3, [sp, #52]	; 0x34
80104420:	e1a02006 	mov	r2, r6
80104424:	e1a03007 	mov	r3, r7
80104428:	eafffbb9 	b	80103314 <_svfprintf_r+0x358>
8010442c:	e3180c02 	tst	r8, #512	; 0x200
80104430:	1a00024d 	bne	80104d6c <_svfprintf_r+0x1db0>
80104434:	e59d2034 	ldr	r2, [sp, #52]	; 0x34
80104438:	e5926000 	ldr	r6, [r2]
8010443c:	e1a04008 	mov	r4, r8
80104440:	e58d3034 	str	r3, [sp, #52]	; 0x34
80104444:	e3a07000 	mov	r7, #0
80104448:	e3a02001 	mov	r2, #1
8010444c:	eafffbdb 	b	801033c0 <_svfprintf_r+0x404>
80104450:	e59d001c 	ldr	r0, [sp, #28]
80104454:	e1a01fc0 	asr	r1, r0, #31
80104458:	e8830003 	stm	r3, {r0, r1}
8010445c:	eafffce7 	b	80103800 <_svfprintf_r+0x844>
80104460:	8010aa58 	.word	0x8010aa58
80104464:	00007830 	.word	0x00007830
80104468:	7fefffff 	.word	0x7fefffff
8010446c:	8010aa18 	.word	0x8010aa18
80104470:	8010aa14 	.word	0x8010aa14
80104474:	8010aa54 	.word	0x8010aa54
80104478:	8010aa4c 	.word	0x8010aa4c
8010447c:	cccccccd 	.word	0xcccccccd
80104480:	8010aa24 	.word	0x8010aa24
80104484:	8010aa38 	.word	0x8010aa38
80104488:	40300000 	.word	0x40300000
8010448c:	3fe00000 	.word	0x3fe00000
80104490:	8010aa68 	.word	0x8010aa68
80104494:	e59dc060 	ldr	ip, [sp, #96]	; 0x60
80104498:	e1a0200c 	mov	r2, ip
8010449c:	e1a0000c 	mov	r0, ip
801044a0:	e59dc05c 	ldr	ip, [sp, #92]	; 0x5c
801044a4:	e1a0300c 	mov	r3, ip
801044a8:	e1a0100c 	mov	r1, ip
801044ac:	ebfff8e8 	bl	80102854 <__aeabi_dcmpun>
801044b0:	e3500000 	cmp	r0, #0
801044b4:	1a00042e 	bne	80105574 <_svfprintf_r+0x25b8>
801044b8:	e59d2044 	ldr	r2, [sp, #68]	; 0x44
801044bc:	e3c23020 	bic	r3, r2, #32
801044c0:	e3530041 	cmp	r3, #65	; 0x41
801044c4:	e58d3018 	str	r3, [sp, #24]
801044c8:	1a0001a5 	bne	80104b64 <_svfprintf_r+0x1ba8>
801044cc:	e3520061 	cmp	r2, #97	; 0x61
801044d0:	e3a03030 	mov	r3, #48	; 0x30
801044d4:	13a02058 	movne	r2, #88	; 0x58
801044d8:	03a02078 	moveq	r2, #120	; 0x78
801044dc:	e5cd308c 	strb	r3, [sp, #140]	; 0x8c
801044e0:	e3550063 	cmp	r5, #99	; 0x63
801044e4:	e3883002 	orr	r3, r8, #2
801044e8:	e5cd208d 	strb	r2, [sp, #141]	; 0x8d
801044ec:	e58d303c 	str	r3, [sp, #60]	; 0x3c
801044f0:	ca000231 	bgt	80104dbc <_svfprintf_r+0x1e00>
801044f4:	e3888c01 	orr	r8, r8, #256	; 0x100
801044f8:	e3888002 	orr	r8, r8, #2
801044fc:	e58d0038 	str	r0, [sp, #56]	; 0x38
80104500:	e59d605c 	ldr	r6, [sp, #92]	; 0x5c
80104504:	e28d90f4 	add	r9, sp, #244	; 0xf4
80104508:	ea0001a3 	b	80104b9c <_svfprintf_r+0x1be0>
8010450c:	e3a03000 	mov	r3, #0
80104510:	e2048b01 	and	r8, r4, #1024	; 0x400
80104514:	e58db028 	str	fp, [sp, #40]	; 0x28
80104518:	e1a0b005 	mov	fp, r5
8010451c:	e1a05004 	mov	r5, r4
80104520:	e1a04008 	mov	r4, r8
80104524:	e1a08003 	mov	r8, r3
80104528:	e28d9f56 	add	r9, sp, #344	; 0x158
8010452c:	e3a0200a 	mov	r2, #10
80104530:	e3a03000 	mov	r3, #0
80104534:	e1a00006 	mov	r0, r6
80104538:	e1a01007 	mov	r1, r7
8010453c:	ebfff8e9 	bl	801028e8 <__aeabi_uldivmod>
80104540:	e3540000 	cmp	r4, #0
80104544:	e2822030 	add	r2, r2, #48	; 0x30
80104548:	e5492001 	strb	r2, [r9, #-1]
8010454c:	e2888001 	add	r8, r8, #1
80104550:	e2499001 	sub	r9, r9, #1
80104554:	0a00000d 	beq	80104590 <_svfprintf_r+0x15d4>
80104558:	e3570000 	cmp	r7, #0
8010455c:	03560009 	cmpeq	r6, #9
80104560:	83a03001 	movhi	r3, #1
80104564:	93a03000 	movls	r3, #0
80104568:	e59d2078 	ldr	r2, [sp, #120]	; 0x78
8010456c:	e5d22000 	ldrb	r2, [r2]
80104570:	e35200ff 	cmp	r2, #255	; 0xff
80104574:	03a03000 	moveq	r3, #0
80104578:	12033001 	andne	r3, r3, #1
8010457c:	e1520008 	cmp	r2, r8
80104580:	13a03000 	movne	r3, #0
80104584:	02033001 	andeq	r3, r3, #1
80104588:	e3530000 	cmp	r3, #0
8010458c:	1a000397 	bne	801053f0 <_svfprintf_r+0x2434>
80104590:	e1a00006 	mov	r0, r6
80104594:	e1a01007 	mov	r1, r7
80104598:	e3a03000 	mov	r3, #0
8010459c:	e3a0200a 	mov	r2, #10
801045a0:	ebfff8d0 	bl	801028e8 <__aeabi_uldivmod>
801045a4:	e1a06000 	mov	r6, r0
801045a8:	e1a07001 	mov	r7, r1
801045ac:	e1963007 	orrs	r3, r6, r7
801045b0:	1affffdd 	bne	8010452c <_svfprintf_r+0x1570>
801045b4:	e1a04005 	mov	r4, r5
801045b8:	e59d3018 	ldr	r3, [sp, #24]
801045bc:	e0433009 	sub	r3, r3, r9
801045c0:	e1a0500b 	mov	r5, fp
801045c4:	e58d8050 	str	r8, [sp, #80]	; 0x50
801045c8:	e59db028 	ldr	fp, [sp, #40]	; 0x28
801045cc:	e1a08004 	mov	r8, r4
801045d0:	e58d3028 	str	r3, [sp, #40]	; 0x28
801045d4:	eafffb91 	b	80103420 <_svfprintf_r+0x464>
801045d8:	e3a01040 	mov	r1, #64	; 0x40
801045dc:	e59d0020 	ldr	r0, [sp, #32]
801045e0:	eb000b74 	bl	801073b8 <_malloc_r>
801045e4:	e59d3024 	ldr	r3, [sp, #36]	; 0x24
801045e8:	e3500000 	cmp	r0, #0
801045ec:	e5830000 	str	r0, [r3]
801045f0:	e5830010 	str	r0, [r3, #16]
801045f4:	0a00041c 	beq	8010566c <_svfprintf_r+0x26b0>
801045f8:	e3a03040 	mov	r3, #64	; 0x40
801045fc:	e59d2024 	ldr	r2, [sp, #36]	; 0x24
80104600:	e5823014 	str	r3, [r2, #20]
80104604:	eafffa7f 	b	80103008 <_svfprintf_r+0x4c>
80104608:	e28d0020 	add	r0, sp, #32
8010460c:	e28d20a8 	add	r2, sp, #168	; 0xa8
80104610:	e8900003 	ldm	r0, {r0, r1}
80104614:	eb0011c9 	bl	80108d40 <__ssprint_r>
80104618:	e3500000 	cmp	r0, #0
8010461c:	1afffb21 	bne	801032a8 <_svfprintf_r+0x2ec>
80104620:	e28d30ac 	add	r3, sp, #172	; 0xac
80104624:	e8930018 	ldm	r3, {r3, r4}
80104628:	e28db0bc 	add	fp, sp, #188	; 0xbc
8010462c:	e2833001 	add	r3, r3, #1
80104630:	e28d60b4 	add	r6, sp, #180	; 0xb4
80104634:	eafffea3 	b	801040c8 <_svfprintf_r+0x110c>
80104638:	e28d0020 	add	r0, sp, #32
8010463c:	e28d20a8 	add	r2, sp, #168	; 0xa8
80104640:	e8900003 	ldm	r0, {r0, r1}
80104644:	eb0011bd 	bl	80108d40 <__ssprint_r>
80104648:	e3500000 	cmp	r0, #0
8010464c:	1afffb15 	bne	801032a8 <_svfprintf_r+0x2ec>
80104650:	e28db0b4 	add	fp, sp, #180	; 0xb4
80104654:	e59d40b0 	ldr	r4, [sp, #176]	; 0xb0
80104658:	eafffddb 	b	80103dcc <_svfprintf_r+0xe10>
8010465c:	e3550006 	cmp	r5, #6
80104660:	31a03005 	movcc	r3, r5
80104664:	23a03006 	movcs	r3, #6
80104668:	e1a05009 	mov	r5, r9
8010466c:	e58d9058 	str	r9, [sp, #88]	; 0x58
80104670:	e58d9054 	str	r9, [sp, #84]	; 0x54
80104674:	e58d904c 	str	r9, [sp, #76]	; 0x4c
80104678:	e58d9038 	str	r9, [sp, #56]	; 0x38
8010467c:	e1a02009 	mov	r2, r9
80104680:	e58d3018 	str	r3, [sp, #24]
80104684:	e58d4034 	str	r4, [sp, #52]	; 0x34
80104688:	e58d3028 	str	r3, [sp, #40]	; 0x28
8010468c:	e51f921c 	ldr	r9, [pc, #-540]	; 80104478 <_svfprintf_r+0x14bc>
80104690:	eafffb6c 	b	80103448 <_svfprintf_r+0x48c>
80104694:	e28d0020 	add	r0, sp, #32
80104698:	e28d20a8 	add	r2, sp, #168	; 0xa8
8010469c:	e8900003 	ldm	r0, {r0, r1}
801046a0:	eb0011a6 	bl	80108d40 <__ssprint_r>
801046a4:	e3500000 	cmp	r0, #0
801046a8:	1afffafe 	bne	801032a8 <_svfprintf_r+0x2ec>
801046ac:	e28db0b4 	add	fp, sp, #180	; 0xb4
801046b0:	e5dd208b 	ldrb	r2, [sp, #139]	; 0x8b
801046b4:	e59d40b0 	ldr	r4, [sp, #176]	; 0xb0
801046b8:	eafffbac 	b	80103570 <_svfprintf_r+0x5b4>
801046bc:	e1a04002 	mov	r4, r2
801046c0:	e2833001 	add	r3, r3, #1
801046c4:	e3530007 	cmp	r3, #7
801046c8:	e58d30ac 	str	r3, [sp, #172]	; 0xac
801046cc:	e51f3244 	ldr	r3, [pc, #-580]	; 80104490 <_svfprintf_r+0x14d4>
801046d0:	e0844005 	add	r4, r4, r5
801046d4:	e88b0028 	stm	fp, {r3, r5}
801046d8:	e58d40b0 	str	r4, [sp, #176]	; 0xb0
801046dc:	d28bb008 	addle	fp, fp, #8
801046e0:	da000007 	ble	80104704 <_svfprintf_r+0x1748>
801046e4:	e28d0020 	add	r0, sp, #32
801046e8:	e28d20a8 	add	r2, sp, #168	; 0xa8
801046ec:	e8900003 	ldm	r0, {r0, r1}
801046f0:	eb001192 	bl	80108d40 <__ssprint_r>
801046f4:	e3500000 	cmp	r0, #0
801046f8:	1afffaea 	bne	801032a8 <_svfprintf_r+0x2ec>
801046fc:	e59d40b0 	ldr	r4, [sp, #176]	; 0xb0
80104700:	e28db0b4 	add	fp, sp, #180	; 0xb4
80104704:	e59d304c 	ldr	r3, [sp, #76]	; 0x4c
80104708:	e3180b01 	tst	r8, #1024	; 0x400
8010470c:	e0897003 	add	r7, r9, r3
80104710:	1a00008c 	bne	80104948 <_svfprintf_r+0x198c>
80104714:	e59d3090 	ldr	r3, [sp, #144]	; 0x90
80104718:	e59d2050 	ldr	r2, [sp, #80]	; 0x50
8010471c:	e1530002 	cmp	r3, r2
80104720:	ba000035 	blt	801047fc <_svfprintf_r+0x1840>
80104724:	e3180001 	tst	r8, #1
80104728:	1a000033 	bne	801047fc <_svfprintf_r+0x1840>
8010472c:	e59d2050 	ldr	r2, [sp, #80]	; 0x50
80104730:	e0895002 	add	r5, r9, r2
80104734:	e0455007 	sub	r5, r5, r7
80104738:	e0423003 	sub	r3, r2, r3
8010473c:	e1530005 	cmp	r3, r5
80104740:	b1a05003 	movlt	r5, r3
80104744:	e3550000 	cmp	r5, #0
80104748:	da000009 	ble	80104774 <_svfprintf_r+0x17b8>
8010474c:	e59d20ac 	ldr	r2, [sp, #172]	; 0xac
80104750:	e2822001 	add	r2, r2, #1
80104754:	e0844005 	add	r4, r4, r5
80104758:	e3520007 	cmp	r2, #7
8010475c:	e58b7000 	str	r7, [fp]
80104760:	e58b5004 	str	r5, [fp, #4]
80104764:	e58d40b0 	str	r4, [sp, #176]	; 0xb0
80104768:	e58d20ac 	str	r2, [sp, #172]	; 0xac
8010476c:	d28bb008 	addle	fp, fp, #8
80104770:	ca0002e6 	bgt	80105310 <_svfprintf_r+0x2354>
80104774:	e3550000 	cmp	r5, #0
80104778:	b1a05003 	movlt	r5, r3
8010477c:	a0435005 	subge	r5, r3, r5
80104780:	e3550000 	cmp	r5, #0
80104784:	dafffbdc 	ble	801036fc <_svfprintf_r+0x740>
80104788:	e3550010 	cmp	r5, #16
8010478c:	e59d30ac 	ldr	r3, [sp, #172]	; 0xac
80104790:	da000042 	ble	801048a0 <_svfprintf_r+0x18e4>
80104794:	e28d7020 	add	r7, sp, #32
80104798:	e3a06010 	mov	r6, #16
8010479c:	e8970280 	ldm	r7, {r7, r9}
801047a0:	ea000002 	b	801047b0 <_svfprintf_r+0x17f4>
801047a4:	e2455010 	sub	r5, r5, #16
801047a8:	e3550010 	cmp	r5, #16
801047ac:	da00003b 	ble	801048a0 <_svfprintf_r+0x18e4>
801047b0:	e2833001 	add	r3, r3, #1
801047b4:	e51f232c 	ldr	r2, [pc, #-812]	; 80104490 <_svfprintf_r+0x14d4>
801047b8:	e3530007 	cmp	r3, #7
801047bc:	e2844010 	add	r4, r4, #16
801047c0:	e88b0044 	stm	fp, {r2, r6}
801047c4:	e58d30ac 	str	r3, [sp, #172]	; 0xac
801047c8:	e58d40b0 	str	r4, [sp, #176]	; 0xb0
801047cc:	d28bb008 	addle	fp, fp, #8
801047d0:	dafffff3 	ble	801047a4 <_svfprintf_r+0x17e8>
801047d4:	e28d20a8 	add	r2, sp, #168	; 0xa8
801047d8:	e1a01009 	mov	r1, r9
801047dc:	e1a00007 	mov	r0, r7
801047e0:	eb001156 	bl	80108d40 <__ssprint_r>
801047e4:	e3500000 	cmp	r0, #0
801047e8:	1afffaae 	bne	801032a8 <_svfprintf_r+0x2ec>
801047ec:	e28d30ac 	add	r3, sp, #172	; 0xac
801047f0:	e28db0b4 	add	fp, sp, #180	; 0xb4
801047f4:	e8930018 	ldm	r3, {r3, r4}
801047f8:	eaffffe9 	b	801047a4 <_svfprintf_r+0x17e8>
801047fc:	e59d20ac 	ldr	r2, [sp, #172]	; 0xac
80104800:	e59d106c 	ldr	r1, [sp, #108]	; 0x6c
80104804:	e2822001 	add	r2, r2, #1
80104808:	e59d0074 	ldr	r0, [sp, #116]	; 0x74
8010480c:	e0844001 	add	r4, r4, r1
80104810:	e3520007 	cmp	r2, #7
80104814:	e88b0003 	stm	fp, {r0, r1}
80104818:	e58d40b0 	str	r4, [sp, #176]	; 0xb0
8010481c:	e58d20ac 	str	r2, [sp, #172]	; 0xac
80104820:	d28bb008 	addle	fp, fp, #8
80104824:	daffffc0 	ble	8010472c <_svfprintf_r+0x1770>
80104828:	e28d0020 	add	r0, sp, #32
8010482c:	e28d20a8 	add	r2, sp, #168	; 0xa8
80104830:	e8900003 	ldm	r0, {r0, r1}
80104834:	eb001141 	bl	80108d40 <__ssprint_r>
80104838:	e3500000 	cmp	r0, #0
8010483c:	1afffa99 	bne	801032a8 <_svfprintf_r+0x2ec>
80104840:	e28db0b4 	add	fp, sp, #180	; 0xb4
80104844:	e59d3090 	ldr	r3, [sp, #144]	; 0x90
80104848:	e59d40b0 	ldr	r4, [sp, #176]	; 0xb0
8010484c:	eaffffb6 	b	8010472c <_svfprintf_r+0x1770>
80104850:	e28d0020 	add	r0, sp, #32
80104854:	e28d20a8 	add	r2, sp, #168	; 0xa8
80104858:	e8900003 	ldm	r0, {r0, r1}
8010485c:	eb001137 	bl	80108d40 <__ssprint_r>
80104860:	e3500000 	cmp	r0, #0
80104864:	1afffa8f 	bne	801032a8 <_svfprintf_r+0x2ec>
80104868:	e28d60b4 	add	r6, sp, #180	; 0xb4
8010486c:	e59d40b0 	ldr	r4, [sp, #176]	; 0xb0
80104870:	e59d50ac 	ldr	r5, [sp, #172]	; 0xac
80104874:	eafffdfc 	b	8010406c <_svfprintf_r+0x10b0>
80104878:	e28d0020 	add	r0, sp, #32
8010487c:	e28d20a8 	add	r2, sp, #168	; 0xa8
80104880:	e8900003 	ldm	r0, {r0, r1}
80104884:	eb00112d 	bl	80108d40 <__ssprint_r>
80104888:	e3500000 	cmp	r0, #0
8010488c:	1afffa85 	bne	801032a8 <_svfprintf_r+0x2ec>
80104890:	e28d60b4 	add	r6, sp, #180	; 0xb4
80104894:	e59d40b0 	ldr	r4, [sp, #176]	; 0xb0
80104898:	e59d50ac 	ldr	r5, [sp, #172]	; 0xac
8010489c:	eafffde8 	b	80104044 <_svfprintf_r+0x1088>
801048a0:	e2833001 	add	r3, r3, #1
801048a4:	e58d30ac 	str	r3, [sp, #172]	; 0xac
801048a8:	e3530007 	cmp	r3, #7
801048ac:	e51f3424 	ldr	r3, [pc, #-1060]	; 80104490 <_svfprintf_r+0x14d4>
801048b0:	e0844005 	add	r4, r4, r5
801048b4:	e58d40b0 	str	r4, [sp, #176]	; 0xb0
801048b8:	e88b0028 	stm	fp, {r3, r5}
801048bc:	dafffb8d 	ble	801036f8 <_svfprintf_r+0x73c>
801048c0:	eafffe47 	b	801041e4 <_svfprintf_r+0x1228>
801048c4:	e28d0020 	add	r0, sp, #32
801048c8:	e28d20a8 	add	r2, sp, #168	; 0xa8
801048cc:	e8900003 	ldm	r0, {r0, r1}
801048d0:	eb00111a 	bl	80108d40 <__ssprint_r>
801048d4:	e3500000 	cmp	r0, #0
801048d8:	1afffa72 	bne	801032a8 <_svfprintf_r+0x2ec>
801048dc:	e28db0b4 	add	fp, sp, #180	; 0xb4
801048e0:	eafffd29 	b	80103d8c <_svfprintf_r+0xdd0>
801048e4:	e1a04003 	mov	r4, r3
801048e8:	e2862008 	add	r2, r6, #8
801048ec:	e2853001 	add	r3, r5, #1
801048f0:	e51f1468 	ldr	r1, [pc, #-1128]	; 80104490 <_svfprintf_r+0x14d4>
801048f4:	e0844007 	add	r4, r4, r7
801048f8:	e3530007 	cmp	r3, #7
801048fc:	e58d40b0 	str	r4, [sp, #176]	; 0xb0
80104900:	e8860082 	stm	r6, {r1, r7}
80104904:	e58d30ac 	str	r3, [sp, #172]	; 0xac
80104908:	caffff3e 	bgt	80104608 <_svfprintf_r+0x164c>
8010490c:	e2833001 	add	r3, r3, #1
80104910:	e282b008 	add	fp, r2, #8
80104914:	e1a06002 	mov	r6, r2
80104918:	eafffdea 	b	801040c8 <_svfprintf_r+0x110c>
8010491c:	e59d201c 	ldr	r2, [sp, #28]
80104920:	e5832000 	str	r2, [r3]
80104924:	eafffbb5 	b	80103800 <_svfprintf_r+0x844>
80104928:	e59d30b0 	ldr	r3, [sp, #176]	; 0xb0
8010492c:	e3530000 	cmp	r3, #0
80104930:	0afffa61 	beq	801032bc <_svfprintf_r+0x300>
80104934:	e59d0020 	ldr	r0, [sp, #32]
80104938:	e28d20a8 	add	r2, sp, #168	; 0xa8
8010493c:	e59d1024 	ldr	r1, [sp, #36]	; 0x24
80104940:	eb0010fe 	bl	80108d40 <__ssprint_r>
80104944:	eafffa5c 	b	801032bc <_svfprintf_r+0x300>
80104948:	e28d3054 	add	r3, sp, #84	; 0x54
8010494c:	e8930048 	ldm	r3, {r3, r6}
80104950:	e3560000 	cmp	r6, #0
80104954:	d3530000 	cmple	r3, #0
80104958:	e59d3050 	ldr	r3, [sp, #80]	; 0x50
8010495c:	e0893003 	add	r3, r9, r3
80104960:	da00033f 	ble	80105664 <_svfprintf_r+0x26a8>
80104964:	e1a0200b 	mov	r2, fp
80104968:	e1a01004 	mov	r1, r4
8010496c:	e1a0b003 	mov	fp, r3
80104970:	e58da03c 	str	sl, [sp, #60]	; 0x3c
80104974:	e58d8040 	str	r8, [sp, #64]	; 0x40
80104978:	e58d9044 	str	r9, [sp, #68]	; 0x44
8010497c:	e59d8078 	ldr	r8, [sp, #120]	; 0x78
80104980:	e59da020 	ldr	sl, [sp, #32]
80104984:	e59d9084 	ldr	r9, [sp, #132]	; 0x84
80104988:	e3560000 	cmp	r6, #0
8010498c:	059d3054 	ldreq	r3, [sp, #84]	; 0x54
80104990:	02433001 	subeq	r3, r3, #1
80104994:	058d3054 	streq	r3, [sp, #84]	; 0x54
80104998:	e59d30ac 	ldr	r3, [sp, #172]	; 0xac
8010499c:	e59d007c 	ldr	r0, [sp, #124]	; 0x7c
801049a0:	e2833001 	add	r3, r3, #1
801049a4:	12466001 	subne	r6, r6, #1
801049a8:	02488001 	subeq	r8, r8, #1
801049ac:	e0811009 	add	r1, r1, r9
801049b0:	e3530007 	cmp	r3, #7
801049b4:	e8820201 	stm	r2, {r0, r9}
801049b8:	e58d10b0 	str	r1, [sp, #176]	; 0xb0
801049bc:	e58d30ac 	str	r3, [sp, #172]	; 0xac
801049c0:	d2822008 	addle	r2, r2, #8
801049c4:	ca00004c 	bgt	80104afc <_svfprintf_r+0x1b40>
801049c8:	e5d83000 	ldrb	r3, [r8]
801049cc:	e04b5007 	sub	r5, fp, r7
801049d0:	e1530005 	cmp	r3, r5
801049d4:	b1a05003 	movlt	r5, r3
801049d8:	e3550000 	cmp	r5, #0
801049dc:	e58db028 	str	fp, [sp, #40]	; 0x28
801049e0:	da00000a 	ble	80104a10 <_svfprintf_r+0x1a54>
801049e4:	e59d30ac 	ldr	r3, [sp, #172]	; 0xac
801049e8:	e2833001 	add	r3, r3, #1
801049ec:	e0811005 	add	r1, r1, r5
801049f0:	e3530007 	cmp	r3, #7
801049f4:	e58d10b0 	str	r1, [sp, #176]	; 0xb0
801049f8:	e5827000 	str	r7, [r2]
801049fc:	e5825004 	str	r5, [r2, #4]
80104a00:	e58d30ac 	str	r3, [sp, #172]	; 0xac
80104a04:	ca000045 	bgt	80104b20 <_svfprintf_r+0x1b64>
80104a08:	e5d83000 	ldrb	r3, [r8]
80104a0c:	e2822008 	add	r2, r2, #8
80104a10:	e3550000 	cmp	r5, #0
80104a14:	b1a05003 	movlt	r5, r3
80104a18:	a0435005 	subge	r5, r3, r5
80104a1c:	e3550000 	cmp	r5, #0
80104a20:	da000026 	ble	80104ac0 <_svfprintf_r+0x1b04>
80104a24:	e3550010 	cmp	r5, #16
80104a28:	e59d00ac 	ldr	r0, [sp, #172]	; 0xac
80104a2c:	da000019 	ble	80104a98 <_svfprintf_r+0x1adc>
80104a30:	e3a04010 	mov	r4, #16
80104a34:	ea000002 	b	80104a44 <_svfprintf_r+0x1a88>
80104a38:	e2455010 	sub	r5, r5, #16
80104a3c:	e3550010 	cmp	r5, #16
80104a40:	da000014 	ble	80104a98 <_svfprintf_r+0x1adc>
80104a44:	e2800001 	add	r0, r0, #1
80104a48:	e51f35c0 	ldr	r3, [pc, #-1472]	; 80104490 <_svfprintf_r+0x14d4>
80104a4c:	e3500007 	cmp	r0, #7
80104a50:	e2811010 	add	r1, r1, #16
80104a54:	e8820018 	stm	r2, {r3, r4}
80104a58:	e58d00ac 	str	r0, [sp, #172]	; 0xac
80104a5c:	e58d10b0 	str	r1, [sp, #176]	; 0xb0
80104a60:	d2822008 	addle	r2, r2, #8
80104a64:	dafffff3 	ble	80104a38 <_svfprintf_r+0x1a7c>
80104a68:	e28d20a8 	add	r2, sp, #168	; 0xa8
80104a6c:	e59d1024 	ldr	r1, [sp, #36]	; 0x24
80104a70:	e1a0000a 	mov	r0, sl
80104a74:	eb0010b1 	bl	80108d40 <__ssprint_r>
80104a78:	e3500000 	cmp	r0, #0
80104a7c:	1afffa09 	bne	801032a8 <_svfprintf_r+0x2ec>
80104a80:	e2455010 	sub	r5, r5, #16
80104a84:	e28d00ac 	add	r0, sp, #172	; 0xac
80104a88:	e3550010 	cmp	r5, #16
80104a8c:	e28d20b4 	add	r2, sp, #180	; 0xb4
80104a90:	e8900003 	ldm	r0, {r0, r1}
80104a94:	caffffea 	bgt	80104a44 <_svfprintf_r+0x1a88>
80104a98:	e2800001 	add	r0, r0, #1
80104a9c:	e51f3614 	ldr	r3, [pc, #-1556]	; 80104490 <_svfprintf_r+0x14d4>
80104aa0:	e0811005 	add	r1, r1, r5
80104aa4:	e3500007 	cmp	r0, #7
80104aa8:	e58d00ac 	str	r0, [sp, #172]	; 0xac
80104aac:	e58d10b0 	str	r1, [sp, #176]	; 0xb0
80104ab0:	e8820028 	stm	r2, {r3, r5}
80104ab4:	ca00014b 	bgt	80104fe8 <_svfprintf_r+0x202c>
80104ab8:	e5d83000 	ldrb	r3, [r8]
80104abc:	e2822008 	add	r2, r2, #8
80104ac0:	e59d0054 	ldr	r0, [sp, #84]	; 0x54
80104ac4:	e3560000 	cmp	r6, #0
80104ac8:	d3500000 	cmple	r0, #0
80104acc:	e0877003 	add	r7, r7, r3
80104ad0:	caffffac 	bgt	80104988 <_svfprintf_r+0x19cc>
80104ad4:	e1a0b002 	mov	fp, r2
80104ad8:	e1a04001 	mov	r4, r1
80104adc:	e58d8078 	str	r8, [sp, #120]	; 0x78
80104ae0:	e59da03c 	ldr	sl, [sp, #60]	; 0x3c
80104ae4:	e59d8040 	ldr	r8, [sp, #64]	; 0x40
80104ae8:	e59d9044 	ldr	r9, [sp, #68]	; 0x44
80104aec:	e59d3028 	ldr	r3, [sp, #40]	; 0x28
80104af0:	e1570003 	cmp	r7, r3
80104af4:	21a07003 	movcs	r7, r3
80104af8:	eaffff05 	b	80104714 <_svfprintf_r+0x1758>
80104afc:	e28d20a8 	add	r2, sp, #168	; 0xa8
80104b00:	e59d1024 	ldr	r1, [sp, #36]	; 0x24
80104b04:	e1a0000a 	mov	r0, sl
80104b08:	eb00108c 	bl	80108d40 <__ssprint_r>
80104b0c:	e3500000 	cmp	r0, #0
80104b10:	1afff9e4 	bne	801032a8 <_svfprintf_r+0x2ec>
80104b14:	e28d20b4 	add	r2, sp, #180	; 0xb4
80104b18:	e59d10b0 	ldr	r1, [sp, #176]	; 0xb0
80104b1c:	eaffffa9 	b	801049c8 <_svfprintf_r+0x1a0c>
80104b20:	e28d20a8 	add	r2, sp, #168	; 0xa8
80104b24:	e59d1024 	ldr	r1, [sp, #36]	; 0x24
80104b28:	e1a0000a 	mov	r0, sl
80104b2c:	eb001083 	bl	80108d40 <__ssprint_r>
80104b30:	e3500000 	cmp	r0, #0
80104b34:	1afff9db 	bne	801032a8 <_svfprintf_r+0x2ec>
80104b38:	e28d20b4 	add	r2, sp, #180	; 0xb4
80104b3c:	e5d83000 	ldrb	r3, [r8]
80104b40:	e59d10b0 	ldr	r1, [sp, #176]	; 0xb0
80104b44:	eaffffb1 	b	80104a10 <_svfprintf_r+0x1a54>
80104b48:	e1a00009 	mov	r0, r9
80104b4c:	eb00102b 	bl	80108c00 <strlen>
80104b50:	e1a05006 	mov	r5, r6
80104b54:	e58d0028 	str	r0, [sp, #40]	; 0x28
80104b58:	e58d4034 	str	r4, [sp, #52]	; 0x34
80104b5c:	e1c03fc0 	bic	r3, r0, r0, asr #31
80104b60:	eafffbd8 	b	80103ac8 <_svfprintf_r+0xb0c>
80104b64:	e3750001 	cmn	r5, #1
80104b68:	e3883c01 	orr	r3, r8, #256	; 0x100
80104b6c:	e59d605c 	ldr	r6, [sp, #92]	; 0x5c
80104b70:	0a00009b 	beq	80104de4 <_svfprintf_r+0x1e28>
80104b74:	e59d2018 	ldr	r2, [sp, #24]
80104b78:	e3520047 	cmp	r2, #71	; 0x47
80104b7c:	1a000255 	bne	801054d8 <_svfprintf_r+0x251c>
80104b80:	e3550000 	cmp	r5, #0
80104b84:	e58d803c 	str	r8, [sp, #60]	; 0x3c
80104b88:	158d0038 	strne	r0, [sp, #56]	; 0x38
80104b8c:	11a08003 	movne	r8, r3
80104b90:	058d5038 	streq	r5, [sp, #56]	; 0x38
80104b94:	01a08003 	moveq	r8, r3
80104b98:	03a05001 	moveq	r5, #1
80104b9c:	e3560000 	cmp	r6, #0
80104ba0:	ba000126 	blt	80105040 <_svfprintf_r+0x2084>
80104ba4:	e3a03000 	mov	r3, #0
80104ba8:	e28d605c 	add	r6, sp, #92	; 0x5c
80104bac:	e89600c0 	ldm	r6, {r6, r7}
80104bb0:	e58d3040 	str	r3, [sp, #64]	; 0x40
80104bb4:	e59d3018 	ldr	r3, [sp, #24]
80104bb8:	e3530041 	cmp	r3, #65	; 0x41
80104bbc:	0a000145 	beq	801050d8 <_svfprintf_r+0x211c>
80104bc0:	e59d3018 	ldr	r3, [sp, #24]
80104bc4:	e3530046 	cmp	r3, #70	; 0x46
80104bc8:	0a000122 	beq	80105058 <_svfprintf_r+0x209c>
80104bcc:	e3530045 	cmp	r3, #69	; 0x45
80104bd0:	e1a02007 	mov	r2, r7
80104bd4:	e3a00002 	mov	r0, #2
80104bd8:	e1a03006 	mov	r3, r6
80104bdc:	1a00022e 	bne	8010549c <_svfprintf_r+0x24e0>
80104be0:	e28d10a0 	add	r1, sp, #160	; 0xa0
80104be4:	e58d0000 	str	r0, [sp]
80104be8:	e58d1010 	str	r1, [sp, #16]
80104bec:	e28d0094 	add	r0, sp, #148	; 0x94
80104bf0:	e28d1090 	add	r1, sp, #144	; 0x90
80104bf4:	e2854001 	add	r4, r5, #1
80104bf8:	e58d000c 	str	r0, [sp, #12]
80104bfc:	e58d4004 	str	r4, [sp, #4]
80104c00:	e58d1008 	str	r1, [sp, #8]
80104c04:	e59d0020 	ldr	r0, [sp, #32]
80104c08:	eb000360 	bl	80105990 <_dtoa_r>
80104c0c:	e1a09000 	mov	r9, r0
80104c10:	e0894004 	add	r4, r9, r4
80104c14:	e1a01006 	mov	r1, r6
80104c18:	e59d2064 	ldr	r2, [sp, #100]	; 0x64
80104c1c:	e1a00007 	mov	r0, r7
80104c20:	e59d3068 	ldr	r3, [sp, #104]	; 0x68
80104c24:	ebfff6ec 	bl	801027dc <__aeabi_dcmpeq>
80104c28:	e3500000 	cmp	r0, #0
80104c2c:	11a06004 	movne	r6, r4
80104c30:	1a000009 	bne	80104c5c <_svfprintf_r+0x1ca0>
80104c34:	e59d60a0 	ldr	r6, [sp, #160]	; 0xa0
80104c38:	e1560004 	cmp	r6, r4
80104c3c:	2a000006 	bcs	80104c5c <_svfprintf_r+0x1ca0>
80104c40:	e3a02030 	mov	r2, #48	; 0x30
80104c44:	e2863001 	add	r3, r6, #1
80104c48:	e58d30a0 	str	r3, [sp, #160]	; 0xa0
80104c4c:	e5c62000 	strb	r2, [r6]
80104c50:	e59d60a0 	ldr	r6, [sp, #160]	; 0xa0
80104c54:	e1540006 	cmp	r4, r6
80104c58:	8afffff9 	bhi	80104c44 <_svfprintf_r+0x1c88>
80104c5c:	e59d3018 	ldr	r3, [sp, #24]
80104c60:	e3530047 	cmp	r3, #71	; 0x47
80104c64:	e0463009 	sub	r3, r6, r9
80104c68:	e58d3050 	str	r3, [sp, #80]	; 0x50
80104c6c:	e59d3090 	ldr	r3, [sp, #144]	; 0x90
80104c70:	e58d304c 	str	r3, [sp, #76]	; 0x4c
80104c74:	0a000063 	beq	80104e08 <_svfprintf_r+0x1e4c>
80104c78:	e59d3018 	ldr	r3, [sp, #24]
80104c7c:	e3530046 	cmp	r3, #70	; 0x46
80104c80:	1a000068 	bne	80104e28 <_svfprintf_r+0x1e6c>
80104c84:	e59d304c 	ldr	r3, [sp, #76]	; 0x4c
80104c88:	e3530000 	cmp	r3, #0
80104c8c:	da000251 	ble	801055d8 <_svfprintf_r+0x261c>
80104c90:	e3550000 	cmp	r5, #0
80104c94:	1a00022b 	bne	80105548 <_svfprintf_r+0x258c>
80104c98:	e59d303c 	ldr	r3, [sp, #60]	; 0x3c
80104c9c:	e3130001 	tst	r3, #1
80104ca0:	1a000228 	bne	80105548 <_svfprintf_r+0x258c>
80104ca4:	e59d304c 	ldr	r3, [sp, #76]	; 0x4c
80104ca8:	e58d3028 	str	r3, [sp, #40]	; 0x28
80104cac:	e3a03066 	mov	r3, #102	; 0x66
80104cb0:	e58d3044 	str	r3, [sp, #68]	; 0x44
80104cb4:	e59d303c 	ldr	r3, [sp, #60]	; 0x3c
80104cb8:	e3130b01 	tst	r3, #1024	; 0x400
80104cbc:	0a000186 	beq	801052dc <_svfprintf_r+0x2320>
80104cc0:	e3a03000 	mov	r3, #0
80104cc4:	e59d0078 	ldr	r0, [sp, #120]	; 0x78
80104cc8:	e58d3058 	str	r3, [sp, #88]	; 0x58
80104ccc:	e58d3054 	str	r3, [sp, #84]	; 0x54
80104cd0:	e59d204c 	ldr	r2, [sp, #76]	; 0x4c
80104cd4:	e5d03000 	ldrb	r3, [r0]
80104cd8:	ea00000c 	b	80104d10 <_svfprintf_r+0x1d54>
80104cdc:	e1530002 	cmp	r3, r2
80104ce0:	aa00000c 	bge	80104d18 <_svfprintf_r+0x1d5c>
80104ce4:	e5d01001 	ldrb	r1, [r0, #1]
80104ce8:	e3510000 	cmp	r1, #0
80104cec:	e0422003 	sub	r2, r2, r3
80104cf0:	159d3054 	ldrne	r3, [sp, #84]	; 0x54
80104cf4:	12833001 	addne	r3, r3, #1
80104cf8:	158d3054 	strne	r3, [sp, #84]	; 0x54
80104cfc:	11a03001 	movne	r3, r1
80104d00:	059d1058 	ldreq	r1, [sp, #88]	; 0x58
80104d04:	02811001 	addeq	r1, r1, #1
80104d08:	058d1058 	streq	r1, [sp, #88]	; 0x58
80104d0c:	12800001 	addne	r0, r0, #1
80104d10:	e35300ff 	cmp	r3, #255	; 0xff
80104d14:	1afffff0 	bne	80104cdc <_svfprintf_r+0x1d20>
80104d18:	e58d204c 	str	r2, [sp, #76]	; 0x4c
80104d1c:	e28d2054 	add	r2, sp, #84	; 0x54
80104d20:	e892000c 	ldm	r2, {r2, r3}
80104d24:	e59d1028 	ldr	r1, [sp, #40]	; 0x28
80104d28:	e0833002 	add	r3, r3, r2
80104d2c:	e59d2084 	ldr	r2, [sp, #132]	; 0x84
80104d30:	e0221293 	mla	r2, r3, r2, r1
80104d34:	e1c23fc2 	bic	r3, r2, r2, asr #31
80104d38:	e58d0078 	str	r0, [sp, #120]	; 0x78
80104d3c:	e58d2028 	str	r2, [sp, #40]	; 0x28
80104d40:	e58d3018 	str	r3, [sp, #24]
80104d44:	e59d3040 	ldr	r3, [sp, #64]	; 0x40
80104d48:	e3530000 	cmp	r3, #0
80104d4c:	1a000029 	bne	80104df8 <_svfprintf_r+0x1e3c>
80104d50:	e1a05003 	mov	r5, r3
80104d54:	e5dd208b 	ldrb	r2, [sp, #139]	; 0x8b
80104d58:	eafff9ba 	b	80103448 <_svfprintf_r+0x48c>
80104d5c:	e5d26000 	ldrb	r6, [r2]
80104d60:	e3a07000 	mov	r7, #0
80104d64:	e58d3034 	str	r3, [sp, #52]	; 0x34
80104d68:	eafffaaf 	b	8010382c <_svfprintf_r+0x870>
80104d6c:	e59d2034 	ldr	r2, [sp, #52]	; 0x34
80104d70:	e1a04008 	mov	r4, r8
80104d74:	e5d26000 	ldrb	r6, [r2]
80104d78:	e3a07000 	mov	r7, #0
80104d7c:	e3a02001 	mov	r2, #1
80104d80:	e58d3034 	str	r3, [sp, #52]	; 0x34
80104d84:	eafff98d 	b	801033c0 <_svfprintf_r+0x404>
80104d88:	e5d26000 	ldrb	r6, [r2]
80104d8c:	e3a07000 	mov	r7, #0
80104d90:	e58d3034 	str	r3, [sp, #52]	; 0x34
80104d94:	eafffab2 	b	80103864 <_svfprintf_r+0x8a8>
80104d98:	e1d260d0 	ldrsb	r6, [r2]
80104d9c:	e1a07fc6 	asr	r7, r6, #31
80104da0:	e58d3034 	str	r3, [sp, #52]	; 0x34
80104da4:	e1a02006 	mov	r2, r6
80104da8:	e1a03007 	mov	r3, r7
80104dac:	eafff958 	b	80103314 <_svfprintf_r+0x358>
80104db0:	e59d201c 	ldr	r2, [sp, #28]
80104db4:	e1c320b0 	strh	r2, [r3]
80104db8:	eafffa90 	b	80103800 <_svfprintf_r+0x844>
80104dbc:	e2851001 	add	r1, r5, #1
80104dc0:	e59d0020 	ldr	r0, [sp, #32]
80104dc4:	eb00097b 	bl	801073b8 <_malloc_r>
80104dc8:	e2509000 	subs	r9, r0, #0
80104dcc:	0a00022c 	beq	80105684 <_svfprintf_r+0x26c8>
80104dd0:	e3888c01 	orr	r8, r8, #256	; 0x100
80104dd4:	e3888002 	orr	r8, r8, #2
80104dd8:	e59d605c 	ldr	r6, [sp, #92]	; 0x5c
80104ddc:	e58d9038 	str	r9, [sp, #56]	; 0x38
80104de0:	eaffff6d 	b	80104b9c <_svfprintf_r+0x1be0>
80104de4:	e58d803c 	str	r8, [sp, #60]	; 0x3c
80104de8:	e58d0038 	str	r0, [sp, #56]	; 0x38
80104dec:	e1a08003 	mov	r8, r3
80104df0:	e3a05006 	mov	r5, #6
80104df4:	eaffff68 	b	80104b9c <_svfprintf_r+0x1be0>
80104df8:	e3a0202d 	mov	r2, #45	; 0x2d
80104dfc:	e3a05000 	mov	r5, #0
80104e00:	e5cd208b 	strb	r2, [sp, #139]	; 0x8b
80104e04:	eafff991 	b	80103450 <_svfprintf_r+0x494>
80104e08:	e3730003 	cmn	r3, #3
80104e0c:	a1550003 	cmpge	r5, r3
80104e10:	aa000057 	bge	80104f74 <_svfprintf_r+0x1fb8>
80104e14:	e59d3044 	ldr	r3, [sp, #68]	; 0x44
80104e18:	e2433002 	sub	r3, r3, #2
80104e1c:	e58d3044 	str	r3, [sp, #68]	; 0x44
80104e20:	e3c33020 	bic	r3, r3, #32
80104e24:	e58d3018 	str	r3, [sp, #24]
80104e28:	e59d3018 	ldr	r3, [sp, #24]
80104e2c:	e59d2044 	ldr	r2, [sp, #68]	; 0x44
80104e30:	e3530041 	cmp	r3, #65	; 0x41
80104e34:	e59d304c 	ldr	r3, [sp, #76]	; 0x4c
80104e38:	e20220ff 	and	r2, r2, #255	; 0xff
80104e3c:	0282200f 	addeq	r2, r2, #15
80104e40:	e2433001 	sub	r3, r3, #1
80104e44:	020220ff 	andeq	r2, r2, #255	; 0xff
80104e48:	e3530000 	cmp	r3, #0
80104e4c:	e5cd2098 	strb	r2, [sp, #152]	; 0x98
80104e50:	b3a0202d 	movlt	r2, #45	; 0x2d
80104e54:	a3a0202b 	movge	r2, #43	; 0x2b
80104e58:	e58d3090 	str	r3, [sp, #144]	; 0x90
80104e5c:	b59d304c 	ldrlt	r3, [sp, #76]	; 0x4c
80104e60:	b2633001 	rsblt	r3, r3, #1
80104e64:	e3530009 	cmp	r3, #9
80104e68:	c28de0a7 	addgt	lr, sp, #167	; 0xa7
80104e6c:	e5cd2099 	strb	r2, [sp, #153]	; 0x99
80104e70:	c1a0c00e 	movgt	ip, lr
80104e74:	ca000020 	bgt	80104efc <_svfprintf_r+0x1f40>
80104e78:	e59d2018 	ldr	r2, [sp, #24]
80104e7c:	e3520041 	cmp	r2, #65	; 0x41
80104e80:	13a02030 	movne	r2, #48	; 0x30
80104e84:	028d209a 	addeq	r2, sp, #154	; 0x9a
80104e88:	15cd209a 	strbne	r2, [sp, #154]	; 0x9a
80104e8c:	e2833030 	add	r3, r3, #48	; 0x30
80104e90:	128d209b 	addne	r2, sp, #155	; 0x9b
80104e94:	e5c23000 	strb	r3, [r2]
80104e98:	e2823001 	add	r3, r2, #1
80104e9c:	e59d1050 	ldr	r1, [sp, #80]	; 0x50
80104ea0:	e28d2098 	add	r2, sp, #152	; 0x98
80104ea4:	e0433002 	sub	r3, r3, r2
80104ea8:	e58d3080 	str	r3, [sp, #128]	; 0x80
80104eac:	e3510001 	cmp	r1, #1
80104eb0:	e0813003 	add	r3, r1, r3
80104eb4:	e58d3028 	str	r3, [sp, #40]	; 0x28
80104eb8:	da0001ba 	ble	801055a8 <_svfprintf_r+0x25ec>
80104ebc:	e59d3028 	ldr	r3, [sp, #40]	; 0x28
80104ec0:	e59d206c 	ldr	r2, [sp, #108]	; 0x6c
80104ec4:	e0833002 	add	r3, r3, r2
80104ec8:	e58d3028 	str	r3, [sp, #40]	; 0x28
80104ecc:	e3a02000 	mov	r2, #0
80104ed0:	e59d303c 	ldr	r3, [sp, #60]	; 0x3c
80104ed4:	e3c33b01 	bic	r3, r3, #1024	; 0x400
80104ed8:	e3838c01 	orr	r8, r3, #256	; 0x100
80104edc:	e59d3028 	ldr	r3, [sp, #40]	; 0x28
80104ee0:	e1c33fc3 	bic	r3, r3, r3, asr #31
80104ee4:	e58d2058 	str	r2, [sp, #88]	; 0x58
80104ee8:	e58d2054 	str	r2, [sp, #84]	; 0x54
80104eec:	e58d204c 	str	r2, [sp, #76]	; 0x4c
80104ef0:	e58d3018 	str	r3, [sp, #24]
80104ef4:	eaffff92 	b	80104d44 <_svfprintf_r+0x1d88>
80104ef8:	e1a0c002 	mov	ip, r2
80104efc:	e51f2a88 	ldr	r2, [pc, #-2696]	; 8010447c <_svfprintf_r+0x14c0>
80104f00:	e0810293 	umull	r0, r1, r3, r2
80104f04:	e1a011a1 	lsr	r1, r1, #3
80104f08:	e0812101 	add	r2, r1, r1, lsl #2
80104f0c:	e0432082 	sub	r2, r3, r2, lsl #1
80104f10:	e2822030 	add	r2, r2, #48	; 0x30
80104f14:	e3510009 	cmp	r1, #9
80104f18:	e54c2001 	strb	r2, [ip, #-1]
80104f1c:	e1a03001 	mov	r3, r1
80104f20:	e24c2001 	sub	r2, ip, #1
80104f24:	cafffff3 	bgt	80104ef8 <_svfprintf_r+0x1f3c>
80104f28:	e2813030 	add	r3, r1, #48	; 0x30
80104f2c:	e24cc002 	sub	ip, ip, #2
80104f30:	e20330ff 	and	r3, r3, #255	; 0xff
80104f34:	e15e000c 	cmp	lr, ip
80104f38:	e5423001 	strb	r3, [r2, #-1]
80104f3c:	928d309a 	addls	r3, sp, #154	; 0x9a
80104f40:	9affffd5 	bls	80104e9c <_svfprintf_r+0x1ee0>
80104f44:	e28d009a 	add	r0, sp, #154	; 0x9a
80104f48:	e1a01002 	mov	r1, r2
80104f4c:	ea000000 	b	80104f54 <_svfprintf_r+0x1f98>
80104f50:	e4d13001 	ldrb	r3, [r1], #1
80104f54:	e15e0001 	cmp	lr, r1
80104f58:	e4c03001 	strb	r3, [r0], #1
80104f5c:	1afffffb 	bne	80104f50 <_svfprintf_r+0x1f94>
80104f60:	e28d30a8 	add	r3, sp, #168	; 0xa8
80104f64:	e0433002 	sub	r3, r3, r2
80104f68:	e28d209a 	add	r2, sp, #154	; 0x9a
80104f6c:	e0823003 	add	r3, r2, r3
80104f70:	eaffffc9 	b	80104e9c <_svfprintf_r+0x1ee0>
80104f74:	e59d2050 	ldr	r2, [sp, #80]	; 0x50
80104f78:	e59d304c 	ldr	r3, [sp, #76]	; 0x4c
80104f7c:	e1520003 	cmp	r2, r3
80104f80:	ca0000ee 	bgt	80105340 <_svfprintf_r+0x2384>
80104f84:	e59d203c 	ldr	r2, [sp, #60]	; 0x3c
80104f88:	e3120001 	tst	r2, #1
80104f8c:	0a000175 	beq	80105568 <_svfprintf_r+0x25ac>
80104f90:	e59d206c 	ldr	r2, [sp, #108]	; 0x6c
80104f94:	e0833002 	add	r3, r3, r2
80104f98:	e58d3028 	str	r3, [sp, #40]	; 0x28
80104f9c:	e59d303c 	ldr	r3, [sp, #60]	; 0x3c
80104fa0:	e3130b01 	tst	r3, #1024	; 0x400
80104fa4:	0a0000ca 	beq	801052d4 <_svfprintf_r+0x2318>
80104fa8:	e59d304c 	ldr	r3, [sp, #76]	; 0x4c
80104fac:	e3530000 	cmp	r3, #0
80104fb0:	ca0001a8 	bgt	80105658 <_svfprintf_r+0x269c>
80104fb4:	e59d3028 	ldr	r3, [sp, #40]	; 0x28
80104fb8:	e1c33fc3 	bic	r3, r3, r3, asr #31
80104fbc:	e58d3018 	str	r3, [sp, #24]
80104fc0:	e3a03067 	mov	r3, #103	; 0x67
80104fc4:	e58d3044 	str	r3, [sp, #68]	; 0x44
80104fc8:	e3a03000 	mov	r3, #0
80104fcc:	e58d3058 	str	r3, [sp, #88]	; 0x58
80104fd0:	e58d3054 	str	r3, [sp, #84]	; 0x54
80104fd4:	eaffff5a 	b	80104d44 <_svfprintf_r+0x1d88>
80104fd8:	e3a0302d 	mov	r3, #45	; 0x2d
80104fdc:	e1a02003 	mov	r2, r3
80104fe0:	e5cd308b 	strb	r3, [sp, #139]	; 0x8b
80104fe4:	eafffb15 	b	80103c40 <_svfprintf_r+0xc84>
80104fe8:	e28d20a8 	add	r2, sp, #168	; 0xa8
80104fec:	e59d1024 	ldr	r1, [sp, #36]	; 0x24
80104ff0:	e1a0000a 	mov	r0, sl
80104ff4:	eb000f51 	bl	80108d40 <__ssprint_r>
80104ff8:	e3500000 	cmp	r0, #0
80104ffc:	1afff8a9 	bne	801032a8 <_svfprintf_r+0x2ec>
80105000:	e28d20b4 	add	r2, sp, #180	; 0xb4
80105004:	e5d83000 	ldrb	r3, [r8]
80105008:	e59d10b0 	ldr	r1, [sp, #176]	; 0xb0
8010500c:	eafffeab 	b	80104ac0 <_svfprintf_r+0x1b04>
80105010:	e28d0020 	add	r0, sp, #32
80105014:	e28d20a8 	add	r2, sp, #168	; 0xa8
80105018:	e8900003 	ldm	r0, {r0, r1}
8010501c:	eb000f47 	bl	80108d40 <__ssprint_r>
80105020:	e3500000 	cmp	r0, #0
80105024:	1afff89f 	bne	801032a8 <_svfprintf_r+0x2ec>
80105028:	e28db0b4 	add	fp, sp, #180	; 0xb4
8010502c:	e59d40b0 	ldr	r4, [sp, #176]	; 0xb0
80105030:	eafffcba 	b	80104320 <_svfprintf_r+0x1364>
80105034:	e58d803c 	str	r8, [sp, #60]	; 0x3c
80105038:	e1a08003 	mov	r8, r3
8010503c:	e58d0038 	str	r0, [sp, #56]	; 0x38
80105040:	e28d305c 	add	r3, sp, #92	; 0x5c
80105044:	e8930088 	ldm	r3, {r3, r7}
80105048:	e2836102 	add	r6, r3, #-2147483648	; 0x80000000
8010504c:	e3a0302d 	mov	r3, #45	; 0x2d
80105050:	e58d3040 	str	r3, [sp, #64]	; 0x40
80105054:	eafffed6 	b	80104bb4 <_svfprintf_r+0x1bf8>
80105058:	e3a0e003 	mov	lr, #3
8010505c:	e28dc0a0 	add	ip, sp, #160	; 0xa0
80105060:	e28d1090 	add	r1, sp, #144	; 0x90
80105064:	e28d0094 	add	r0, sp, #148	; 0x94
80105068:	e1a02007 	mov	r2, r7
8010506c:	e1a03006 	mov	r3, r6
80105070:	e58de000 	str	lr, [sp]
80105074:	e58dc010 	str	ip, [sp, #16]
80105078:	e58d000c 	str	r0, [sp, #12]
8010507c:	e58d1008 	str	r1, [sp, #8]
80105080:	e58d5004 	str	r5, [sp, #4]
80105084:	e59d0020 	ldr	r0, [sp, #32]
80105088:	eb000240 	bl	80105990 <_dtoa_r>
8010508c:	e1a09000 	mov	r9, r0
80105090:	e5d94000 	ldrb	r4, [r9]
80105094:	e244c030 	sub	ip, r4, #48	; 0x30
80105098:	e27c4000 	rsbs	r4, ip, #0
8010509c:	e59d3068 	ldr	r3, [sp, #104]	; 0x68
801050a0:	e59d2064 	ldr	r2, [sp, #100]	; 0x64
801050a4:	e1a00007 	mov	r0, r7
801050a8:	e1a01006 	mov	r1, r6
801050ac:	e0a4400c 	adc	r4, r4, ip
801050b0:	ebfff5c9 	bl	801027dc <__aeabi_dcmpeq>
801050b4:	e3500000 	cmp	r0, #0
801050b8:	e3a03001 	mov	r3, #1
801050bc:	13a03000 	movne	r3, #0
801050c0:	e1140003 	tst	r4, r3
801050c4:	059d3090 	ldreq	r3, [sp, #144]	; 0x90
801050c8:	1a000156 	bne	80105628 <_svfprintf_r+0x266c>
801050cc:	e0833005 	add	r3, r3, r5
801050d0:	e0894003 	add	r4, r9, r3
801050d4:	eafffece 	b	80104c14 <_svfprintf_r+0x1c58>
801050d8:	e1a00007 	mov	r0, r7
801050dc:	e28d2090 	add	r2, sp, #144	; 0x90
801050e0:	e1a01006 	mov	r1, r6
801050e4:	eb000e9f 	bl	80108b68 <frexp>
801050e8:	e3a02000 	mov	r2, #0
801050ec:	e3a035ff 	mov	r3, #1069547520	; 0x3fc00000
801050f0:	ebfff45f 	bl	80102274 <__aeabi_dmul>
801050f4:	e28d2064 	add	r2, sp, #100	; 0x64
801050f8:	e892000c 	ldm	r2, {r2, r3}
801050fc:	e58d0028 	str	r0, [sp, #40]	; 0x28
80105100:	e58d102c 	str	r1, [sp, #44]	; 0x2c
80105104:	ebfff5b4 	bl	801027dc <__aeabi_dcmpeq>
80105108:	e3500000 	cmp	r0, #0
8010510c:	13a03001 	movne	r3, #1
80105110:	e59d1044 	ldr	r1, [sp, #68]	; 0x44
80105114:	158d3090 	strne	r3, [sp, #144]	; 0x90
80105118:	e51f3ca0 	ldr	r3, [pc, #-3232]	; 80104480 <_svfprintf_r+0x14c4>
8010511c:	e3510061 	cmp	r1, #97	; 0x61
80105120:	e51f2ca4 	ldr	r2, [pc, #-3236]	; 80104484 <_svfprintf_r+0x14c8>
80105124:	01a02003 	moveq	r2, r3
80105128:	e1a08009 	mov	r8, r9
8010512c:	e58da04c 	str	sl, [sp, #76]	; 0x4c
80105130:	e58db050 	str	fp, [sp, #80]	; 0x50
80105134:	e2457001 	sub	r7, r5, #1
80105138:	e28db028 	add	fp, sp, #40	; 0x28
8010513c:	e89b0c00 	ldm	fp, {sl, fp}
80105140:	e58d2048 	str	r2, [sp, #72]	; 0x48
80105144:	e58d9028 	str	r9, [sp, #40]	; 0x28
80105148:	e1a09002 	mov	r9, r2
8010514c:	ea000006 	b	8010516c <_svfprintf_r+0x21b0>
80105150:	e28d2064 	add	r2, sp, #100	; 0x64
80105154:	e892000c 	ldm	r2, {r2, r3}
80105158:	ebfff59f 	bl	801027dc <__aeabi_dcmpeq>
8010515c:	e3500000 	cmp	r0, #0
80105160:	e2477001 	sub	r7, r7, #1
80105164:	1a000017 	bne	801051c8 <_svfprintf_r+0x220c>
80105168:	e1a08006 	mov	r8, r6
8010516c:	e3a02000 	mov	r2, #0
80105170:	e51f3cf0 	ldr	r3, [pc, #-3312]	; 80104488 <_svfprintf_r+0x14cc>
80105174:	e1a0000a 	mov	r0, sl
80105178:	e1a0100b 	mov	r1, fp
8010517c:	ebfff43c 	bl	80102274 <__aeabi_dmul>
80105180:	e1a0b001 	mov	fp, r1
80105184:	e1a0a000 	mov	sl, r0
80105188:	ebfff5bf 	bl	8010288c <__aeabi_d2iz>
8010518c:	e1a05000 	mov	r5, r0
80105190:	ebfff3fe 	bl	80102190 <__aeabi_i2d>
80105194:	e1a02000 	mov	r2, r0
80105198:	e1a03001 	mov	r3, r1
8010519c:	e1a0000a 	mov	r0, sl
801051a0:	e1a0100b 	mov	r1, fp
801051a4:	ebfff32b 	bl	80101e58 <__aeabi_dsub>
801051a8:	e1a06008 	mov	r6, r8
801051ac:	e7d9c005 	ldrb	ip, [r9, r5]
801051b0:	e3770001 	cmn	r7, #1
801051b4:	e1a0a000 	mov	sl, r0
801051b8:	e1a0b001 	mov	fp, r1
801051bc:	e4c6c001 	strb	ip, [r6], #1
801051c0:	e1a04007 	mov	r4, r7
801051c4:	1affffe1 	bne	80105150 <_svfprintf_r+0x2194>
801051c8:	e1a0000a 	mov	r0, sl
801051cc:	e1a0100b 	mov	r1, fp
801051d0:	e3a02000 	mov	r2, #0
801051d4:	e51f3d50 	ldr	r3, [pc, #-3408]	; 8010448c <_svfprintf_r+0x14d0>
801051d8:	e59d9028 	ldr	r9, [sp, #40]	; 0x28
801051dc:	e58d0028 	str	r0, [sp, #40]	; 0x28
801051e0:	e58d102c 	str	r1, [sp, #44]	; 0x2c
801051e4:	ebfff594 	bl	8010283c <__aeabi_dcmpgt>
801051e8:	e28da04c 	add	sl, sp, #76	; 0x4c
801051ec:	e3500000 	cmp	r0, #0
801051f0:	e89a0c00 	ldm	sl, {sl, fp}
801051f4:	1a000067 	bne	80105398 <_svfprintf_r+0x23dc>
801051f8:	e28d1028 	add	r1, sp, #40	; 0x28
801051fc:	e8910003 	ldm	r1, {r0, r1}
80105200:	e3a02000 	mov	r2, #0
80105204:	e51f3d80 	ldr	r3, [pc, #-3456]	; 8010448c <_svfprintf_r+0x14d0>
80105208:	ebfff573 	bl	801027dc <__aeabi_dcmpeq>
8010520c:	e3500000 	cmp	r0, #0
80105210:	0a000001 	beq	8010521c <_svfprintf_r+0x2260>
80105214:	e3150001 	tst	r5, #1
80105218:	1a00005e 	bne	80105398 <_svfprintf_r+0x23dc>
8010521c:	e3540000 	cmp	r4, #0
80105220:	a2843001 	addge	r3, r4, #1
80105224:	a3a02030 	movge	r2, #48	; 0x30
80105228:	a0863003 	addge	r3, r6, r3
8010522c:	ba000002 	blt	8010523c <_svfprintf_r+0x2280>
80105230:	e4c62001 	strb	r2, [r6], #1
80105234:	e1530006 	cmp	r3, r6
80105238:	1afffffc 	bne	80105230 <_svfprintf_r+0x2274>
8010523c:	e0463009 	sub	r3, r6, r9
80105240:	e58d3050 	str	r3, [sp, #80]	; 0x50
80105244:	e59d3090 	ldr	r3, [sp, #144]	; 0x90
80105248:	e58d304c 	str	r3, [sp, #76]	; 0x4c
8010524c:	eafffef5 	b	80104e28 <_svfprintf_r+0x1e6c>
80105250:	e28d0020 	add	r0, sp, #32
80105254:	e28d20a8 	add	r2, sp, #168	; 0xa8
80105258:	e8900003 	ldm	r0, {r0, r1}
8010525c:	eb000eb7 	bl	80108d40 <__ssprint_r>
80105260:	e3500000 	cmp	r0, #0
80105264:	1afff80f 	bne	801032a8 <_svfprintf_r+0x2ec>
80105268:	e28db0b4 	add	fp, sp, #180	; 0xb4
8010526c:	e59d5090 	ldr	r5, [sp, #144]	; 0x90
80105270:	e59d40b0 	ldr	r4, [sp, #176]	; 0xb0
80105274:	eafffbc1 	b	80104180 <_svfprintf_r+0x11c4>
80105278:	e28d0020 	add	r0, sp, #32
8010527c:	e28d20a8 	add	r2, sp, #168	; 0xa8
80105280:	e8900003 	ldm	r0, {r0, r1}
80105284:	eb000ead 	bl	80108d40 <__ssprint_r>
80105288:	e3500000 	cmp	r0, #0
8010528c:	1afff805 	bne	801032a8 <_svfprintf_r+0x2ec>
80105290:	e28d30ac 	add	r3, sp, #172	; 0xac
80105294:	e8930018 	ldm	r3, {r3, r4}
80105298:	e28d60b4 	add	r6, sp, #180	; 0xb4
8010529c:	e2833001 	add	r3, r3, #1
801052a0:	e28db0bc 	add	fp, sp, #188	; 0xbc
801052a4:	eafffb87 	b	801040c8 <_svfprintf_r+0x110c>
801052a8:	e28d0020 	add	r0, sp, #32
801052ac:	e28d20a8 	add	r2, sp, #168	; 0xa8
801052b0:	e8900003 	ldm	r0, {r0, r1}
801052b4:	eb000ea1 	bl	80108d40 <__ssprint_r>
801052b8:	e3500000 	cmp	r0, #0
801052bc:	1afff7f9 	bne	801032a8 <_svfprintf_r+0x2ec>
801052c0:	e28d30ac 	add	r3, sp, #172	; 0xac
801052c4:	e28db0b4 	add	fp, sp, #180	; 0xb4
801052c8:	e59d5090 	ldr	r5, [sp, #144]	; 0x90
801052cc:	e8930018 	ldm	r3, {r3, r4}
801052d0:	eafffbb8 	b	801041b8 <_svfprintf_r+0x11fc>
801052d4:	e3a03067 	mov	r3, #103	; 0x67
801052d8:	e58d3044 	str	r3, [sp, #68]	; 0x44
801052dc:	e59d3028 	ldr	r3, [sp, #40]	; 0x28
801052e0:	e1c33fc3 	bic	r3, r3, r3, asr #31
801052e4:	e58d3018 	str	r3, [sp, #24]
801052e8:	eaffff36 	b	80104fc8 <_svfprintf_r+0x200c>
801052ec:	e58d5018 	str	r5, [sp, #24]
801052f0:	e58d5028 	str	r5, [sp, #40]	; 0x28
801052f4:	e58d4034 	str	r4, [sp, #52]	; 0x34
801052f8:	e1a05000 	mov	r5, r0
801052fc:	e58d0058 	str	r0, [sp, #88]	; 0x58
80105300:	e58d0054 	str	r0, [sp, #84]	; 0x54
80105304:	e58d004c 	str	r0, [sp, #76]	; 0x4c
80105308:	e5dd208b 	ldrb	r2, [sp, #139]	; 0x8b
8010530c:	eafff84d 	b	80103448 <_svfprintf_r+0x48c>
80105310:	e28d0020 	add	r0, sp, #32
80105314:	e28d20a8 	add	r2, sp, #168	; 0xa8
80105318:	e8900003 	ldm	r0, {r0, r1}
8010531c:	eb000e87 	bl	80108d40 <__ssprint_r>
80105320:	e3500000 	cmp	r0, #0
80105324:	1afff7df 	bne	801032a8 <_svfprintf_r+0x2ec>
80105328:	e59d3090 	ldr	r3, [sp, #144]	; 0x90
8010532c:	e59d2050 	ldr	r2, [sp, #80]	; 0x50
80105330:	e28db0b4 	add	fp, sp, #180	; 0xb4
80105334:	e59d40b0 	ldr	r4, [sp, #176]	; 0xb0
80105338:	e0423003 	sub	r3, r2, r3
8010533c:	eafffd0c 	b	80104774 <_svfprintf_r+0x17b8>
80105340:	e59d304c 	ldr	r3, [sp, #76]	; 0x4c
80105344:	e59d206c 	ldr	r2, [sp, #108]	; 0x6c
80105348:	e3530000 	cmp	r3, #0
8010534c:	e59d3050 	ldr	r3, [sp, #80]	; 0x50
80105350:	e0833002 	add	r3, r3, r2
80105354:	e58d3028 	str	r3, [sp, #40]	; 0x28
80105358:	c3a03067 	movgt	r3, #103	; 0x67
8010535c:	c58d3044 	strgt	r3, [sp, #68]	; 0x44
80105360:	cafffe53 	bgt	80104cb4 <_svfprintf_r+0x1cf8>
80105364:	e59d304c 	ldr	r3, [sp, #76]	; 0x4c
80105368:	e59d2028 	ldr	r2, [sp, #40]	; 0x28
8010536c:	e2633001 	rsb	r3, r3, #1
80105370:	e0823003 	add	r3, r2, r3
80105374:	e58d3028 	str	r3, [sp, #40]	; 0x28
80105378:	e1c33fc3 	bic	r3, r3, r3, asr #31
8010537c:	e58d3018 	str	r3, [sp, #24]
80105380:	e3a03067 	mov	r3, #103	; 0x67
80105384:	e58d3044 	str	r3, [sp, #68]	; 0x44
80105388:	eaffff0e 	b	80104fc8 <_svfprintf_r+0x200c>
8010538c:	e3180001 	tst	r8, #1
80105390:	0afff8d9 	beq	801036fc <_svfprintf_r+0x740>
80105394:	eafffb7c 	b	8010418c <_svfprintf_r+0x11d0>
80105398:	e59d3048 	ldr	r3, [sp, #72]	; 0x48
8010539c:	e58d80a0 	str	r8, [sp, #160]	; 0xa0
801053a0:	e5d3100f 	ldrb	r1, [r3, #15]
801053a4:	e5562001 	ldrb	r2, [r6, #-1]
801053a8:	e1510002 	cmp	r1, r2
801053ac:	e1a03006 	mov	r3, r6
801053b0:	1a000007 	bne	801053d4 <_svfprintf_r+0x2418>
801053b4:	e3a00030 	mov	r0, #48	; 0x30
801053b8:	e5430001 	strb	r0, [r3, #-1]
801053bc:	e59d30a0 	ldr	r3, [sp, #160]	; 0xa0
801053c0:	e2432001 	sub	r2, r3, #1
801053c4:	e58d20a0 	str	r2, [sp, #160]	; 0xa0
801053c8:	e5532001 	ldrb	r2, [r3, #-1]
801053cc:	e1510002 	cmp	r1, r2
801053d0:	0afffff8 	beq	801053b8 <_svfprintf_r+0x23fc>
801053d4:	e3520039 	cmp	r2, #57	; 0x39
801053d8:	059d2048 	ldreq	r2, [sp, #72]	; 0x48
801053dc:	12822001 	addne	r2, r2, #1
801053e0:	05d2200a 	ldrbeq	r2, [r2, #10]
801053e4:	120220ff 	andne	r2, r2, #255	; 0xff
801053e8:	e5432001 	strb	r2, [r3, #-1]
801053ec:	eaffff92 	b	8010523c <_svfprintf_r+0x2280>
801053f0:	e59d3084 	ldr	r3, [sp, #132]	; 0x84
801053f4:	e0499003 	sub	r9, r9, r3
801053f8:	e1a02003 	mov	r2, r3
801053fc:	e1a00009 	mov	r0, r9
80105400:	e59d107c 	ldr	r1, [sp, #124]	; 0x7c
80105404:	eb000e15 	bl	80108c60 <strncpy>
80105408:	e59d3078 	ldr	r3, [sp, #120]	; 0x78
8010540c:	e5d38001 	ldrb	r8, [r3, #1]
80105410:	e3580000 	cmp	r8, #0
80105414:	12833001 	addne	r3, r3, #1
80105418:	158d3078 	strne	r3, [sp, #120]	; 0x78
8010541c:	13a08000 	movne	r8, #0
80105420:	eafffc5a 	b	80104590 <_svfprintf_r+0x15d4>
80105424:	e3750010 	cmn	r5, #16
80105428:	e2655000 	rsb	r5, r5, #0
8010542c:	aa000032 	bge	801054fc <_svfprintf_r+0x2540>
80105430:	e1a02004 	mov	r2, r4
80105434:	e3a06010 	mov	r6, #16
80105438:	e59d7020 	ldr	r7, [sp, #32]
8010543c:	e59d4024 	ldr	r4, [sp, #36]	; 0x24
80105440:	ea000002 	b	80105450 <_svfprintf_r+0x2494>
80105444:	e2455010 	sub	r5, r5, #16
80105448:	e3550010 	cmp	r5, #16
8010544c:	da000029 	ble	801054f8 <_svfprintf_r+0x253c>
80105450:	e2833001 	add	r3, r3, #1
80105454:	e51f1fcc 	ldr	r1, [pc, #-4044]	; 80104490 <_svfprintf_r+0x14d4>
80105458:	e3530007 	cmp	r3, #7
8010545c:	e2822010 	add	r2, r2, #16
80105460:	e88b0042 	stm	fp, {r1, r6}
80105464:	e58d30ac 	str	r3, [sp, #172]	; 0xac
80105468:	e58d20b0 	str	r2, [sp, #176]	; 0xb0
8010546c:	d28bb008 	addle	fp, fp, #8
80105470:	dafffff3 	ble	80105444 <_svfprintf_r+0x2488>
80105474:	e28d20a8 	add	r2, sp, #168	; 0xa8
80105478:	e1a01004 	mov	r1, r4
8010547c:	e1a00007 	mov	r0, r7
80105480:	eb000e2e 	bl	80108d40 <__ssprint_r>
80105484:	e3500000 	cmp	r0, #0
80105488:	1afff786 	bne	801032a8 <_svfprintf_r+0x2ec>
8010548c:	e28db0b4 	add	fp, sp, #180	; 0xb4
80105490:	e59d20b0 	ldr	r2, [sp, #176]	; 0xb0
80105494:	e59d30ac 	ldr	r3, [sp, #172]	; 0xac
80105498:	eaffffe9 	b	80105444 <_svfprintf_r+0x2488>
8010549c:	e28d10a0 	add	r1, sp, #160	; 0xa0
801054a0:	e88d0021 	stm	sp, {r0, r5}
801054a4:	e58d1010 	str	r1, [sp, #16]
801054a8:	e28d0094 	add	r0, sp, #148	; 0x94
801054ac:	e28d1090 	add	r1, sp, #144	; 0x90
801054b0:	e58d000c 	str	r0, [sp, #12]
801054b4:	e58d1008 	str	r1, [sp, #8]
801054b8:	e59d0020 	ldr	r0, [sp, #32]
801054bc:	eb000133 	bl	80105990 <_dtoa_r>
801054c0:	e59d3018 	ldr	r3, [sp, #24]
801054c4:	e3530047 	cmp	r3, #71	; 0x47
801054c8:	e1a09000 	mov	r9, r0
801054cc:	0a00003b 	beq	801055c0 <_svfprintf_r+0x2604>
801054d0:	e1a04005 	mov	r4, r5
801054d4:	eafffdcd 	b	80104c10 <_svfprintf_r+0x1c54>
801054d8:	e3560000 	cmp	r6, #0
801054dc:	bafffed4 	blt	80105034 <_svfprintf_r+0x2078>
801054e0:	e58d803c 	str	r8, [sp, #60]	; 0x3c
801054e4:	e58d0040 	str	r0, [sp, #64]	; 0x40
801054e8:	e1a08003 	mov	r8, r3
801054ec:	e58d0038 	str	r0, [sp, #56]	; 0x38
801054f0:	e59d7060 	ldr	r7, [sp, #96]	; 0x60
801054f4:	eafffdb1 	b	80104bc0 <_svfprintf_r+0x1c04>
801054f8:	e1a04002 	mov	r4, r2
801054fc:	e2833001 	add	r3, r3, #1
80105500:	e59f2190 	ldr	r2, [pc, #400]	; 80105698 <_svfprintf_r+0x26dc>
80105504:	e3530007 	cmp	r3, #7
80105508:	e0844005 	add	r4, r4, r5
8010550c:	e88b0024 	stm	fp, {r2, r5}
80105510:	e58d30ac 	str	r3, [sp, #172]	; 0xac
80105514:	e58d40b0 	str	r4, [sp, #176]	; 0xb0
80105518:	d28bb008 	addle	fp, fp, #8
8010551c:	dafffb27 	ble	801041c0 <_svfprintf_r+0x1204>
80105520:	e28d0020 	add	r0, sp, #32
80105524:	e28d20a8 	add	r2, sp, #168	; 0xa8
80105528:	e8900003 	ldm	r0, {r0, r1}
8010552c:	eb000e03 	bl	80108d40 <__ssprint_r>
80105530:	e3500000 	cmp	r0, #0
80105534:	1afff75b 	bne	801032a8 <_svfprintf_r+0x2ec>
80105538:	e28d30ac 	add	r3, sp, #172	; 0xac
8010553c:	e28db0b4 	add	fp, sp, #180	; 0xb4
80105540:	e8930018 	ldm	r3, {r3, r4}
80105544:	eafffb1d 	b	801041c0 <_svfprintf_r+0x1204>
80105548:	e59d304c 	ldr	r3, [sp, #76]	; 0x4c
8010554c:	e59d206c 	ldr	r2, [sp, #108]	; 0x6c
80105550:	e0837002 	add	r7, r3, r2
80105554:	e0873005 	add	r3, r7, r5
80105558:	e58d3028 	str	r3, [sp, #40]	; 0x28
8010555c:	e3a03066 	mov	r3, #102	; 0x66
80105560:	e58d3044 	str	r3, [sp, #68]	; 0x44
80105564:	eafffdd2 	b	80104cb4 <_svfprintf_r+0x1cf8>
80105568:	e59d304c 	ldr	r3, [sp, #76]	; 0x4c
8010556c:	e58d3028 	str	r3, [sp, #40]	; 0x28
80105570:	eafffe89 	b	80104f9c <_svfprintf_r+0x1fe0>
80105574:	e59d305c 	ldr	r3, [sp, #92]	; 0x5c
80105578:	e3530000 	cmp	r3, #0
8010557c:	b3a0302d 	movlt	r3, #45	; 0x2d
80105580:	e3a0c003 	mov	ip, #3
80105584:	e3a00000 	mov	r0, #0
80105588:	b1a02003 	movlt	r2, r3
8010558c:	b5cd308b 	strblt	r3, [sp, #139]	; 0x8b
80105590:	a5dd208b 	ldrbge	r2, [sp, #139]	; 0x8b
80105594:	e58dc018 	str	ip, [sp, #24]
80105598:	e58d0038 	str	r0, [sp, #56]	; 0x38
8010559c:	e59f10f8 	ldr	r1, [pc, #248]	; 8010569c <_svfprintf_r+0x26e0>
801055a0:	e59f30f8 	ldr	r3, [pc, #248]	; 801056a0 <_svfprintf_r+0x26e4>
801055a4:	eafff9ab 	b	80103c58 <_svfprintf_r+0xc9c>
801055a8:	e59d303c 	ldr	r3, [sp, #60]	; 0x3c
801055ac:	e3130001 	tst	r3, #1
801055b0:	0afffe45 	beq	80104ecc <_svfprintf_r+0x1f10>
801055b4:	eafffe40 	b	80104ebc <_svfprintf_r+0x1f00>
801055b8:	e1a0200b 	mov	r2, fp
801055bc:	eafffccb 	b	801048f0 <_svfprintf_r+0x1934>
801055c0:	e59d303c 	ldr	r3, [sp, #60]	; 0x3c
801055c4:	e3130001 	tst	r3, #1
801055c8:	059d60a0 	ldreq	r6, [sp, #160]	; 0xa0
801055cc:	0afffda2 	beq	80104c5c <_svfprintf_r+0x1ca0>
801055d0:	e0894005 	add	r4, r9, r5
801055d4:	eafffd8e 	b	80104c14 <_svfprintf_r+0x1c58>
801055d8:	e3550000 	cmp	r5, #0
801055dc:	1a000008 	bne	80105604 <_svfprintf_r+0x2648>
801055e0:	e59d303c 	ldr	r3, [sp, #60]	; 0x3c
801055e4:	e3130001 	tst	r3, #1
801055e8:	1a000005 	bne	80105604 <_svfprintf_r+0x2648>
801055ec:	e3a03001 	mov	r3, #1
801055f0:	e3a02066 	mov	r2, #102	; 0x66
801055f4:	e58d3018 	str	r3, [sp, #24]
801055f8:	e58d2044 	str	r2, [sp, #68]	; 0x44
801055fc:	e58d3028 	str	r3, [sp, #40]	; 0x28
80105600:	eafffe70 	b	80104fc8 <_svfprintf_r+0x200c>
80105604:	e59d306c 	ldr	r3, [sp, #108]	; 0x6c
80105608:	e2837001 	add	r7, r3, #1
8010560c:	e0873005 	add	r3, r7, r5
80105610:	e58d3028 	str	r3, [sp, #40]	; 0x28
80105614:	e1c33fc3 	bic	r3, r3, r3, asr #31
80105618:	e58d3018 	str	r3, [sp, #24]
8010561c:	e3a03066 	mov	r3, #102	; 0x66
80105620:	e58d3044 	str	r3, [sp, #68]	; 0x44
80105624:	eafffe67 	b	80104fc8 <_svfprintf_r+0x200c>
80105628:	e2653001 	rsb	r3, r5, #1
8010562c:	e58d3090 	str	r3, [sp, #144]	; 0x90
80105630:	eafffea5 	b	801050cc <_svfprintf_r+0x2110>
80105634:	e59d2034 	ldr	r2, [sp, #52]	; 0x34
80105638:	e5925000 	ldr	r5, [r2]
8010563c:	e2822004 	add	r2, r2, #4
80105640:	e1550006 	cmp	r5, r6
80105644:	e5da3001 	ldrb	r3, [sl, #1]
80105648:	b1a05006 	movlt	r5, r6
8010564c:	e1a0a001 	mov	sl, r1
80105650:	e58d2034 	str	r2, [sp, #52]	; 0x34
80105654:	eafff6a2 	b	801030e4 <_svfprintf_r+0x128>
80105658:	e3a03067 	mov	r3, #103	; 0x67
8010565c:	e58d3044 	str	r3, [sp, #68]	; 0x44
80105660:	eafffd96 	b	80104cc0 <_svfprintf_r+0x1d04>
80105664:	e58d3028 	str	r3, [sp, #40]	; 0x28
80105668:	eafffd1f 	b	80104aec <_svfprintf_r+0x1b30>
8010566c:	e3e02000 	mvn	r2, #0
80105670:	e3a0300c 	mov	r3, #12
80105674:	e58d201c 	str	r2, [sp, #28]
80105678:	e59d2020 	ldr	r2, [sp, #32]
8010567c:	e5823000 	str	r3, [r2]
80105680:	eafff713 	b	801032d4 <_svfprintf_r+0x318>
80105684:	e59d2024 	ldr	r2, [sp, #36]	; 0x24
80105688:	e1d230bc 	ldrh	r3, [r2, #12]
8010568c:	e3833040 	orr	r3, r3, #64	; 0x40
80105690:	e1c230bc 	strh	r3, [r2, #12]
80105694:	eafff708 	b	801032bc <_svfprintf_r+0x300>
80105698:	8010aa68 	.word	0x8010aa68
8010569c:	8010aa20 	.word	0x8010aa20
801056a0:	8010aa1c 	.word	0x8010aa1c

Disassembly of section .text.__register_exitproc:

801056a4 <__register_exitproc>:
801056a4:	e92d47f0 	push	{r4, r5, r6, r7, r8, r9, sl, lr}
801056a8:	e59f50e8 	ldr	r5, [pc, #232]	; 80105798 <__register_exitproc+0xf4>
801056ac:	e1a06000 	mov	r6, r0
801056b0:	e5950000 	ldr	r0, [r5]
801056b4:	e1a09002 	mov	r9, r2
801056b8:	e1a08003 	mov	r8, r3
801056bc:	e1a07001 	mov	r7, r1
801056c0:	ebfff636 	bl	80102fa0 <__retarget_lock_acquire_recursive>
801056c4:	e59f30d0 	ldr	r3, [pc, #208]	; 8010579c <__register_exitproc+0xf8>
801056c8:	e5934000 	ldr	r4, [r3]
801056cc:	e5943148 	ldr	r3, [r4, #328]	; 0x148
801056d0:	e3530000 	cmp	r3, #0
801056d4:	02843f53 	addeq	r3, r4, #332	; 0x14c
801056d8:	e5932004 	ldr	r2, [r3, #4]
801056dc:	05843148 	streq	r3, [r4, #328]	; 0x148
801056e0:	e352001f 	cmp	r2, #31
801056e4:	d2820001 	addle	r0, r2, #1
801056e8:	da00000f 	ble	8010572c <__register_exitproc+0x88>
801056ec:	e59f30ac 	ldr	r3, [pc, #172]	; 801057a0 <__register_exitproc+0xfc>
801056f0:	e3530000 	cmp	r3, #0
801056f4:	0a000023 	beq	80105788 <__register_exitproc+0xe4>
801056f8:	e3a00e19 	mov	r0, #400	; 0x190
801056fc:	e320f000 	nop	{0}
80105700:	e2503000 	subs	r3, r0, #0
80105704:	0a00001f 	beq	80105788 <__register_exitproc+0xe4>
80105708:	e3a01000 	mov	r1, #0
8010570c:	e3a00001 	mov	r0, #1
80105710:	e1a02001 	mov	r2, r1
80105714:	e594c148 	ldr	ip, [r4, #328]	; 0x148
80105718:	e5831004 	str	r1, [r3, #4]
8010571c:	e583c000 	str	ip, [r3]
80105720:	e5843148 	str	r3, [r4, #328]	; 0x148
80105724:	e5831188 	str	r1, [r3, #392]	; 0x188
80105728:	e583118c 	str	r1, [r3, #396]	; 0x18c
8010572c:	e3560000 	cmp	r6, #0
80105730:	1a000007 	bne	80105754 <__register_exitproc+0xb0>
80105734:	e2822002 	add	r2, r2, #2
80105738:	e5830004 	str	r0, [r3, #4]
8010573c:	e5950000 	ldr	r0, [r5]
80105740:	e7837102 	str	r7, [r3, r2, lsl #2]
80105744:	ebfff61b 	bl	80102fb8 <__retarget_lock_release_recursive>
80105748:	e3a00000 	mov	r0, #0
8010574c:	e8bd47f0 	pop	{r4, r5, r6, r7, r8, r9, sl, lr}
80105750:	e12fff1e 	bx	lr
80105754:	e3a01001 	mov	r1, #1
80105758:	e083e102 	add	lr, r3, r2, lsl #2
8010575c:	e58e9088 	str	r9, [lr, #136]	; 0x88
80105760:	e593c188 	ldr	ip, [r3, #392]	; 0x188
80105764:	e1a01211 	lsl	r1, r1, r2
80105768:	e18cc001 	orr	ip, ip, r1
8010576c:	e583c188 	str	ip, [r3, #392]	; 0x188
80105770:	e58e8108 	str	r8, [lr, #264]	; 0x108
80105774:	e3560002 	cmp	r6, #2
80105778:	0593c18c 	ldreq	ip, [r3, #396]	; 0x18c
8010577c:	018c1001 	orreq	r1, ip, r1
80105780:	0583118c 	streq	r1, [r3, #396]	; 0x18c
80105784:	eaffffea 	b	80105734 <__register_exitproc+0x90>
80105788:	e5950000 	ldr	r0, [r5]
8010578c:	ebfff609 	bl	80102fb8 <__retarget_lock_release_recursive>
80105790:	e3e00000 	mvn	r0, #0
80105794:	eaffffec 	b	8010574c <__register_exitproc+0xa8>
80105798:	8010b120 	.word	0x8010b120
8010579c:	8010aa10 	.word	0x8010aa10
801057a0:	00000000 	.word	0x00000000

Disassembly of section .text.quorem:

801057a4 <quorem>:
801057a4:	e92d4ff0 	push	{r4, r5, r6, r7, r8, r9, sl, fp, lr}
801057a8:	e5903010 	ldr	r3, [r0, #16]
801057ac:	e5914010 	ldr	r4, [r1, #16]
801057b0:	e1530004 	cmp	r3, r4
801057b4:	e24dd014 	sub	sp, sp, #20
801057b8:	b3a00000 	movlt	r0, #0
801057bc:	ba00006e 	blt	8010597c <quorem+0x1d8>
801057c0:	e2444001 	sub	r4, r4, #1
801057c4:	e2815014 	add	r5, r1, #20
801057c8:	e58d1004 	str	r1, [sp, #4]
801057cc:	e7951104 	ldr	r1, [r5, r4, lsl #2]
801057d0:	e2808014 	add	r8, r0, #20
801057d4:	e1a07000 	mov	r7, r0
801057d8:	e2811001 	add	r1, r1, #1
801057dc:	e7980104 	ldr	r0, [r8, r4, lsl #2]
801057e0:	ebfff154 	bl	80101d38 <__udivsi3>
801057e4:	e1a03104 	lsl	r3, r4, #2
801057e8:	e58d3008 	str	r3, [sp, #8]
801057ec:	e0859003 	add	r9, r5, r3
801057f0:	e2506000 	subs	r6, r0, #0
801057f4:	e0883003 	add	r3, r8, r3
801057f8:	e58d300c 	str	r3, [sp, #12]
801057fc:	0a000031 	beq	801058c8 <quorem+0x124>
80105800:	e3a00000 	mov	r0, #0
80105804:	e1a0b005 	mov	fp, r5
80105808:	e1a01000 	mov	r1, r0
8010580c:	e1a0a008 	mov	sl, r8
80105810:	e59fe170 	ldr	lr, [pc, #368]	; 80105988 <quorem+0x1e4>
80105814:	e49bc004 	ldr	ip, [fp], #4
80105818:	e00c200e 	and	r2, ip, lr
8010581c:	e0230296 	mla	r3, r6, r2, r0
80105820:	e1a02003 	mov	r2, r3
80105824:	e1a0082c 	lsr	r0, ip, #16
80105828:	e1a03823 	lsr	r3, r3, #16
8010582c:	e02c3096 	mla	ip, r6, r0, r3
80105830:	e1a03002 	mov	r3, r2
80105834:	e1a0000c 	mov	r0, ip
80105838:	e59ac000 	ldr	ip, [sl]
8010583c:	e003300e 	and	r3, r3, lr
80105840:	e0413003 	sub	r3, r1, r3
80105844:	e00c200e 	and	r2, ip, lr
80105848:	e000100e 	and	r1, r0, lr
8010584c:	e0833002 	add	r3, r3, r2
80105850:	e061182c 	rsb	r1, r1, ip, lsr #16
80105854:	e0811843 	add	r1, r1, r3, asr #16
80105858:	e003300e 	and	r3, r3, lr
8010585c:	e1833801 	orr	r3, r3, r1, lsl #16
80105860:	e159000b 	cmp	r9, fp
80105864:	e48a3004 	str	r3, [sl], #4
80105868:	e1a01841 	asr	r1, r1, #16
8010586c:	e1a00820 	lsr	r0, r0, #16
80105870:	2affffe7 	bcs	80105814 <quorem+0x70>
80105874:	e59d3008 	ldr	r3, [sp, #8]
80105878:	e7983003 	ldr	r3, [r8, r3]
8010587c:	e3530000 	cmp	r3, #0
80105880:	1a000010 	bne	801058c8 <quorem+0x124>
80105884:	e59d200c 	ldr	r2, [sp, #12]
80105888:	e2423004 	sub	r3, r2, #4
8010588c:	e1580003 	cmp	r8, r3
80105890:	2a00000b 	bcs	801058c4 <quorem+0x120>
80105894:	e5123004 	ldr	r3, [r2, #-4]
80105898:	e3530000 	cmp	r3, #0
8010589c:	1a000008 	bne	801058c4 <quorem+0x120>
801058a0:	e2423008 	sub	r3, r2, #8
801058a4:	ea000003 	b	801058b8 <quorem+0x114>
801058a8:	e5932000 	ldr	r2, [r3]
801058ac:	e3520000 	cmp	r2, #0
801058b0:	e2433004 	sub	r3, r3, #4
801058b4:	1a000002 	bne	801058c4 <quorem+0x120>
801058b8:	e1580003 	cmp	r8, r3
801058bc:	e2444001 	sub	r4, r4, #1
801058c0:	3afffff8 	bcc	801058a8 <quorem+0x104>
801058c4:	e5874010 	str	r4, [r7, #16]
801058c8:	e59d1004 	ldr	r1, [sp, #4]
801058cc:	e1a00007 	mov	r0, r7
801058d0:	eb000b16 	bl	80108530 <__mcmp>
801058d4:	e3500000 	cmp	r0, #0
801058d8:	ba000026 	blt	80105978 <quorem+0x1d4>
801058dc:	e1a0e008 	mov	lr, r8
801058e0:	e3a03000 	mov	r3, #0
801058e4:	e59fc09c 	ldr	ip, [pc, #156]	; 80105988 <quorem+0x1e4>
801058e8:	e2866001 	add	r6, r6, #1
801058ec:	e4951004 	ldr	r1, [r5], #4
801058f0:	e59e0000 	ldr	r0, [lr]
801058f4:	e001200c 	and	r2, r1, ip
801058f8:	e0432002 	sub	r2, r3, r2
801058fc:	e1a03821 	lsr	r3, r1, #16
80105900:	e000100c 	and	r1, r0, ip
80105904:	e0822001 	add	r2, r2, r1
80105908:	e0633820 	rsb	r3, r3, r0, lsr #16
8010590c:	e0833842 	add	r3, r3, r2, asr #16
80105910:	e002200c 	and	r2, r2, ip
80105914:	e1822803 	orr	r2, r2, r3, lsl #16
80105918:	e1590005 	cmp	r9, r5
8010591c:	e48e2004 	str	r2, [lr], #4
80105920:	e1a03843 	asr	r3, r3, #16
80105924:	2afffff0 	bcs	801058ec <quorem+0x148>
80105928:	e7983104 	ldr	r3, [r8, r4, lsl #2]
8010592c:	e3530000 	cmp	r3, #0
80105930:	e0883104 	add	r3, r8, r4, lsl #2
80105934:	1a00000f 	bne	80105978 <quorem+0x1d4>
80105938:	e2432004 	sub	r2, r3, #4
8010593c:	e1580002 	cmp	r8, r2
80105940:	2a00000b 	bcs	80105974 <quorem+0x1d0>
80105944:	e5132004 	ldr	r2, [r3, #-4]
80105948:	e3520000 	cmp	r2, #0
8010594c:	1a000008 	bne	80105974 <quorem+0x1d0>
80105950:	e2433008 	sub	r3, r3, #8
80105954:	ea000003 	b	80105968 <quorem+0x1c4>
80105958:	e5932000 	ldr	r2, [r3]
8010595c:	e3520000 	cmp	r2, #0
80105960:	e2433004 	sub	r3, r3, #4
80105964:	1a000002 	bne	80105974 <quorem+0x1d0>
80105968:	e1580003 	cmp	r8, r3
8010596c:	e2444001 	sub	r4, r4, #1
80105970:	3afffff8 	bcc	80105958 <quorem+0x1b4>
80105974:	e5874010 	str	r4, [r7, #16]
80105978:	e1a00006 	mov	r0, r6
8010597c:	e28dd014 	add	sp, sp, #20
80105980:	e8bd4ff0 	pop	{r4, r5, r6, r7, r8, r9, sl, fp, lr}
80105984:	e12fff1e 	bx	lr
80105988:	0000ffff 	.word	0x0000ffff

Disassembly of section .text._dtoa_r:

80105990 <_dtoa_r>:
80105990:	e92d4ff0 	push	{r4, r5, r6, r7, r8, r9, sl, fp, lr}
80105994:	e5901040 	ldr	r1, [r0, #64]	; 0x40
80105998:	e3510000 	cmp	r1, #0
8010599c:	e24dd064 	sub	sp, sp, #100	; 0x64
801059a0:	e1a04000 	mov	r4, r0
801059a4:	e1a07003 	mov	r7, r3
801059a8:	e1a0a002 	mov	sl, r2
801059ac:	e1a0b003 	mov	fp, r3
801059b0:	0a000006 	beq	801059d0 <_dtoa_r+0x40>
801059b4:	e3a03001 	mov	r3, #1
801059b8:	e5902044 	ldr	r2, [r0, #68]	; 0x44
801059bc:	e1a03213 	lsl	r3, r3, r2
801059c0:	e981000c 	stmib	r1, {r2, r3}
801059c4:	eb00091d 	bl	80107e40 <_Bfree>
801059c8:	e3a03000 	mov	r3, #0
801059cc:	e5843040 	str	r3, [r4, #64]	; 0x40
801059d0:	e2576000 	subs	r6, r7, #0
801059d4:	b3a03001 	movlt	r3, #1
801059d8:	a3a03000 	movge	r3, #0
801059dc:	e59d2094 	ldr	r2, [sp, #148]	; 0x94
801059e0:	e5823000 	str	r3, [r2]
801059e4:	e59f32f4 	ldr	r3, [pc, #756]	; 80105ce0 <_dtoa_r+0x350>
801059e8:	b3c66102 	biclt	r6, r6, #-2147483648	; 0x80000000
801059ec:	b1a0b006 	movlt	fp, r6
801059f0:	e1d33006 	bics	r3, r3, r6
801059f4:	0a000089 	beq	80105c20 <_dtoa_r+0x290>
801059f8:	e3a02000 	mov	r2, #0
801059fc:	e3a03000 	mov	r3, #0
80105a00:	e1a0000a 	mov	r0, sl
80105a04:	e1a0100b 	mov	r1, fp
80105a08:	ebfff373 	bl	801027dc <__aeabi_dcmpeq>
80105a0c:	e2507000 	subs	r7, r0, #0
80105a10:	0a00000d 	beq	80105a4c <_dtoa_r+0xbc>
80105a14:	e3a03001 	mov	r3, #1
80105a18:	e59d2098 	ldr	r2, [sp, #152]	; 0x98
80105a1c:	e3520000 	cmp	r2, #0
80105a20:	e59d2090 	ldr	r2, [sp, #144]	; 0x90
80105a24:	e5823000 	str	r3, [r2]
80105a28:	0a0000a0 	beq	80105cb0 <_dtoa_r+0x320>
80105a2c:	e59f72b0 	ldr	r7, [pc, #688]	; 80105ce4 <_dtoa_r+0x354>
80105a30:	e59d3098 	ldr	r3, [sp, #152]	; 0x98
80105a34:	e5837000 	str	r7, [r3]
80105a38:	e2477001 	sub	r7, r7, #1
80105a3c:	e1a00007 	mov	r0, r7
80105a40:	e28dd064 	add	sp, sp, #100	; 0x64
80105a44:	e8bd4ff0 	pop	{r4, r5, r6, r7, r8, r9, sl, fp, lr}
80105a48:	e12fff1e 	bx	lr
80105a4c:	e28d2058 	add	r2, sp, #88	; 0x58
80105a50:	e28d305c 	add	r3, sp, #92	; 0x5c
80105a54:	e58d2004 	str	r2, [sp, #4]
80105a58:	e58d3000 	str	r3, [sp]
80105a5c:	e1a0200a 	mov	r2, sl
80105a60:	e1a0300b 	mov	r3, fp
80105a64:	e1a00004 	mov	r0, r4
80105a68:	eb000b7c 	bl	80108860 <__d2b>
80105a6c:	e1b05a26 	lsrs	r5, r6, #20
80105a70:	e58d001c 	str	r0, [sp, #28]
80105a74:	1a000083 	bne	80105c88 <_dtoa_r+0x2f8>
80105a78:	e59d8058 	ldr	r8, [sp, #88]	; 0x58
80105a7c:	e59d505c 	ldr	r5, [sp, #92]	; 0x5c
80105a80:	e0885005 	add	r5, r8, r5
80105a84:	e2853e43 	add	r3, r5, #1072	; 0x430
80105a88:	e2833002 	add	r3, r3, #2
80105a8c:	e3530020 	cmp	r3, #32
80105a90:	c2850e41 	addgt	r0, r5, #1040	; 0x410
80105a94:	c2800002 	addgt	r0, r0, #2
80105a98:	c2633040 	rsbgt	r3, r3, #64	; 0x40
80105a9c:	c1a0003a 	lsrgt	r0, sl, r0
80105aa0:	d2633020 	rsble	r3, r3, #32
80105aa4:	c1800316 	orrgt	r0, r0, r6, lsl r3
80105aa8:	d1a0031a 	lslle	r0, sl, r3
80105aac:	ebfff1ae 	bl	8010216c <__aeabi_ui2d>
80105ab0:	e3a02001 	mov	r2, #1
80105ab4:	e58d2048 	str	r2, [sp, #72]	; 0x48
80105ab8:	e2455001 	sub	r5, r5, #1
80105abc:	e241161f 	sub	r1, r1, #32505856	; 0x1f00000
80105ac0:	e3a02000 	mov	r2, #0
80105ac4:	e59f321c 	ldr	r3, [pc, #540]	; 80105ce8 <_dtoa_r+0x358>
80105ac8:	ebfff0e2 	bl	80101e58 <__aeabi_dsub>
80105acc:	e28f3f7d 	add	r3, pc, #500	; 0x1f4
80105ad0:	e893000c 	ldm	r3, {r2, r3}
80105ad4:	ebfff1e6 	bl	80102274 <__aeabi_dmul>
80105ad8:	e28f3e1f 	add	r3, pc, #496	; 0x1f0
80105adc:	e893000c 	ldm	r3, {r2, r3}
80105ae0:	ebfff0dd 	bl	80101e5c <__adddf3>
80105ae4:	e1a06000 	mov	r6, r0
80105ae8:	e1a00005 	mov	r0, r5
80105aec:	e1a07001 	mov	r7, r1
80105af0:	ebfff1a6 	bl	80102190 <__aeabi_i2d>
80105af4:	e28f3f77 	add	r3, pc, #476	; 0x1dc
80105af8:	e893000c 	ldm	r3, {r2, r3}
80105afc:	ebfff1dc 	bl	80102274 <__aeabi_dmul>
80105b00:	e1a02000 	mov	r2, r0
80105b04:	e1a03001 	mov	r3, r1
80105b08:	e1a00006 	mov	r0, r6
80105b0c:	e1a01007 	mov	r1, r7
80105b10:	ebfff0d1 	bl	80101e5c <__adddf3>
80105b14:	e1a06000 	mov	r6, r0
80105b18:	e1a07001 	mov	r7, r1
80105b1c:	ebfff35a 	bl	8010288c <__aeabi_d2iz>
80105b20:	e3a02000 	mov	r2, #0
80105b24:	e1a09000 	mov	r9, r0
80105b28:	e3a03000 	mov	r3, #0
80105b2c:	e1a00006 	mov	r0, r6
80105b30:	e1a01007 	mov	r1, r7
80105b34:	ebfff32e 	bl	801027f4 <__aeabi_dcmplt>
80105b38:	e3500000 	cmp	r0, #0
80105b3c:	0a000006 	beq	80105b5c <_dtoa_r+0x1cc>
80105b40:	e1a00009 	mov	r0, r9
80105b44:	ebfff191 	bl	80102190 <__aeabi_i2d>
80105b48:	e1a02006 	mov	r2, r6
80105b4c:	e1a03007 	mov	r3, r7
80105b50:	ebfff321 	bl	801027dc <__aeabi_dcmpeq>
80105b54:	e3500000 	cmp	r0, #0
80105b58:	02499001 	subeq	r9, r9, #1
80105b5c:	e3590016 	cmp	r9, #22
80105b60:	83a03001 	movhi	r3, #1
80105b64:	858d3038 	strhi	r3, [sp, #56]	; 0x38
80105b68:	8a00000a 	bhi	80105b98 <_dtoa_r+0x208>
80105b6c:	e59f3190 	ldr	r3, [pc, #400]	; 80105d04 <_dtoa_r+0x374>
80105b70:	e0833189 	add	r3, r3, r9, lsl #3
80105b74:	e8930003 	ldm	r3, {r0, r1}
80105b78:	e1a0200a 	mov	r2, sl
80105b7c:	e1a0300b 	mov	r3, fp
80105b80:	ebfff32d 	bl	8010283c <__aeabi_dcmpgt>
80105b84:	e3500000 	cmp	r0, #0
80105b88:	13a03000 	movne	r3, #0
80105b8c:	058d0038 	streq	r0, [sp, #56]	; 0x38
80105b90:	158d3038 	strne	r3, [sp, #56]	; 0x38
80105b94:	12499001 	subne	r9, r9, #1
80105b98:	e0485005 	sub	r5, r8, r5
80105b9c:	e2553001 	subs	r3, r5, #1
80105ba0:	e58d3010 	str	r3, [sp, #16]
80105ba4:	42653001 	rsbmi	r3, r5, #1
80105ba8:	458d3020 	strmi	r3, [sp, #32]
80105bac:	53a03000 	movpl	r3, #0
80105bb0:	43a03000 	movmi	r3, #0
80105bb4:	558d3020 	strpl	r3, [sp, #32]
80105bb8:	458d3010 	strmi	r3, [sp, #16]
80105bbc:	e3590000 	cmp	r9, #0
80105bc0:	ba00019a 	blt	80106230 <_dtoa_r+0x8a0>
80105bc4:	e59d3010 	ldr	r3, [sp, #16]
80105bc8:	e0833009 	add	r3, r3, r9
80105bcc:	e58d3010 	str	r3, [sp, #16]
80105bd0:	e3a03000 	mov	r3, #0
80105bd4:	e58d902c 	str	r9, [sp, #44]	; 0x2c
80105bd8:	e58d3028 	str	r3, [sp, #40]	; 0x28
80105bdc:	e59d3088 	ldr	r3, [sp, #136]	; 0x88
80105be0:	e3530009 	cmp	r3, #9
80105be4:	8a00004b 	bhi	80105d18 <_dtoa_r+0x388>
80105be8:	e3530005 	cmp	r3, #5
80105bec:	d3a05001 	movle	r5, #1
80105bf0:	c3a05000 	movgt	r5, #0
80105bf4:	c2433004 	subgt	r3, r3, #4
80105bf8:	c58d3088 	strgt	r3, [sp, #136]	; 0x88
80105bfc:	e59d3088 	ldr	r3, [sp, #136]	; 0x88
80105c00:	e2433002 	sub	r3, r3, #2
80105c04:	e3530003 	cmp	r3, #3
80105c08:	979ff103 	ldrls	pc, [pc, r3, lsl #2]
80105c0c:	ea00018f 	b	80106250 <_dtoa_r+0x8c0>
80105c10:	801063b8 	.word	0x801063b8
80105c14:	80106348 	.word	0x80106348
80105c18:	801063dc 	.word	0x801063dc
80105c1c:	80106a34 	.word	0x80106a34
80105c20:	e59f30c4 	ldr	r3, [pc, #196]	; 80105cec <_dtoa_r+0x35c>
80105c24:	e59d2090 	ldr	r2, [sp, #144]	; 0x90
80105c28:	e35a0000 	cmp	sl, #0
80105c2c:	e5823000 	str	r3, [r2]
80105c30:	1a00000e 	bne	80105c70 <_dtoa_r+0x2e0>
80105c34:	e3c664ff 	bic	r6, r6, #-16777216	; 0xff000000
80105c38:	e3c6660f 	bic	r6, r6, #15728640	; 0xf00000
80105c3c:	e3560000 	cmp	r6, #0
80105c40:	1a00000a 	bne	80105c70 <_dtoa_r+0x2e0>
80105c44:	e59d3098 	ldr	r3, [sp, #152]	; 0x98
80105c48:	e59f70a0 	ldr	r7, [pc, #160]	; 80105cf0 <_dtoa_r+0x360>
80105c4c:	e3530000 	cmp	r3, #0
80105c50:	12873008 	addne	r3, r7, #8
80105c54:	0affff78 	beq	80105a3c <_dtoa_r+0xac>
80105c58:	e1a00007 	mov	r0, r7
80105c5c:	e59d2098 	ldr	r2, [sp, #152]	; 0x98
80105c60:	e5823000 	str	r3, [r2]
80105c64:	e28dd064 	add	sp, sp, #100	; 0x64
80105c68:	e8bd4ff0 	pop	{r4, r5, r6, r7, r8, r9, sl, fp, lr}
80105c6c:	e12fff1e 	bx	lr
80105c70:	e59d3098 	ldr	r3, [sp, #152]	; 0x98
80105c74:	e3530000 	cmp	r3, #0
80105c78:	e59f7074 	ldr	r7, [pc, #116]	; 80105cf4 <_dtoa_r+0x364>
80105c7c:	0affff6e 	beq	80105a3c <_dtoa_r+0xac>
80105c80:	e2873003 	add	r3, r7, #3
80105c84:	eafffff3 	b	80105c58 <_dtoa_r+0x2c8>
80105c88:	e3cb34ff 	bic	r3, fp, #-16777216	; 0xff000000
80105c8c:	e3c3360f 	bic	r3, r3, #15728640	; 0xf00000
80105c90:	e2455fff 	sub	r5, r5, #1020	; 0x3fc
80105c94:	e38315ff 	orr	r1, r3, #1069547520	; 0x3fc00000
80105c98:	e1a0000a 	mov	r0, sl
80105c9c:	e2455003 	sub	r5, r5, #3
80105ca0:	e58d7048 	str	r7, [sp, #72]	; 0x48
80105ca4:	e3811603 	orr	r1, r1, #3145728	; 0x300000
80105ca8:	e59d8058 	ldr	r8, [sp, #88]	; 0x58
80105cac:	eaffff83 	b	80105ac0 <_dtoa_r+0x130>
80105cb0:	e59f7040 	ldr	r7, [pc, #64]	; 80105cf8 <_dtoa_r+0x368>
80105cb4:	e1a00007 	mov	r0, r7
80105cb8:	e28dd064 	add	sp, sp, #100	; 0x64
80105cbc:	e8bd4ff0 	pop	{r4, r5, r6, r7, r8, r9, sl, fp, lr}
80105cc0:	e12fff1e 	bx	lr
80105cc4:	e1a00000 	nop			; (mov r0, r0)
80105cc8:	636f4361 	.word	0x636f4361
80105ccc:	3fd287a7 	.word	0x3fd287a7
80105cd0:	8b60c8b3 	.word	0x8b60c8b3
80105cd4:	3fc68a28 	.word	0x3fc68a28
80105cd8:	509f79fb 	.word	0x509f79fb
80105cdc:	3fd34413 	.word	0x3fd34413
80105ce0:	7ff00000 	.word	0x7ff00000
80105ce4:	8010aa55 	.word	0x8010aa55
80105ce8:	3ff80000 	.word	0x3ff80000
80105cec:	0000270f 	.word	0x0000270f
80105cf0:	8010aa78 	.word	0x8010aa78
80105cf4:	8010aa84 	.word	0x8010aa84
80105cf8:	8010aa54 	.word	0x8010aa54
80105cfc:	3ff00000 	.word	0x3ff00000
80105d00:	40140000 	.word	0x40140000
80105d04:	8010aab0 	.word	0x8010aab0
80105d08:	8010aa88 	.word	0x8010aa88
80105d0c:	3fe00000 	.word	0x3fe00000
80105d10:	40240000 	.word	0x40240000
80105d14:	401c0000 	.word	0x401c0000
80105d18:	e3a03000 	mov	r3, #0
80105d1c:	e58d3088 	str	r3, [sp, #136]	; 0x88
80105d20:	e3a03001 	mov	r3, #1
80105d24:	e58d3024 	str	r3, [sp, #36]	; 0x24
80105d28:	e3a03000 	mov	r3, #0
80105d2c:	e58d308c 	str	r3, [sp, #140]	; 0x8c
80105d30:	e1a05003 	mov	r5, r3
80105d34:	e3e03000 	mvn	r3, #0
80105d38:	e58d3018 	str	r3, [sp, #24]
80105d3c:	e3a01000 	mov	r1, #0
80105d40:	e59d3018 	ldr	r3, [sp, #24]
80105d44:	e5841044 	str	r1, [r4, #68]	; 0x44
80105d48:	e58d303c 	str	r3, [sp, #60]	; 0x3c
80105d4c:	e1a00004 	mov	r0, r4
80105d50:	eb000817 	bl	80107db4 <_Balloc>
80105d54:	e3550000 	cmp	r5, #0
80105d58:	e58d000c 	str	r0, [sp, #12]
80105d5c:	e5840040 	str	r0, [r4, #64]	; 0x40
80105d60:	0a0000b3 	beq	80106034 <_dtoa_r+0x6a4>
80105d64:	e1a0000a 	mov	r0, sl
80105d68:	e1a0100b 	mov	r1, fp
80105d6c:	e3590000 	cmp	r9, #0
80105d70:	e58d0040 	str	r0, [sp, #64]	; 0x40
80105d74:	e58d1044 	str	r1, [sp, #68]	; 0x44
80105d78:	da00026a 	ble	80106728 <_dtoa_r+0xd98>
80105d7c:	e51f2080 	ldr	r2, [pc, #-128]	; 80105d04 <_dtoa_r+0x374>
80105d80:	e209300f 	and	r3, r9, #15
80105d84:	e1a05249 	asr	r5, r9, #4
80105d88:	e0823183 	add	r3, r2, r3, lsl #3
80105d8c:	e3150010 	tst	r5, #16
80105d90:	e89300c0 	ldm	r3, {r6, r7}
80105d94:	1a000162 	bne	80106324 <_dtoa_r+0x994>
80105d98:	e3a0a002 	mov	sl, #2
80105d9c:	e28d3040 	add	r3, sp, #64	; 0x40
80105da0:	e893000c 	ldm	r3, {r2, r3}
80105da4:	e58d2030 	str	r2, [sp, #48]	; 0x30
80105da8:	e58d3034 	str	r3, [sp, #52]	; 0x34
80105dac:	e3550000 	cmp	r5, #0
80105db0:	151f80b0 	ldrne	r8, [pc, #-176]	; 80105d08 <_dtoa_r+0x378>
80105db4:	0a00000b 	beq	80105de8 <_dtoa_r+0x458>
80105db8:	e3150001 	tst	r5, #1
80105dbc:	0a000006 	beq	80105ddc <_dtoa_r+0x44c>
80105dc0:	e1a00006 	mov	r0, r6
80105dc4:	e1a01007 	mov	r1, r7
80105dc8:	e898000c 	ldm	r8, {r2, r3}
80105dcc:	ebfff128 	bl	80102274 <__aeabi_dmul>
80105dd0:	e1a06000 	mov	r6, r0
80105dd4:	e1a07001 	mov	r7, r1
80105dd8:	e28aa001 	add	sl, sl, #1
80105ddc:	e1b050c5 	asrs	r5, r5, #1
80105de0:	e2888008 	add	r8, r8, #8
80105de4:	1afffff3 	bne	80105db8 <_dtoa_r+0x428>
80105de8:	e28d1030 	add	r1, sp, #48	; 0x30
80105dec:	e8910003 	ldm	r1, {r0, r1}
80105df0:	e1a02006 	mov	r2, r6
80105df4:	e1a03007 	mov	r3, r7
80105df8:	ebfff1c1 	bl	80102504 <__aeabi_ddiv>
80105dfc:	e58d0030 	str	r0, [sp, #48]	; 0x30
80105e00:	e58d1034 	str	r1, [sp, #52]	; 0x34
80105e04:	e59d3038 	ldr	r3, [sp, #56]	; 0x38
80105e08:	e3530000 	cmp	r3, #0
80105e0c:	0a000006 	beq	80105e2c <_dtoa_r+0x49c>
80105e10:	e3a02000 	mov	r2, #0
80105e14:	e51f3120 	ldr	r3, [pc, #-288]	; 80105cfc <_dtoa_r+0x36c>
80105e18:	e28d1030 	add	r1, sp, #48	; 0x30
80105e1c:	e8910003 	ldm	r1, {r0, r1}
80105e20:	ebfff273 	bl	801027f4 <__aeabi_dcmplt>
80105e24:	e3500000 	cmp	r0, #0
80105e28:	1a000388 	bne	80106c50 <_dtoa_r+0x12c0>
80105e2c:	e1a0000a 	mov	r0, sl
80105e30:	ebfff0d6 	bl	80102190 <__aeabi_i2d>
80105e34:	e28d3030 	add	r3, sp, #48	; 0x30
80105e38:	e893000c 	ldm	r3, {r2, r3}
80105e3c:	ebfff10c 	bl	80102274 <__aeabi_dmul>
80105e40:	e3a02000 	mov	r2, #0
80105e44:	e51f3138 	ldr	r3, [pc, #-312]	; 80105d14 <_dtoa_r+0x384>
80105e48:	ebfff003 	bl	80101e5c <__adddf3>
80105e4c:	e59d2018 	ldr	r2, [sp, #24]
80105e50:	e3520000 	cmp	r2, #0
80105e54:	e1a07000 	mov	r7, r0
80105e58:	e241850d 	sub	r8, r1, #54525952	; 0x3400000
80105e5c:	0a00016b 	beq	80106410 <_dtoa_r+0xa80>
80105e60:	e1a0b009 	mov	fp, r9
80105e64:	e59d3018 	ldr	r3, [sp, #24]
80105e68:	e58d304c 	str	r3, [sp, #76]	; 0x4c
80105e6c:	e28d6030 	add	r6, sp, #48	; 0x30
80105e70:	e8960060 	ldm	r6, {r5, r6}
80105e74:	e1a01006 	mov	r1, r6
80105e78:	e1a00005 	mov	r0, r5
80105e7c:	ebfff282 	bl	8010288c <__aeabi_d2iz>
80105e80:	e1a0a000 	mov	sl, r0
80105e84:	ebfff0c1 	bl	80102190 <__aeabi_i2d>
80105e88:	e1a02000 	mov	r2, r0
80105e8c:	e1a03001 	mov	r3, r1
80105e90:	e1a00005 	mov	r0, r5
80105e94:	e1a01006 	mov	r1, r6
80105e98:	ebffefee 	bl	80101e58 <__aeabi_dsub>
80105e9c:	e59d2024 	ldr	r2, [sp, #36]	; 0x24
80105ea0:	e51f31a4 	ldr	r3, [pc, #-420]	; 80105d04 <_dtoa_r+0x374>
80105ea4:	e3520000 	cmp	r2, #0
80105ea8:	e59d204c 	ldr	r2, [sp, #76]	; 0x4c
80105eac:	e1a06007 	mov	r6, r7
80105eb0:	e1a07008 	mov	r7, r8
80105eb4:	e59d800c 	ldr	r8, [sp, #12]
80105eb8:	e28aa030 	add	sl, sl, #48	; 0x30
80105ebc:	e0833182 	add	r3, r3, r2, lsl #3
80105ec0:	e58d0030 	str	r0, [sp, #48]	; 0x30
80105ec4:	e58d1034 	str	r1, [sp, #52]	; 0x34
80105ec8:	e20aa0ff 	and	sl, sl, #255	; 0xff
80105ecc:	e913000c 	ldmdb	r3, {r2, r3}
80105ed0:	e2885001 	add	r5, r8, #1
80105ed4:	0a000295 	beq	80106930 <_dtoa_r+0xfa0>
80105ed8:	e3a00000 	mov	r0, #0
80105edc:	e51f11d8 	ldr	r1, [pc, #-472]	; 80105d0c <_dtoa_r+0x37c>
80105ee0:	ebfff187 	bl	80102504 <__aeabi_ddiv>
80105ee4:	e1a02006 	mov	r2, r6
80105ee8:	e1a03007 	mov	r3, r7
80105eec:	ebffefd9 	bl	80101e58 <__aeabi_dsub>
80105ef0:	e5c8a000 	strb	sl, [r8]
80105ef4:	e28d3030 	add	r3, sp, #48	; 0x30
80105ef8:	e893000c 	ldm	r3, {r2, r3}
80105efc:	e1a06000 	mov	r6, r0
80105f00:	e1a07001 	mov	r7, r1
80105f04:	ebfff24c 	bl	8010283c <__aeabi_dcmpgt>
80105f08:	e3500000 	cmp	r0, #0
80105f0c:	1a0002c5 	bne	80106a28 <_dtoa_r+0x1098>
80105f10:	e28d3030 	add	r3, sp, #48	; 0x30
80105f14:	e893000c 	ldm	r3, {r2, r3}
80105f18:	e3a00000 	mov	r0, #0
80105f1c:	e51f1228 	ldr	r1, [pc, #-552]	; 80105cfc <_dtoa_r+0x36c>
80105f20:	ebffefcc 	bl	80101e58 <__aeabi_dsub>
80105f24:	e1a02006 	mov	r2, r6
80105f28:	e1a03007 	mov	r3, r7
80105f2c:	ebfff230 	bl	801027f4 <__aeabi_dcmplt>
80105f30:	e3500000 	cmp	r0, #0
80105f34:	1a000325 	bne	80106bd0 <_dtoa_r+0x1240>
80105f38:	e59d304c 	ldr	r3, [sp, #76]	; 0x4c
80105f3c:	e3530001 	cmp	r3, #1
80105f40:	0a000039 	beq	8010602c <_dtoa_r+0x69c>
80105f44:	e58d9050 	str	r9, [sp, #80]	; 0x50
80105f48:	e58db04c 	str	fp, [sp, #76]	; 0x4c
80105f4c:	e0888003 	add	r8, r8, r3
80105f50:	e28db030 	add	fp, sp, #48	; 0x30
80105f54:	e89b0c00 	ldm	fp, {sl, fp}
80105f58:	e1a09004 	mov	r9, r4
80105f5c:	ea00000b 	b	80105f90 <_dtoa_r+0x600>
80105f60:	e1a0200a 	mov	r2, sl
80105f64:	e1a0300b 	mov	r3, fp
80105f68:	e3a00000 	mov	r0, #0
80105f6c:	e51f1278 	ldr	r1, [pc, #-632]	; 80105cfc <_dtoa_r+0x36c>
80105f70:	ebffefb8 	bl	80101e58 <__aeabi_dsub>
80105f74:	e1a02006 	mov	r2, r6
80105f78:	e1a03007 	mov	r3, r7
80105f7c:	ebfff21c 	bl	801027f4 <__aeabi_dcmplt>
80105f80:	e3500000 	cmp	r0, #0
80105f84:	1a0003b1 	bne	80106e50 <_dtoa_r+0x14c0>
80105f88:	e1550008 	cmp	r5, r8
80105f8c:	0a000024 	beq	80106024 <_dtoa_r+0x694>
80105f90:	e1a00006 	mov	r0, r6
80105f94:	e1a01007 	mov	r1, r7
80105f98:	e3a02000 	mov	r2, #0
80105f9c:	e51f3294 	ldr	r3, [pc, #-660]	; 80105d10 <_dtoa_r+0x380>
80105fa0:	ebfff0b3 	bl	80102274 <__aeabi_dmul>
80105fa4:	e3a02000 	mov	r2, #0
80105fa8:	e51f32a0 	ldr	r3, [pc, #-672]	; 80105d10 <_dtoa_r+0x380>
80105fac:	e1a06000 	mov	r6, r0
80105fb0:	e1a07001 	mov	r7, r1
80105fb4:	e1a0000a 	mov	r0, sl
80105fb8:	e1a0100b 	mov	r1, fp
80105fbc:	ebfff0ac 	bl	80102274 <__aeabi_dmul>
80105fc0:	e1a0b001 	mov	fp, r1
80105fc4:	e1a0a000 	mov	sl, r0
80105fc8:	ebfff22f 	bl	8010288c <__aeabi_d2iz>
80105fcc:	e1a04000 	mov	r4, r0
80105fd0:	ebfff06e 	bl	80102190 <__aeabi_i2d>
80105fd4:	e1a02000 	mov	r2, r0
80105fd8:	e1a03001 	mov	r3, r1
80105fdc:	e1a0000a 	mov	r0, sl
80105fe0:	e1a0100b 	mov	r1, fp
80105fe4:	ebffef9b 	bl	80101e58 <__aeabi_dsub>
80105fe8:	e2844030 	add	r4, r4, #48	; 0x30
80105fec:	e20440ff 	and	r4, r4, #255	; 0xff
80105ff0:	e4c54001 	strb	r4, [r5], #1
80105ff4:	e1a02006 	mov	r2, r6
80105ff8:	e1a03007 	mov	r3, r7
80105ffc:	e1a0a000 	mov	sl, r0
80106000:	e1a0b001 	mov	fp, r1
80106004:	ebfff1fa 	bl	801027f4 <__aeabi_dcmplt>
80106008:	e3500000 	cmp	r0, #0
8010600c:	0affffd3 	beq	80105f60 <_dtoa_r+0x5d0>
80106010:	e59d700c 	ldr	r7, [sp, #12]
80106014:	e59db04c 	ldr	fp, [sp, #76]	; 0x4c
80106018:	e1a04009 	mov	r4, r9
8010601c:	e58d500c 	str	r5, [sp, #12]
80106020:	ea000070 	b	801061e8 <_dtoa_r+0x858>
80106024:	e1a04009 	mov	r4, r9
80106028:	e59d9050 	ldr	r9, [sp, #80]	; 0x50
8010602c:	e28db040 	add	fp, sp, #64	; 0x40
80106030:	e89b0c00 	ldm	fp, {sl, fp}
80106034:	e59d305c 	ldr	r3, [sp, #92]	; 0x5c
80106038:	e359000e 	cmp	r9, #14
8010603c:	c3a02000 	movgt	r2, #0
80106040:	d3a02001 	movle	r2, #1
80106044:	e3530000 	cmp	r3, #0
80106048:	b3a02000 	movlt	r2, #0
8010604c:	e3520000 	cmp	r2, #0
80106050:	1a00010f 	bne	80106494 <_dtoa_r+0xb04>
80106054:	e59d2024 	ldr	r2, [sp, #36]	; 0x24
80106058:	e3520000 	cmp	r2, #0
8010605c:	1a000090 	bne	801062a4 <_dtoa_r+0x914>
80106060:	e28d5020 	add	r5, sp, #32
80106064:	e59d7028 	ldr	r7, [sp, #40]	; 0x28
80106068:	e8950120 	ldm	r5, {r5, r8}
8010606c:	e59d2010 	ldr	r2, [sp, #16]
80106070:	e3550000 	cmp	r5, #0
80106074:	c3520000 	cmpgt	r2, #0
80106078:	da000008 	ble	801060a0 <_dtoa_r+0x710>
8010607c:	e1550002 	cmp	r5, r2
80106080:	b1a03005 	movlt	r3, r5
80106084:	a1a03002 	movge	r3, r2
80106088:	e59d1020 	ldr	r1, [sp, #32]
8010608c:	e0455003 	sub	r5, r5, r3
80106090:	e0411003 	sub	r1, r1, r3
80106094:	e0423003 	sub	r3, r2, r3
80106098:	e58d1020 	str	r1, [sp, #32]
8010609c:	e58d3010 	str	r3, [sp, #16]
801060a0:	e59d3028 	ldr	r3, [sp, #40]	; 0x28
801060a4:	e3530000 	cmp	r3, #0
801060a8:	0a00000a 	beq	801060d8 <_dtoa_r+0x748>
801060ac:	e59d2024 	ldr	r2, [sp, #36]	; 0x24
801060b0:	e3520000 	cmp	r2, #0
801060b4:	0a0002df 	beq	80106c38 <_dtoa_r+0x12a8>
801060b8:	e3570000 	cmp	r7, #0
801060bc:	e0436007 	sub	r6, r3, r7
801060c0:	1a000304 	bne	80106cd8 <_dtoa_r+0x1348>
801060c4:	e1a02006 	mov	r2, r6
801060c8:	e59d101c 	ldr	r1, [sp, #28]
801060cc:	e1a00004 	mov	r0, r4
801060d0:	eb000898 	bl	80108338 <__pow5mult>
801060d4:	e58d001c 	str	r0, [sp, #28]
801060d8:	e3a01001 	mov	r1, #1
801060dc:	e1a00004 	mov	r0, r4
801060e0:	eb00080b 	bl	80108114 <__i2b>
801060e4:	e59d202c 	ldr	r2, [sp, #44]	; 0x2c
801060e8:	e3520000 	cmp	r2, #0
801060ec:	e1a06000 	mov	r6, r0
801060f0:	1a000101 	bne	801064fc <_dtoa_r+0xb6c>
801060f4:	e59d3088 	ldr	r3, [sp, #136]	; 0x88
801060f8:	e3530001 	cmp	r3, #1
801060fc:	da00039a 	ble	80106f6c <_dtoa_r+0x15dc>
80106100:	e3a00001 	mov	r0, #1
80106104:	e59d2010 	ldr	r2, [sp, #16]
80106108:	e0800002 	add	r0, r0, r2
8010610c:	e210001f 	ands	r0, r0, #31
80106110:	0a0000d3 	beq	80106464 <_dtoa_r+0xad4>
80106114:	e2603020 	rsb	r3, r0, #32
80106118:	e3530004 	cmp	r3, #4
8010611c:	da000395 	ble	80106f78 <_dtoa_r+0x15e8>
80106120:	e59d3020 	ldr	r3, [sp, #32]
80106124:	e260001c 	rsb	r0, r0, #28
80106128:	e0833000 	add	r3, r3, r0
8010612c:	e58d3020 	str	r3, [sp, #32]
80106130:	e0823000 	add	r3, r2, r0
80106134:	e58d3010 	str	r3, [sp, #16]
80106138:	e0855000 	add	r5, r5, r0
8010613c:	e59d3020 	ldr	r3, [sp, #32]
80106140:	e3530000 	cmp	r3, #0
80106144:	da000004 	ble	8010615c <_dtoa_r+0x7cc>
80106148:	e1a02003 	mov	r2, r3
8010614c:	e59d101c 	ldr	r1, [sp, #28]
80106150:	e1a00004 	mov	r0, r4
80106154:	eb0008b8 	bl	8010843c <__lshift>
80106158:	e58d001c 	str	r0, [sp, #28]
8010615c:	e59d3010 	ldr	r3, [sp, #16]
80106160:	e3530000 	cmp	r3, #0
80106164:	da000004 	ble	8010617c <_dtoa_r+0x7ec>
80106168:	e1a01006 	mov	r1, r6
8010616c:	e1a02003 	mov	r2, r3
80106170:	e1a00004 	mov	r0, r4
80106174:	eb0008b0 	bl	8010843c <__lshift>
80106178:	e1a06000 	mov	r6, r0
8010617c:	e59d3088 	ldr	r3, [sp, #136]	; 0x88
80106180:	e3530002 	cmp	r3, #2
80106184:	e59d3038 	ldr	r3, [sp, #56]	; 0x38
80106188:	d3a07000 	movle	r7, #0
8010618c:	c3a07001 	movgt	r7, #1
80106190:	e3530000 	cmp	r3, #0
80106194:	1a00018b 	bne	801067c8 <_dtoa_r+0xe38>
80106198:	e59d3018 	ldr	r3, [sp, #24]
8010619c:	e3530000 	cmp	r3, #0
801061a0:	c3a07000 	movgt	r7, #0
801061a4:	d2077001 	andle	r7, r7, #1
801061a8:	e3570000 	cmp	r7, #0
801061ac:	0a0000f6 	beq	8010658c <_dtoa_r+0xbfc>
801061b0:	e59d3018 	ldr	r3, [sp, #24]
801061b4:	e3530000 	cmp	r3, #0
801061b8:	0a000293 	beq	80106c0c <_dtoa_r+0x127c>
801061bc:	e59d308c 	ldr	r3, [sp, #140]	; 0x8c
801061c0:	e1e0b003 	mvn	fp, r3
801061c4:	e59d700c 	ldr	r7, [sp, #12]
801061c8:	e1a01006 	mov	r1, r6
801061cc:	e1a00004 	mov	r0, r4
801061d0:	eb00071a 	bl	80107e40 <_Bfree>
801061d4:	e3580000 	cmp	r8, #0
801061d8:	0a000002 	beq	801061e8 <_dtoa_r+0x858>
801061dc:	e1a01008 	mov	r1, r8
801061e0:	e1a00004 	mov	r0, r4
801061e4:	eb000715 	bl	80107e40 <_Bfree>
801061e8:	e59d101c 	ldr	r1, [sp, #28]
801061ec:	e1a00004 	mov	r0, r4
801061f0:	eb000712 	bl	80107e40 <_Bfree>
801061f4:	e3a02000 	mov	r2, #0
801061f8:	e59d1098 	ldr	r1, [sp, #152]	; 0x98
801061fc:	e1510002 	cmp	r1, r2
80106200:	e59d100c 	ldr	r1, [sp, #12]
80106204:	e5c12000 	strb	r2, [r1]
80106208:	e59d2090 	ldr	r2, [sp, #144]	; 0x90
8010620c:	e28b3001 	add	r3, fp, #1
80106210:	e5823000 	str	r3, [r2]
80106214:	0afffe08 	beq	80105a3c <_dtoa_r+0xac>
80106218:	e1a00007 	mov	r0, r7
8010621c:	e59d3098 	ldr	r3, [sp, #152]	; 0x98
80106220:	e5831000 	str	r1, [r3]
80106224:	e28dd064 	add	sp, sp, #100	; 0x64
80106228:	e8bd4ff0 	pop	{r4, r5, r6, r7, r8, r9, sl, fp, lr}
8010622c:	e12fff1e 	bx	lr
80106230:	e3a03000 	mov	r3, #0
80106234:	e58d302c 	str	r3, [sp, #44]	; 0x2c
80106238:	e59d3020 	ldr	r3, [sp, #32]
8010623c:	e0433009 	sub	r3, r3, r9
80106240:	e58d3020 	str	r3, [sp, #32]
80106244:	e2693000 	rsb	r3, r9, #0
80106248:	e58d3028 	str	r3, [sp, #40]	; 0x28
8010624c:	eafffe62 	b	80105bdc <_dtoa_r+0x24c>
80106250:	e3a05000 	mov	r5, #0
80106254:	e1a00004 	mov	r0, r4
80106258:	e5845044 	str	r5, [r4, #68]	; 0x44
8010625c:	e1a01005 	mov	r1, r5
80106260:	eb0006d3 	bl	80107db4 <_Balloc>
80106264:	e59d305c 	ldr	r3, [sp, #92]	; 0x5c
80106268:	e359000e 	cmp	r9, #14
8010626c:	c3a02000 	movgt	r2, #0
80106270:	d3a02001 	movle	r2, #1
80106274:	e1530005 	cmp	r3, r5
80106278:	b3a02000 	movlt	r2, #0
8010627c:	e1520005 	cmp	r2, r5
80106280:	e58d000c 	str	r0, [sp, #12]
80106284:	e5840040 	str	r0, [r4, #64]	; 0x40
80106288:	1a00007e 	bne	80106488 <_dtoa_r+0xaf8>
8010628c:	e3e01000 	mvn	r1, #0
80106290:	e58d208c 	str	r2, [sp, #140]	; 0x8c
80106294:	e3a02001 	mov	r2, #1
80106298:	e58d103c 	str	r1, [sp, #60]	; 0x3c
8010629c:	e58d1018 	str	r1, [sp, #24]
801062a0:	e58d2024 	str	r2, [sp, #36]	; 0x24
801062a4:	e59d2088 	ldr	r2, [sp, #136]	; 0x88
801062a8:	e3520001 	cmp	r2, #1
801062ac:	da00029a 	ble	80106d1c <_dtoa_r+0x138c>
801062b0:	e59d3018 	ldr	r3, [sp, #24]
801062b4:	e2437001 	sub	r7, r3, #1
801062b8:	e59d3028 	ldr	r3, [sp, #40]	; 0x28
801062bc:	e1530007 	cmp	r3, r7
801062c0:	b59d3028 	ldrlt	r3, [sp, #40]	; 0x28
801062c4:	b59d202c 	ldrlt	r2, [sp, #44]	; 0x2c
801062c8:	b0473003 	sublt	r3, r7, r3
801062cc:	b0823003 	addlt	r3, r2, r3
801062d0:	a0437007 	subge	r7, r3, r7
801062d4:	b58d302c 	strlt	r3, [sp, #44]	; 0x2c
801062d8:	e59d3018 	ldr	r3, [sp, #24]
801062dc:	b58d7028 	strlt	r7, [sp, #40]	; 0x28
801062e0:	b3a07000 	movlt	r7, #0
801062e4:	e3530000 	cmp	r3, #0
801062e8:	a59d2010 	ldrge	r2, [sp, #16]
801062ec:	a0822003 	addge	r2, r2, r3
801062f0:	a58d2010 	strge	r2, [sp, #16]
801062f4:	a59d2020 	ldrge	r2, [sp, #32]
801062f8:	a1a05002 	movge	r5, r2
801062fc:	a0823003 	addge	r3, r2, r3
80106300:	b59d3020 	ldrlt	r3, [sp, #32]
80106304:	b59d2018 	ldrlt	r2, [sp, #24]
80106308:	a58d3020 	strge	r3, [sp, #32]
8010630c:	b0435002 	sublt	r5, r3, r2
80106310:	e3a01001 	mov	r1, #1
80106314:	e1a00004 	mov	r0, r4
80106318:	eb00077d 	bl	80108114 <__i2b>
8010631c:	e1a08000 	mov	r8, r0
80106320:	eaffff51 	b	8010606c <_dtoa_r+0x6dc>
80106324:	e51f3624 	ldr	r3, [pc, #-1572]	; 80105d08 <_dtoa_r+0x378>
80106328:	e2833020 	add	r3, r3, #32
8010632c:	e893000c 	ldm	r3, {r2, r3}
80106330:	ebfff073 	bl	80102504 <__aeabi_ddiv>
80106334:	e205500f 	and	r5, r5, #15
80106338:	e58d0030 	str	r0, [sp, #48]	; 0x30
8010633c:	e58d1034 	str	r1, [sp, #52]	; 0x34
80106340:	e3a0a003 	mov	sl, #3
80106344:	eafffe98 	b	80105dac <_dtoa_r+0x41c>
80106348:	e3a03000 	mov	r3, #0
8010634c:	e58d3024 	str	r3, [sp, #36]	; 0x24
80106350:	e59d308c 	ldr	r3, [sp, #140]	; 0x8c
80106354:	e0893003 	add	r3, r9, r3
80106358:	e58d303c 	str	r3, [sp, #60]	; 0x3c
8010635c:	e2833001 	add	r3, r3, #1
80106360:	e3530001 	cmp	r3, #1
80106364:	a1a00003 	movge	r0, r3
80106368:	b3a00001 	movlt	r0, #1
8010636c:	e58d3018 	str	r3, [sp, #24]
80106370:	e3a01000 	mov	r1, #0
80106374:	e59d3018 	ldr	r3, [sp, #24]
80106378:	e353000e 	cmp	r3, #14
8010637c:	83a05000 	movhi	r5, #0
80106380:	92055001 	andls	r5, r5, #1
80106384:	e3500017 	cmp	r0, #23
80106388:	e5841044 	str	r1, [r4, #68]	; 0x44
8010638c:	dafffe6e 	ble	80105d4c <_dtoa_r+0x3bc>
80106390:	e3a02001 	mov	r2, #1
80106394:	e3a03004 	mov	r3, #4
80106398:	e1a01002 	mov	r1, r2
8010639c:	e1a03083 	lsl	r3, r3, #1
801063a0:	e2832014 	add	r2, r3, #20
801063a4:	e1520000 	cmp	r2, r0
801063a8:	e2812001 	add	r2, r1, #1
801063ac:	9afffff9 	bls	80106398 <_dtoa_r+0xa08>
801063b0:	e5841044 	str	r1, [r4, #68]	; 0x44
801063b4:	eafffe64 	b	80105d4c <_dtoa_r+0x3bc>
801063b8:	e3a03000 	mov	r3, #0
801063bc:	e58d3024 	str	r3, [sp, #36]	; 0x24
801063c0:	e59d308c 	ldr	r3, [sp, #140]	; 0x8c
801063c4:	e3530000 	cmp	r3, #0
801063c8:	da000154 	ble	80106920 <_dtoa_r+0xf90>
801063cc:	e58d303c 	str	r3, [sp, #60]	; 0x3c
801063d0:	e58d3018 	str	r3, [sp, #24]
801063d4:	e1a00003 	mov	r0, r3
801063d8:	eaffffe4 	b	80106370 <_dtoa_r+0x9e0>
801063dc:	e3a03001 	mov	r3, #1
801063e0:	e58d3024 	str	r3, [sp, #36]	; 0x24
801063e4:	eafffff5 	b	801063c0 <_dtoa_r+0xa30>
801063e8:	e1a0000a 	mov	r0, sl
801063ec:	ebffef67 	bl	80102190 <__aeabi_i2d>
801063f0:	e28d3030 	add	r3, sp, #48	; 0x30
801063f4:	e893000c 	ldm	r3, {r2, r3}
801063f8:	ebffef9d 	bl	80102274 <__aeabi_dmul>
801063fc:	e3a02000 	mov	r2, #0
80106400:	e51f36f4 	ldr	r3, [pc, #-1780]	; 80105d14 <_dtoa_r+0x384>
80106404:	ebffee94 	bl	80101e5c <__adddf3>
80106408:	e1a07000 	mov	r7, r0
8010640c:	e241850d 	sub	r8, r1, #54525952	; 0x3400000
80106410:	e3a02000 	mov	r2, #0
80106414:	e51f371c 	ldr	r3, [pc, #-1820]	; 80105d00 <_dtoa_r+0x370>
80106418:	e28d1030 	add	r1, sp, #48	; 0x30
8010641c:	e8910003 	ldm	r1, {r0, r1}
80106420:	ebffee8c 	bl	80101e58 <__aeabi_dsub>
80106424:	e1a02007 	mov	r2, r7
80106428:	e1a03008 	mov	r3, r8
8010642c:	e1a0a000 	mov	sl, r0
80106430:	e1a0b001 	mov	fp, r1
80106434:	ebfff100 	bl	8010283c <__aeabi_dcmpgt>
80106438:	e2506000 	subs	r6, r0, #0
8010643c:	1a0000d7 	bne	801067a0 <_dtoa_r+0xe10>
80106440:	e1a02007 	mov	r2, r7
80106444:	e2883102 	add	r3, r8, #-2147483648	; 0x80000000
80106448:	e1a0000a 	mov	r0, sl
8010644c:	e1a0100b 	mov	r1, fp
80106450:	ebfff0e7 	bl	801027f4 <__aeabi_dcmplt>
80106454:	e3500000 	cmp	r0, #0
80106458:	0afffef3 	beq	8010602c <_dtoa_r+0x69c>
8010645c:	e1a08006 	mov	r8, r6
80106460:	eaffff55 	b	801061bc <_dtoa_r+0x82c>
80106464:	e3a0001c 	mov	r0, #28
80106468:	e59d3020 	ldr	r3, [sp, #32]
8010646c:	e0833000 	add	r3, r3, r0
80106470:	e58d3020 	str	r3, [sp, #32]
80106474:	e59d3010 	ldr	r3, [sp, #16]
80106478:	e0833000 	add	r3, r3, r0
8010647c:	e0855000 	add	r5, r5, r0
80106480:	e58d3010 	str	r3, [sp, #16]
80106484:	eaffff2c 	b	8010613c <_dtoa_r+0x7ac>
80106488:	e3e03000 	mvn	r3, #0
8010648c:	e58d508c 	str	r5, [sp, #140]	; 0x8c
80106490:	e58d3018 	str	r3, [sp, #24]
80106494:	e59d6018 	ldr	r6, [sp, #24]
80106498:	e3560000 	cmp	r6, #0
8010649c:	c3a02000 	movgt	r2, #0
801064a0:	d3a02001 	movle	r2, #1
801064a4:	e51f37a8 	ldr	r3, [pc, #-1960]	; 80105d04 <_dtoa_r+0x374>
801064a8:	e59d008c 	ldr	r0, [sp, #140]	; 0x8c
801064ac:	e0833189 	add	r3, r3, r9, lsl #3
801064b0:	e0122fa0 	ands	r2, r2, r0, lsr #31
801064b4:	e893000c 	ldm	r3, {r2, r3}
801064b8:	e58d2010 	str	r2, [sp, #16]
801064bc:	e58d3014 	str	r3, [sp, #20]
801064c0:	0a00015e 	beq	80106a40 <_dtoa_r+0x10b0>
801064c4:	e3560000 	cmp	r6, #0
801064c8:	1a00024d 	bne	80106e04 <_dtoa_r+0x1474>
801064cc:	e1a00002 	mov	r0, r2
801064d0:	e1a01003 	mov	r1, r3
801064d4:	e3a02000 	mov	r2, #0
801064d8:	e51f37e0 	ldr	r3, [pc, #-2016]	; 80105d00 <_dtoa_r+0x370>
801064dc:	ebffef64 	bl	80102274 <__aeabi_dmul>
801064e0:	e1a0200a 	mov	r2, sl
801064e4:	e1a0300b 	mov	r3, fp
801064e8:	ebfff0cd 	bl	80102824 <__aeabi_dcmpge>
801064ec:	e3500000 	cmp	r0, #0
801064f0:	0a0000ab 	beq	801067a4 <_dtoa_r+0xe14>
801064f4:	e59d6018 	ldr	r6, [sp, #24]
801064f8:	eaffffd7 	b	8010645c <_dtoa_r+0xacc>
801064fc:	e1a01000 	mov	r1, r0
80106500:	e1a00004 	mov	r0, r4
80106504:	eb00078b 	bl	80108338 <__pow5mult>
80106508:	e59d3088 	ldr	r3, [sp, #136]	; 0x88
8010650c:	e3530001 	cmp	r3, #1
80106510:	e1a06000 	mov	r6, r0
80106514:	ca0000fe 	bgt	80106914 <_dtoa_r+0xf84>
80106518:	e35a0000 	cmp	sl, #0
8010651c:	1a0000fc 	bne	80106914 <_dtoa_r+0xf84>
80106520:	e3cb34ff 	bic	r3, fp, #-16777216	; 0xff000000
80106524:	e3c3360f 	bic	r3, r3, #15728640	; 0xf00000
80106528:	e3530000 	cmp	r3, #0
8010652c:	13a03000 	movne	r3, #0
80106530:	1a00000b 	bne	80106564 <_dtoa_r+0xbd4>
80106534:	e3cb3102 	bic	r3, fp, #-2147483648	; 0x80000000
80106538:	e1a03a23 	lsr	r3, r3, #20
8010653c:	e1a03a03 	lsl	r3, r3, #20
80106540:	e3530000 	cmp	r3, #0
80106544:	0a000006 	beq	80106564 <_dtoa_r+0xbd4>
80106548:	e59d3020 	ldr	r3, [sp, #32]
8010654c:	e2833001 	add	r3, r3, #1
80106550:	e58d3020 	str	r3, [sp, #32]
80106554:	e59d3010 	ldr	r3, [sp, #16]
80106558:	e2833001 	add	r3, r3, #1
8010655c:	e58d3010 	str	r3, [sp, #16]
80106560:	e3a03001 	mov	r3, #1
80106564:	e59d202c 	ldr	r2, [sp, #44]	; 0x2c
80106568:	e3520000 	cmp	r2, #0
8010656c:	e58d302c 	str	r3, [sp, #44]	; 0x2c
80106570:	0afffee2 	beq	80106100 <_dtoa_r+0x770>
80106574:	e5963010 	ldr	r3, [r6, #16]
80106578:	e0863103 	add	r3, r6, r3, lsl #2
8010657c:	e5930010 	ldr	r0, [r3, #16]
80106580:	eb0006a5 	bl	8010801c <__hi0bits>
80106584:	e2600020 	rsb	r0, r0, #32
80106588:	eafffedd 	b	80106104 <_dtoa_r+0x774>
8010658c:	e59d3024 	ldr	r3, [sp, #36]	; 0x24
80106590:	e3530000 	cmp	r3, #0
80106594:	0a0000a2 	beq	80106824 <_dtoa_r+0xe94>
80106598:	e3550000 	cmp	r5, #0
8010659c:	da000004 	ble	801065b4 <_dtoa_r+0xc24>
801065a0:	e1a01008 	mov	r1, r8
801065a4:	e1a02005 	mov	r2, r5
801065a8:	e1a00004 	mov	r0, r4
801065ac:	eb0007a2 	bl	8010843c <__lshift>
801065b0:	e1a08000 	mov	r8, r0
801065b4:	e59d302c 	ldr	r3, [sp, #44]	; 0x2c
801065b8:	e3530000 	cmp	r3, #0
801065bc:	058d802c 	streq	r8, [sp, #44]	; 0x2c
801065c0:	1a000212 	bne	80106e10 <_dtoa_r+0x1480>
801065c4:	e59d300c 	ldr	r3, [sp, #12]
801065c8:	e20a2001 	and	r2, sl, #1
801065cc:	e58d2020 	str	r2, [sp, #32]
801065d0:	e59d2018 	ldr	r2, [sp, #24]
801065d4:	e1a07003 	mov	r7, r3
801065d8:	e2433001 	sub	r3, r3, #1
801065dc:	e0833002 	add	r3, r3, r2
801065e0:	e58d9038 	str	r9, [sp, #56]	; 0x38
801065e4:	e1a0b006 	mov	fp, r6
801065e8:	e58d3024 	str	r3, [sp, #36]	; 0x24
801065ec:	e59d902c 	ldr	r9, [sp, #44]	; 0x2c
801065f0:	e59d601c 	ldr	r6, [sp, #28]
801065f4:	ea000008 	b	8010661c <_dtoa_r+0xc8c>
801065f8:	eb000617 	bl	80107e5c <__multadd>
801065fc:	e1a01009 	mov	r1, r9
80106600:	e1a08000 	mov	r8, r0
80106604:	e3a03000 	mov	r3, #0
80106608:	e3a0200a 	mov	r2, #10
8010660c:	e1a00004 	mov	r0, r4
80106610:	eb000611 	bl	80107e5c <__multadd>
80106614:	e1a09000 	mov	r9, r0
80106618:	e1a07005 	mov	r7, r5
8010661c:	e1a0100b 	mov	r1, fp
80106620:	e1a00006 	mov	r0, r6
80106624:	ebfffc5e 	bl	801057a4 <quorem>
80106628:	e1a01008 	mov	r1, r8
8010662c:	e1a05000 	mov	r5, r0
80106630:	e58d0028 	str	r0, [sp, #40]	; 0x28
80106634:	e1a00006 	mov	r0, r6
80106638:	eb0007bc 	bl	80108530 <__mcmp>
8010663c:	e1a02009 	mov	r2, r9
80106640:	e1a0a000 	mov	sl, r0
80106644:	e1a0100b 	mov	r1, fp
80106648:	e1a00004 	mov	r0, r4
8010664c:	eb0007cf 	bl	80108590 <__mdiff>
80106650:	e590300c 	ldr	r3, [r0, #12]
80106654:	e3530000 	cmp	r3, #0
80106658:	e2853030 	add	r3, r5, #48	; 0x30
8010665c:	e1a02000 	mov	r2, r0
80106660:	e58d3010 	str	r3, [sp, #16]
80106664:	13a05001 	movne	r5, #1
80106668:	1a000005 	bne	80106684 <_dtoa_r+0xcf4>
8010666c:	e1a01000 	mov	r1, r0
80106670:	e58d0018 	str	r0, [sp, #24]
80106674:	e1a00006 	mov	r0, r6
80106678:	eb0007ac 	bl	80108530 <__mcmp>
8010667c:	e1a05000 	mov	r5, r0
80106680:	e59d2018 	ldr	r2, [sp, #24]
80106684:	e1a01002 	mov	r1, r2
80106688:	e1a00004 	mov	r0, r4
8010668c:	eb0005eb 	bl	80107e40 <_Bfree>
80106690:	e59d3088 	ldr	r3, [sp, #136]	; 0x88
80106694:	e1953003 	orrs	r3, r5, r3
80106698:	1a000002 	bne	801066a8 <_dtoa_r+0xd18>
8010669c:	e59d3020 	ldr	r3, [sp, #32]
801066a0:	e3530000 	cmp	r3, #0
801066a4:	0a000216 	beq	80106f04 <_dtoa_r+0x1574>
801066a8:	e35a0000 	cmp	sl, #0
801066ac:	ba0001c6 	blt	80106dcc <_dtoa_r+0x143c>
801066b0:	e59d3088 	ldr	r3, [sp, #136]	; 0x88
801066b4:	e19a3003 	orrs	r3, sl, r3
801066b8:	1a000002 	bne	801066c8 <_dtoa_r+0xd38>
801066bc:	e59d3020 	ldr	r3, [sp, #32]
801066c0:	e3530000 	cmp	r3, #0
801066c4:	0a0001c0 	beq	80106dcc <_dtoa_r+0x143c>
801066c8:	e3550000 	cmp	r5, #0
801066cc:	e2875001 	add	r5, r7, #1
801066d0:	ca0001e3 	bgt	80106e64 <_dtoa_r+0x14d4>
801066d4:	e59d3024 	ldr	r3, [sp, #36]	; 0x24
801066d8:	e1530007 	cmp	r3, r7
801066dc:	e59d3010 	ldr	r3, [sp, #16]
801066e0:	e5c73000 	strb	r3, [r7]
801066e4:	0a0001eb 	beq	80106e98 <_dtoa_r+0x1508>
801066e8:	e1a01006 	mov	r1, r6
801066ec:	e3a03000 	mov	r3, #0
801066f0:	e3a0200a 	mov	r2, #10
801066f4:	e1a00004 	mov	r0, r4
801066f8:	eb0005d7 	bl	80107e5c <__multadd>
801066fc:	e1580009 	cmp	r8, r9
80106700:	e1a06000 	mov	r6, r0
80106704:	e1a01008 	mov	r1, r8
80106708:	e3a03000 	mov	r3, #0
8010670c:	e3a0200a 	mov	r2, #10
80106710:	e1a00004 	mov	r0, r4
80106714:	1affffb7 	bne	801065f8 <_dtoa_r+0xc68>
80106718:	eb0005cf 	bl	80107e5c <__multadd>
8010671c:	e1a08000 	mov	r8, r0
80106720:	e1a09000 	mov	r9, r0
80106724:	eaffffbb 	b	80106618 <_dtoa_r+0xc88>
80106728:	0a000164 	beq	80106cc0 <_dtoa_r+0x1330>
8010672c:	e2696000 	rsb	r6, r9, #0
80106730:	e51f3a34 	ldr	r3, [pc, #-2612]	; 80105d04 <_dtoa_r+0x374>
80106734:	e206200f 	and	r2, r6, #15
80106738:	e0833182 	add	r3, r3, r2, lsl #3
8010673c:	e893000c 	ldm	r3, {r2, r3}
80106740:	e28d1040 	add	r1, sp, #64	; 0x40
80106744:	e8910003 	ldm	r1, {r0, r1}
80106748:	ebffeec9 	bl	80102274 <__aeabi_dmul>
8010674c:	e1b06246 	asrs	r6, r6, #4
80106750:	e58d0030 	str	r0, [sp, #48]	; 0x30
80106754:	e58d1034 	str	r1, [sp, #52]	; 0x34
80106758:	03a0a002 	moveq	sl, #2
8010675c:	0afffda8 	beq	80105e04 <_dtoa_r+0x474>
80106760:	e3a03000 	mov	r3, #0
80106764:	e3a0a002 	mov	sl, #2
80106768:	e51f7a68 	ldr	r7, [pc, #-2664]	; 80105d08 <_dtoa_r+0x378>
8010676c:	e3160001 	tst	r6, #1
80106770:	0a000003 	beq	80106784 <_dtoa_r+0xdf4>
80106774:	e897000c 	ldm	r7, {r2, r3}
80106778:	ebffeebd 	bl	80102274 <__aeabi_dmul>
8010677c:	e1a03005 	mov	r3, r5
80106780:	e28aa001 	add	sl, sl, #1
80106784:	e1b060c6 	asrs	r6, r6, #1
80106788:	e2877008 	add	r7, r7, #8
8010678c:	1afffff6 	bne	8010676c <_dtoa_r+0xddc>
80106790:	e3530000 	cmp	r3, #0
80106794:	158d0030 	strne	r0, [sp, #48]	; 0x30
80106798:	158d1034 	strne	r1, [sp, #52]	; 0x34
8010679c:	eafffd98 	b	80105e04 <_dtoa_r+0x474>
801067a0:	e3a06000 	mov	r6, #0
801067a4:	e1a08006 	mov	r8, r6
801067a8:	e3a03031 	mov	r3, #49	; 0x31
801067ac:	e59d200c 	ldr	r2, [sp, #12]
801067b0:	e5c23000 	strb	r3, [r2]
801067b4:	e2823001 	add	r3, r2, #1
801067b8:	e289b001 	add	fp, r9, #1
801067bc:	e1a07002 	mov	r7, r2
801067c0:	e58d300c 	str	r3, [sp, #12]
801067c4:	eafffe7f 	b	801061c8 <_dtoa_r+0x838>
801067c8:	e1a01006 	mov	r1, r6
801067cc:	e59d001c 	ldr	r0, [sp, #28]
801067d0:	eb000756 	bl	80108530 <__mcmp>
801067d4:	e3500000 	cmp	r0, #0
801067d8:	aafffe6e 	bge	80106198 <_dtoa_r+0x808>
801067dc:	e3a03000 	mov	r3, #0
801067e0:	e59dc03c 	ldr	ip, [sp, #60]	; 0x3c
801067e4:	e59d101c 	ldr	r1, [sp, #28]
801067e8:	e3a0200a 	mov	r2, #10
801067ec:	e1a00004 	mov	r0, r4
801067f0:	e15c0003 	cmp	ip, r3
801067f4:	c3a07000 	movgt	r7, #0
801067f8:	d2077001 	andle	r7, r7, #1
801067fc:	eb000596 	bl	80107e5c <__multadd>
80106800:	e59d3024 	ldr	r3, [sp, #36]	; 0x24
80106804:	e3530000 	cmp	r3, #0
80106808:	e58d001c 	str	r0, [sp, #28]
8010680c:	e2499001 	sub	r9, r9, #1
80106810:	1a0001c6 	bne	80106f30 <_dtoa_r+0x15a0>
80106814:	e59d303c 	ldr	r3, [sp, #60]	; 0x3c
80106818:	e3570000 	cmp	r7, #0
8010681c:	e58d3018 	str	r3, [sp, #24]
80106820:	1afffe62 	bne	801061b0 <_dtoa_r+0x820>
80106824:	e59da00c 	ldr	sl, [sp, #12]
80106828:	e59db018 	ldr	fp, [sp, #24]
8010682c:	e1a0500a 	mov	r5, sl
80106830:	e59d701c 	ldr	r7, [sp, #28]
80106834:	ea000005 	b	80106850 <_dtoa_r+0xec0>
80106838:	e1a01007 	mov	r1, r7
8010683c:	e3a03000 	mov	r3, #0
80106840:	e3a0200a 	mov	r2, #10
80106844:	e1a00004 	mov	r0, r4
80106848:	eb000583 	bl	80107e5c <__multadd>
8010684c:	e1a07000 	mov	r7, r0
80106850:	e1a01006 	mov	r1, r6
80106854:	e1a00007 	mov	r0, r7
80106858:	ebfffbd1 	bl	801057a4 <quorem>
8010685c:	e2800030 	add	r0, r0, #48	; 0x30
80106860:	e4c50001 	strb	r0, [r5], #1
80106864:	e045300a 	sub	r3, r5, sl
80106868:	e153000b 	cmp	r3, fp
8010686c:	bafffff1 	blt	80106838 <_dtoa_r+0xea8>
80106870:	e1a0b000 	mov	fp, r0
80106874:	e3a0a000 	mov	sl, #0
80106878:	e58d701c 	str	r7, [sp, #28]
8010687c:	e3a02001 	mov	r2, #1
80106880:	e59d101c 	ldr	r1, [sp, #28]
80106884:	e1a00004 	mov	r0, r4
80106888:	eb0006eb 	bl	8010843c <__lshift>
8010688c:	e1a01006 	mov	r1, r6
80106890:	e58d001c 	str	r0, [sp, #28]
80106894:	eb000725 	bl	80108530 <__mcmp>
80106898:	e3500000 	cmp	r0, #0
8010689c:	e5552001 	ldrb	r2, [r5, #-1]
801068a0:	da00013e 	ble	80106da0 <_dtoa_r+0x1410>
801068a4:	e59d100c 	ldr	r1, [sp, #12]
801068a8:	ea000003 	b	801068bc <_dtoa_r+0xf2c>
801068ac:	e1530001 	cmp	r3, r1
801068b0:	0a000135 	beq	80106d8c <_dtoa_r+0x13fc>
801068b4:	e1a05003 	mov	r5, r3
801068b8:	e5532001 	ldrb	r2, [r3, #-1]
801068bc:	e3520039 	cmp	r2, #57	; 0x39
801068c0:	e2453001 	sub	r3, r5, #1
801068c4:	0afffff8 	beq	801068ac <_dtoa_r+0xf1c>
801068c8:	e1a0b009 	mov	fp, r9
801068cc:	e2822001 	add	r2, r2, #1
801068d0:	e5c32000 	strb	r2, [r3]
801068d4:	e1a01006 	mov	r1, r6
801068d8:	e1a00004 	mov	r0, r4
801068dc:	eb000557 	bl	80107e40 <_Bfree>
801068e0:	e3580000 	cmp	r8, #0
801068e4:	0a00004f 	beq	80106a28 <_dtoa_r+0x1098>
801068e8:	e35a0000 	cmp	sl, #0
801068ec:	115a0008 	cmpne	sl, r8
801068f0:	059d700c 	ldreq	r7, [sp, #12]
801068f4:	058d500c 	streq	r5, [sp, #12]
801068f8:	0afffe37 	beq	801061dc <_dtoa_r+0x84c>
801068fc:	e1a0100a 	mov	r1, sl
80106900:	e1a00004 	mov	r0, r4
80106904:	e59d700c 	ldr	r7, [sp, #12]
80106908:	eb00054c 	bl	80107e40 <_Bfree>
8010690c:	e58d500c 	str	r5, [sp, #12]
80106910:	eafffe31 	b	801061dc <_dtoa_r+0x84c>
80106914:	e3a03000 	mov	r3, #0
80106918:	e58d302c 	str	r3, [sp, #44]	; 0x2c
8010691c:	eaffff14 	b	80106574 <_dtoa_r+0xbe4>
80106920:	e3a03001 	mov	r3, #1
80106924:	e58d308c 	str	r3, [sp, #140]	; 0x8c
80106928:	e58d3018 	str	r3, [sp, #24]
8010692c:	eafffd02 	b	80105d3c <_dtoa_r+0x3ac>
80106930:	e1a00006 	mov	r0, r6
80106934:	e1a01007 	mov	r1, r7
80106938:	ebffee4d 	bl	80102274 <__aeabi_dmul>
8010693c:	e59d304c 	ldr	r3, [sp, #76]	; 0x4c
80106940:	e3530001 	cmp	r3, #1
80106944:	e59d300c 	ldr	r3, [sp, #12]
80106948:	e58d0050 	str	r0, [sp, #80]	; 0x50
8010694c:	e58d1054 	str	r1, [sp, #84]	; 0x54
80106950:	e5c3a000 	strb	sl, [r3]
80106954:	0a000019 	beq	801069c0 <_dtoa_r+0x1030>
80106958:	e1a07009 	mov	r7, r9
8010695c:	e59d300c 	ldr	r3, [sp, #12]
80106960:	e59d204c 	ldr	r2, [sp, #76]	; 0x4c
80106964:	e28d1030 	add	r1, sp, #48	; 0x30
80106968:	e8910003 	ldm	r1, {r0, r1}
8010696c:	e083a002 	add	sl, r3, r2
80106970:	e3a02000 	mov	r2, #0
80106974:	e51f3c6c 	ldr	r3, [pc, #-3180]	; 80105d10 <_dtoa_r+0x380>
80106978:	ebffee3d 	bl	80102274 <__aeabi_dmul>
8010697c:	e1a09001 	mov	r9, r1
80106980:	e1a08000 	mov	r8, r0
80106984:	ebffefc0 	bl	8010288c <__aeabi_d2iz>
80106988:	e1a06000 	mov	r6, r0
8010698c:	ebffedff 	bl	80102190 <__aeabi_i2d>
80106990:	e2866030 	add	r6, r6, #48	; 0x30
80106994:	e1a02000 	mov	r2, r0
80106998:	e1a03001 	mov	r3, r1
8010699c:	e1a00008 	mov	r0, r8
801069a0:	e1a01009 	mov	r1, r9
801069a4:	ebffed2b 	bl	80101e58 <__aeabi_dsub>
801069a8:	e4c56001 	strb	r6, [r5], #1
801069ac:	e155000a 	cmp	r5, sl
801069b0:	1affffee 	bne	80106970 <_dtoa_r+0xfe0>
801069b4:	e1a09007 	mov	r9, r7
801069b8:	e58d0030 	str	r0, [sp, #48]	; 0x30
801069bc:	e58d1034 	str	r1, [sp, #52]	; 0x34
801069c0:	e3a02000 	mov	r2, #0
801069c4:	e51f3cc0 	ldr	r3, [pc, #-3264]	; 80105d0c <_dtoa_r+0x37c>
801069c8:	e28d1050 	add	r1, sp, #80	; 0x50
801069cc:	e8910003 	ldm	r1, {r0, r1}
801069d0:	ebffed21 	bl	80101e5c <__adddf3>
801069d4:	e28d3030 	add	r3, sp, #48	; 0x30
801069d8:	e893000c 	ldm	r3, {r2, r3}
801069dc:	ebffef84 	bl	801027f4 <__aeabi_dcmplt>
801069e0:	e3500000 	cmp	r0, #0
801069e4:	1a000078 	bne	80106bcc <_dtoa_r+0x123c>
801069e8:	e28d3050 	add	r3, sp, #80	; 0x50
801069ec:	e893000c 	ldm	r3, {r2, r3}
801069f0:	e3a00000 	mov	r0, #0
801069f4:	e51f1cf0 	ldr	r1, [pc, #-3312]	; 80105d0c <_dtoa_r+0x37c>
801069f8:	ebffed16 	bl	80101e58 <__aeabi_dsub>
801069fc:	e28d3030 	add	r3, sp, #48	; 0x30
80106a00:	e893000c 	ldm	r3, {r2, r3}
80106a04:	ebffef8c 	bl	8010283c <__aeabi_dcmpgt>
80106a08:	e3500000 	cmp	r0, #0
80106a0c:	1a000001 	bne	80106a18 <_dtoa_r+0x1088>
80106a10:	eafffd85 	b	8010602c <_dtoa_r+0x69c>
80106a14:	e1a05003 	mov	r5, r3
80106a18:	e5553001 	ldrb	r3, [r5, #-1]
80106a1c:	e3530030 	cmp	r3, #48	; 0x30
80106a20:	e2453001 	sub	r3, r5, #1
80106a24:	0afffffa 	beq	80106a14 <_dtoa_r+0x1084>
80106a28:	e59d700c 	ldr	r7, [sp, #12]
80106a2c:	e58d500c 	str	r5, [sp, #12]
80106a30:	eafffdec 	b	801061e8 <_dtoa_r+0x858>
80106a34:	e3a03001 	mov	r3, #1
80106a38:	e58d3024 	str	r3, [sp, #36]	; 0x24
80106a3c:	eafffe43 	b	80106350 <_dtoa_r+0x9c0>
80106a40:	e28d6010 	add	r6, sp, #16
80106a44:	e8960060 	ldm	r6, {r5, r6}
80106a48:	e1a0000a 	mov	r0, sl
80106a4c:	e1a02005 	mov	r2, r5
80106a50:	e1a03006 	mov	r3, r6
80106a54:	e1a0100b 	mov	r1, fp
80106a58:	ebffeea9 	bl	80102504 <__aeabi_ddiv>
80106a5c:	ebffef8a 	bl	8010288c <__aeabi_d2iz>
80106a60:	e1a08000 	mov	r8, r0
80106a64:	ebffedc9 	bl	80102190 <__aeabi_i2d>
80106a68:	e1a02005 	mov	r2, r5
80106a6c:	e1a03006 	mov	r3, r6
80106a70:	ebffedff 	bl	80102274 <__aeabi_dmul>
80106a74:	e1a02000 	mov	r2, r0
80106a78:	e1a03001 	mov	r3, r1
80106a7c:	e1a0000a 	mov	r0, sl
80106a80:	e1a0100b 	mov	r1, fp
80106a84:	ebffecf3 	bl	80101e58 <__aeabi_dsub>
80106a88:	e59dc018 	ldr	ip, [sp, #24]
80106a8c:	e59de00c 	ldr	lr, [sp, #12]
80106a90:	e35c0001 	cmp	ip, #1
80106a94:	e288c030 	add	ip, r8, #48	; 0x30
80106a98:	e1a02000 	mov	r2, r0
80106a9c:	e1a03001 	mov	r3, r1
80106aa0:	e5cec000 	strb	ip, [lr]
80106aa4:	e28e5001 	add	r5, lr, #1
80106aa8:	0a000033 	beq	80106b7c <_dtoa_r+0x11ec>
80106aac:	e3a02000 	mov	r2, #0
80106ab0:	e51f3da8 	ldr	r3, [pc, #-3496]	; 80105d10 <_dtoa_r+0x380>
80106ab4:	ebffedee 	bl	80102274 <__aeabi_dmul>
80106ab8:	e3a02000 	mov	r2, #0
80106abc:	e3a03000 	mov	r3, #0
80106ac0:	e1a06000 	mov	r6, r0
80106ac4:	e1a07001 	mov	r7, r1
80106ac8:	ebffef43 	bl	801027dc <__aeabi_dcmpeq>
80106acc:	e3500000 	cmp	r0, #0
80106ad0:	1a0000a2 	bne	80106d60 <_dtoa_r+0x13d0>
80106ad4:	e58d9020 	str	r9, [sp, #32]
80106ad8:	e58d4024 	str	r4, [sp, #36]	; 0x24
80106adc:	e3a0a000 	mov	sl, #0
80106ae0:	e3a0b000 	mov	fp, #0
80106ae4:	e59d900c 	ldr	r9, [sp, #12]
80106ae8:	e59d4018 	ldr	r4, [sp, #24]
80106aec:	ea000009 	b	80106b18 <_dtoa_r+0x1188>
80106af0:	e3a02000 	mov	r2, #0
80106af4:	e51f3dec 	ldr	r3, [pc, #-3564]	; 80105d10 <_dtoa_r+0x380>
80106af8:	ebffeddd 	bl	80102274 <__aeabi_dmul>
80106afc:	e1a0200a 	mov	r2, sl
80106b00:	e1a0300b 	mov	r3, fp
80106b04:	e1a06000 	mov	r6, r0
80106b08:	e1a07001 	mov	r7, r1
80106b0c:	ebffef32 	bl	801027dc <__aeabi_dcmpeq>
80106b10:	e3500000 	cmp	r0, #0
80106b14:	1a00008f 	bne	80106d58 <_dtoa_r+0x13c8>
80106b18:	e28d3010 	add	r3, sp, #16
80106b1c:	e893000c 	ldm	r3, {r2, r3}
80106b20:	e1a00006 	mov	r0, r6
80106b24:	e1a01007 	mov	r1, r7
80106b28:	ebffee75 	bl	80102504 <__aeabi_ddiv>
80106b2c:	ebffef56 	bl	8010288c <__aeabi_d2iz>
80106b30:	e1a08000 	mov	r8, r0
80106b34:	ebffed95 	bl	80102190 <__aeabi_i2d>
80106b38:	e28d3010 	add	r3, sp, #16
80106b3c:	e893000c 	ldm	r3, {r2, r3}
80106b40:	ebffedcb 	bl	80102274 <__aeabi_dmul>
80106b44:	e1a02000 	mov	r2, r0
80106b48:	e1a03001 	mov	r3, r1
80106b4c:	e1a00006 	mov	r0, r6
80106b50:	e1a01007 	mov	r1, r7
80106b54:	ebffecbf 	bl	80101e58 <__aeabi_dsub>
80106b58:	e288c030 	add	ip, r8, #48	; 0x30
80106b5c:	e4c5c001 	strb	ip, [r5], #1
80106b60:	e045c009 	sub	ip, r5, r9
80106b64:	e15c0004 	cmp	ip, r4
80106b68:	e1a02000 	mov	r2, r0
80106b6c:	e1a03001 	mov	r3, r1
80106b70:	1affffde 	bne	80106af0 <_dtoa_r+0x1160>
80106b74:	e59d9020 	ldr	r9, [sp, #32]
80106b78:	e59d4024 	ldr	r4, [sp, #36]	; 0x24
80106b7c:	e1a00002 	mov	r0, r2
80106b80:	e1a01003 	mov	r1, r3
80106b84:	ebffecb4 	bl	80101e5c <__adddf3>
80106b88:	e28d3010 	add	r3, sp, #16
80106b8c:	e893000c 	ldm	r3, {r2, r3}
80106b90:	e1a06000 	mov	r6, r0
80106b94:	e1a07001 	mov	r7, r1
80106b98:	ebffef27 	bl	8010283c <__aeabi_dcmpgt>
80106b9c:	e3500000 	cmp	r0, #0
80106ba0:	1a000008 	bne	80106bc8 <_dtoa_r+0x1238>
80106ba4:	e28d3010 	add	r3, sp, #16
80106ba8:	e893000c 	ldm	r3, {r2, r3}
80106bac:	e1a00006 	mov	r0, r6
80106bb0:	e1a01007 	mov	r1, r7
80106bb4:	ebffef08 	bl	801027dc <__aeabi_dcmpeq>
80106bb8:	e3500000 	cmp	r0, #0
80106bbc:	0a000067 	beq	80106d60 <_dtoa_r+0x13d0>
80106bc0:	e3180001 	tst	r8, #1
80106bc4:	0a000065 	beq	80106d60 <_dtoa_r+0x13d0>
80106bc8:	e1a0b009 	mov	fp, r9
80106bcc:	e555a001 	ldrb	sl, [r5, #-1]
80106bd0:	e59d200c 	ldr	r2, [sp, #12]
80106bd4:	ea000003 	b	80106be8 <_dtoa_r+0x1258>
80106bd8:	e1530002 	cmp	r3, r2
80106bdc:	0a000063 	beq	80106d70 <_dtoa_r+0x13e0>
80106be0:	e1a05003 	mov	r5, r3
80106be4:	e553a001 	ldrb	sl, [r3, #-1]
80106be8:	e35a0039 	cmp	sl, #57	; 0x39
80106bec:	e2453001 	sub	r3, r5, #1
80106bf0:	0afffff8 	beq	80106bd8 <_dtoa_r+0x1248>
80106bf4:	e58d200c 	str	r2, [sp, #12]
80106bf8:	e28aa001 	add	sl, sl, #1
80106bfc:	e59d700c 	ldr	r7, [sp, #12]
80106c00:	e5c3a000 	strb	sl, [r3]
80106c04:	e58d500c 	str	r5, [sp, #12]
80106c08:	eafffd76 	b	801061e8 <_dtoa_r+0x858>
80106c0c:	e1a01006 	mov	r1, r6
80106c10:	e3a02005 	mov	r2, #5
80106c14:	e1a00004 	mov	r0, r4
80106c18:	eb00048f 	bl	80107e5c <__multadd>
80106c1c:	e1a01000 	mov	r1, r0
80106c20:	e1a06000 	mov	r6, r0
80106c24:	e59d001c 	ldr	r0, [sp, #28]
80106c28:	eb000640 	bl	80108530 <__mcmp>
80106c2c:	e3500000 	cmp	r0, #0
80106c30:	cafffedc 	bgt	801067a8 <_dtoa_r+0xe18>
80106c34:	eafffd60 	b	801061bc <_dtoa_r+0x82c>
80106c38:	e59d2028 	ldr	r2, [sp, #40]	; 0x28
80106c3c:	e59d101c 	ldr	r1, [sp, #28]
80106c40:	e1a00004 	mov	r0, r4
80106c44:	eb0005bb 	bl	80108338 <__pow5mult>
80106c48:	e58d001c 	str	r0, [sp, #28]
80106c4c:	eafffd21 	b	801060d8 <_dtoa_r+0x748>
80106c50:	e59d3018 	ldr	r3, [sp, #24]
80106c54:	e3530000 	cmp	r3, #0
80106c58:	0afffde2 	beq	801063e8 <_dtoa_r+0xa58>
80106c5c:	e59d503c 	ldr	r5, [sp, #60]	; 0x3c
80106c60:	e3550000 	cmp	r5, #0
80106c64:	dafffcf0 	ble	8010602c <_dtoa_r+0x69c>
80106c68:	e3a02000 	mov	r2, #0
80106c6c:	e51f3f64 	ldr	r3, [pc, #-3940]	; 80105d10 <_dtoa_r+0x380>
80106c70:	e28d1030 	add	r1, sp, #48	; 0x30
80106c74:	e8910003 	ldm	r1, {r0, r1}
80106c78:	ebffed7d 	bl	80102274 <__aeabi_dmul>
80106c7c:	e1a07001 	mov	r7, r1
80106c80:	e1a06000 	mov	r6, r0
80106c84:	e28a0001 	add	r0, sl, #1
80106c88:	e58d6030 	str	r6, [sp, #48]	; 0x30
80106c8c:	e58d7034 	str	r7, [sp, #52]	; 0x34
80106c90:	ebffed3e 	bl	80102190 <__aeabi_i2d>
80106c94:	e1a03007 	mov	r3, r7
80106c98:	e1a02006 	mov	r2, r6
80106c9c:	ebffed74 	bl	80102274 <__aeabi_dmul>
80106ca0:	e3a02000 	mov	r2, #0
80106ca4:	e51f3f98 	ldr	r3, [pc, #-3992]	; 80105d14 <_dtoa_r+0x384>
80106ca8:	ebffec6b 	bl	80101e5c <__adddf3>
80106cac:	e249b001 	sub	fp, r9, #1
80106cb0:	e1a07000 	mov	r7, r0
80106cb4:	e241850d 	sub	r8, r1, #54525952	; 0x3400000
80106cb8:	e58d504c 	str	r5, [sp, #76]	; 0x4c
80106cbc:	eafffc6a 	b	80105e6c <_dtoa_r+0x4dc>
80106cc0:	e28d3040 	add	r3, sp, #64	; 0x40
80106cc4:	e893000c 	ldm	r3, {r2, r3}
80106cc8:	e3a0a002 	mov	sl, #2
80106ccc:	e58d2030 	str	r2, [sp, #48]	; 0x30
80106cd0:	e58d3034 	str	r3, [sp, #52]	; 0x34
80106cd4:	eafffc4a 	b	80105e04 <_dtoa_r+0x474>
80106cd8:	e1a02007 	mov	r2, r7
80106cdc:	e1a01008 	mov	r1, r8
80106ce0:	e1a00004 	mov	r0, r4
80106ce4:	eb000593 	bl	80108338 <__pow5mult>
80106ce8:	e59d201c 	ldr	r2, [sp, #28]
80106cec:	e1a01000 	mov	r1, r0
80106cf0:	e1a08000 	mov	r8, r0
80106cf4:	e1a00004 	mov	r0, r4
80106cf8:	eb00050e 	bl	80108138 <__multiply>
80106cfc:	e1a07000 	mov	r7, r0
80106d00:	e59d101c 	ldr	r1, [sp, #28]
80106d04:	e1a00004 	mov	r0, r4
80106d08:	eb00044c 	bl	80107e40 <_Bfree>
80106d0c:	e3560000 	cmp	r6, #0
80106d10:	e58d701c 	str	r7, [sp, #28]
80106d14:	0afffcef 	beq	801060d8 <_dtoa_r+0x748>
80106d18:	eafffce9 	b	801060c4 <_dtoa_r+0x734>
80106d1c:	e59d2048 	ldr	r2, [sp, #72]	; 0x48
80106d20:	e3520000 	cmp	r2, #0
80106d24:	059d3058 	ldreq	r3, [sp, #88]	; 0x58
80106d28:	12833e43 	addne	r3, r3, #1072	; 0x430
80106d2c:	e59d2010 	ldr	r2, [sp, #16]
80106d30:	12833003 	addne	r3, r3, #3
80106d34:	02633036 	rsbeq	r3, r3, #54	; 0x36
80106d38:	e0822003 	add	r2, r2, r3
80106d3c:	e58d2010 	str	r2, [sp, #16]
80106d40:	e59d2020 	ldr	r2, [sp, #32]
80106d44:	e0823003 	add	r3, r2, r3
80106d48:	e1a05002 	mov	r5, r2
80106d4c:	e58d3020 	str	r3, [sp, #32]
80106d50:	e59d7028 	ldr	r7, [sp, #40]	; 0x28
80106d54:	eafffd6d 	b	80106310 <_dtoa_r+0x980>
80106d58:	e59d9020 	ldr	r9, [sp, #32]
80106d5c:	e59d4024 	ldr	r4, [sp, #36]	; 0x24
80106d60:	e59d700c 	ldr	r7, [sp, #12]
80106d64:	e1a0b009 	mov	fp, r9
80106d68:	e58d500c 	str	r5, [sp, #12]
80106d6c:	eafffd1d 	b	801061e8 <_dtoa_r+0x858>
80106d70:	e3a03030 	mov	r3, #48	; 0x30
80106d74:	e5c23000 	strb	r3, [r2]
80106d78:	e58d200c 	str	r2, [sp, #12]
80106d7c:	e28bb001 	add	fp, fp, #1
80106d80:	e555a001 	ldrb	sl, [r5, #-1]
80106d84:	e1a03002 	mov	r3, r2
80106d88:	eaffff9a 	b	80106bf8 <_dtoa_r+0x1268>
80106d8c:	e3a03031 	mov	r3, #49	; 0x31
80106d90:	e59d200c 	ldr	r2, [sp, #12]
80106d94:	e289b001 	add	fp, r9, #1
80106d98:	e5c23000 	strb	r3, [r2]
80106d9c:	eafffecc 	b	801068d4 <_dtoa_r+0xf44>
80106da0:	1a000004 	bne	80106db8 <_dtoa_r+0x1428>
80106da4:	e31b0001 	tst	fp, #1
80106da8:	1afffebd 	bne	801068a4 <_dtoa_r+0xf14>
80106dac:	ea000001 	b	80106db8 <_dtoa_r+0x1428>
80106db0:	e5552002 	ldrb	r2, [r5, #-2]
80106db4:	e1a05003 	mov	r5, r3
80106db8:	e3520030 	cmp	r2, #48	; 0x30
80106dbc:	e2453001 	sub	r3, r5, #1
80106dc0:	0afffffa 	beq	80106db0 <_dtoa_r+0x1420>
80106dc4:	e1a0b009 	mov	fp, r9
80106dc8:	eafffec1 	b	801068d4 <_dtoa_r+0xf44>
80106dcc:	e3550000 	cmp	r5, #0
80106dd0:	e58d902c 	str	r9, [sp, #44]	; 0x2c
80106dd4:	e1a01006 	mov	r1, r6
80106dd8:	e58d601c 	str	r6, [sp, #28]
80106ddc:	e59d9038 	ldr	r9, [sp, #56]	; 0x38
80106de0:	e1a0600b 	mov	r6, fp
80106de4:	e2875001 	add	r5, r7, #1
80106de8:	e59db010 	ldr	fp, [sp, #16]
80106dec:	ca000031 	bgt	80106eb8 <_dtoa_r+0x1528>
80106df0:	e1a0a008 	mov	sl, r8
80106df4:	e5c7b000 	strb	fp, [r7]
80106df8:	e59d802c 	ldr	r8, [sp, #44]	; 0x2c
80106dfc:	e1a0b009 	mov	fp, r9
80106e00:	eafffeb3 	b	801068d4 <_dtoa_r+0xf44>
80106e04:	e3a06000 	mov	r6, #0
80106e08:	e1a08006 	mov	r8, r6
80106e0c:	eafffcea 	b	801061bc <_dtoa_r+0x82c>
80106e10:	e5981004 	ldr	r1, [r8, #4]
80106e14:	e1a00004 	mov	r0, r4
80106e18:	eb0003e5 	bl	80107db4 <_Balloc>
80106e1c:	e1a05000 	mov	r5, r0
80106e20:	e5982010 	ldr	r2, [r8, #16]
80106e24:	e2822002 	add	r2, r2, #2
80106e28:	e1a02102 	lsl	r2, r2, #2
80106e2c:	e288100c 	add	r1, r8, #12
80106e30:	e280000c 	add	r0, r0, #12
80106e34:	eb00038e 	bl	80107c74 <memcpy>
80106e38:	e1a01005 	mov	r1, r5
80106e3c:	e3a02001 	mov	r2, #1
80106e40:	e1a00004 	mov	r0, r4
80106e44:	eb00057c 	bl	8010843c <__lshift>
80106e48:	e58d002c 	str	r0, [sp, #44]	; 0x2c
80106e4c:	eafffddc 	b	801065c4 <_dtoa_r+0xc34>
80106e50:	e1a0a004 	mov	sl, r4
80106e54:	e59d200c 	ldr	r2, [sp, #12]
80106e58:	e59db04c 	ldr	fp, [sp, #76]	; 0x4c
80106e5c:	e1a04009 	mov	r4, r9
80106e60:	eaffff60 	b	80106be8 <_dtoa_r+0x1258>
80106e64:	e58d601c 	str	r6, [sp, #28]
80106e68:	e1a0600b 	mov	r6, fp
80106e6c:	e59db010 	ldr	fp, [sp, #16]
80106e70:	e35b0039 	cmp	fp, #57	; 0x39
80106e74:	e58d902c 	str	r9, [sp, #44]	; 0x2c
80106e78:	e59d9038 	ldr	r9, [sp, #56]	; 0x38
80106e7c:	0a00001a 	beq	80106eec <_dtoa_r+0x155c>
80106e80:	e28b3001 	add	r3, fp, #1
80106e84:	e1a0a008 	mov	sl, r8
80106e88:	e5c73000 	strb	r3, [r7]
80106e8c:	e1a0b009 	mov	fp, r9
80106e90:	e59d802c 	ldr	r8, [sp, #44]	; 0x2c
80106e94:	eafffe8e 	b	801068d4 <_dtoa_r+0xf44>
80106e98:	e1a03009 	mov	r3, r9
80106e9c:	e58d601c 	str	r6, [sp, #28]
80106ea0:	e1a0a008 	mov	sl, r8
80106ea4:	e1a0600b 	mov	r6, fp
80106ea8:	e59d9038 	ldr	r9, [sp, #56]	; 0x38
80106eac:	e59db010 	ldr	fp, [sp, #16]
80106eb0:	e1a08003 	mov	r8, r3
80106eb4:	eafffe70 	b	8010687c <_dtoa_r+0xeec>
80106eb8:	e3a02001 	mov	r2, #1
80106ebc:	e1a00004 	mov	r0, r4
80106ec0:	eb00055d 	bl	8010843c <__lshift>
80106ec4:	e1a01006 	mov	r1, r6
80106ec8:	e58d001c 	str	r0, [sp, #28]
80106ecc:	eb000597 	bl	80108530 <__mcmp>
80106ed0:	e3500000 	cmp	r0, #0
80106ed4:	da000020 	ble	80106f5c <_dtoa_r+0x15cc>
80106ed8:	e35b0039 	cmp	fp, #57	; 0x39
80106edc:	0a000002 	beq	80106eec <_dtoa_r+0x155c>
80106ee0:	e59d3028 	ldr	r3, [sp, #40]	; 0x28
80106ee4:	e283b031 	add	fp, r3, #49	; 0x31
80106ee8:	eaffffc0 	b	80106df0 <_dtoa_r+0x1460>
80106eec:	e3a02039 	mov	r2, #57	; 0x39
80106ef0:	e1a0a008 	mov	sl, r8
80106ef4:	e5c72000 	strb	r2, [r7]
80106ef8:	e59d802c 	ldr	r8, [sp, #44]	; 0x2c
80106efc:	e59d100c 	ldr	r1, [sp, #12]
80106f00:	eafffe6d 	b	801068bc <_dtoa_r+0xf2c>
80106f04:	e58d601c 	str	r6, [sp, #28]
80106f08:	e1a0600b 	mov	r6, fp
80106f0c:	e59db010 	ldr	fp, [sp, #16]
80106f10:	e35b0039 	cmp	fp, #57	; 0x39
80106f14:	e58d902c 	str	r9, [sp, #44]	; 0x2c
80106f18:	e2875001 	add	r5, r7, #1
80106f1c:	e59d9038 	ldr	r9, [sp, #56]	; 0x38
80106f20:	0afffff1 	beq	80106eec <_dtoa_r+0x155c>
80106f24:	e35a0000 	cmp	sl, #0
80106f28:	caffffec 	bgt	80106ee0 <_dtoa_r+0x1550>
80106f2c:	eaffffaf 	b	80106df0 <_dtoa_r+0x1460>
80106f30:	e1a01008 	mov	r1, r8
80106f34:	e3a03000 	mov	r3, #0
80106f38:	e3a0200a 	mov	r2, #10
80106f3c:	e1a00004 	mov	r0, r4
80106f40:	eb0003c5 	bl	80107e5c <__multadd>
80106f44:	e59d303c 	ldr	r3, [sp, #60]	; 0x3c
80106f48:	e3570000 	cmp	r7, #0
80106f4c:	e1a08000 	mov	r8, r0
80106f50:	e58d3018 	str	r3, [sp, #24]
80106f54:	1afffc95 	bne	801061b0 <_dtoa_r+0x820>
80106f58:	eafffd8e 	b	80106598 <_dtoa_r+0xc08>
80106f5c:	1affffa3 	bne	80106df0 <_dtoa_r+0x1460>
80106f60:	e31b0001 	tst	fp, #1
80106f64:	0affffa1 	beq	80106df0 <_dtoa_r+0x1460>
80106f68:	eaffffda 	b	80106ed8 <_dtoa_r+0x1548>
80106f6c:	e35a0000 	cmp	sl, #0
80106f70:	0afffd6a 	beq	80106520 <_dtoa_r+0xb90>
80106f74:	eafffc61 	b	80106100 <_dtoa_r+0x770>
80106f78:	1260003c 	rsbne	r0, r0, #60	; 0x3c
80106f7c:	1afffd39 	bne	80106468 <_dtoa_r+0xad8>
80106f80:	eafffc6d 	b	8010613c <_dtoa_r+0x7ac>

Disassembly of section .text._malloc_trim_r:

80106f84 <_malloc_trim_r>:
80106f84:	e92d41f0 	push	{r4, r5, r6, r7, r8, lr}
80106f88:	e1a04001 	mov	r4, r1
80106f8c:	e59f70e4 	ldr	r7, [pc, #228]	; 80107078 <_malloc_trim_r+0xf4>
80106f90:	e1a06000 	mov	r6, r0
80106f94:	eb00037a 	bl	80107d84 <__malloc_lock>
80106f98:	e5973008 	ldr	r3, [r7, #8]
80106f9c:	e5935004 	ldr	r5, [r3, #4]
80106fa0:	e2641efe 	rsb	r1, r4, #4064	; 0xfe0
80106fa4:	e281100f 	add	r1, r1, #15
80106fa8:	e3c55003 	bic	r5, r5, #3
80106fac:	e0811005 	add	r1, r1, r5
80106fb0:	e3c11eff 	bic	r1, r1, #4080	; 0xff0
80106fb4:	e3c1100f 	bic	r1, r1, #15
80106fb8:	e2414a01 	sub	r4, r1, #4096	; 0x1000
80106fbc:	e3540a01 	cmp	r4, #4096	; 0x1000
80106fc0:	ba000006 	blt	80106fe0 <_malloc_trim_r+0x5c>
80106fc4:	e3a01000 	mov	r1, #0
80106fc8:	e1a00006 	mov	r0, r6
80106fcc:	ebffe8a4 	bl	80101264 <_sbrk_r>
80106fd0:	e5973008 	ldr	r3, [r7, #8]
80106fd4:	e0833005 	add	r3, r3, r5
80106fd8:	e1500003 	cmp	r0, r3
80106fdc:	0a000004 	beq	80106ff4 <_malloc_trim_r+0x70>
80106fe0:	e1a00006 	mov	r0, r6
80106fe4:	eb00036c 	bl	80107d9c <__malloc_unlock>
80106fe8:	e3a00000 	mov	r0, #0
80106fec:	e8bd41f0 	pop	{r4, r5, r6, r7, r8, lr}
80106ff0:	e12fff1e 	bx	lr
80106ff4:	e2641000 	rsb	r1, r4, #0
80106ff8:	e1a00006 	mov	r0, r6
80106ffc:	ebffe898 	bl	80101264 <_sbrk_r>
80107000:	e3700001 	cmn	r0, #1
80107004:	0a00000c 	beq	8010703c <_malloc_trim_r+0xb8>
80107008:	e59f306c 	ldr	r3, [pc, #108]	; 8010707c <_malloc_trim_r+0xf8>
8010700c:	e5972008 	ldr	r2, [r7, #8]
80107010:	e5931000 	ldr	r1, [r3]
80107014:	e0455004 	sub	r5, r5, r4
80107018:	e3855001 	orr	r5, r5, #1
8010701c:	e1a00006 	mov	r0, r6
80107020:	e0411004 	sub	r1, r1, r4
80107024:	e5825004 	str	r5, [r2, #4]
80107028:	e5831000 	str	r1, [r3]
8010702c:	eb00035a 	bl	80107d9c <__malloc_unlock>
80107030:	e3a00001 	mov	r0, #1
80107034:	e8bd41f0 	pop	{r4, r5, r6, r7, r8, lr}
80107038:	e12fff1e 	bx	lr
8010703c:	e3a01000 	mov	r1, #0
80107040:	e1a00006 	mov	r0, r6
80107044:	ebffe886 	bl	80101264 <_sbrk_r>
80107048:	e5972008 	ldr	r2, [r7, #8]
8010704c:	e0403002 	sub	r3, r0, r2
80107050:	e353000f 	cmp	r3, #15
80107054:	daffffe1 	ble	80106fe0 <_malloc_trim_r+0x5c>
80107058:	e59f1020 	ldr	r1, [pc, #32]	; 80107080 <_malloc_trim_r+0xfc>
8010705c:	e591c000 	ldr	ip, [r1]
80107060:	e59f1014 	ldr	r1, [pc, #20]	; 8010707c <_malloc_trim_r+0xf8>
80107064:	e3833001 	orr	r3, r3, #1
80107068:	e040000c 	sub	r0, r0, ip
8010706c:	e5823004 	str	r3, [r2, #4]
80107070:	e5810000 	str	r0, [r1]
80107074:	eaffffd9 	b	80106fe0 <_malloc_trim_r+0x5c>
80107078:	8010b124 	.word	0x8010b124
8010707c:	8010b6d4 	.word	0x8010b6d4
80107080:	8010b52c 	.word	0x8010b52c

Disassembly of section .text._free_r:

80107084 <_free_r>:
80107084:	e92d41f0 	push	{r4, r5, r6, r7, r8, lr}
80107088:	e2516000 	subs	r6, r1, #0
8010708c:	0a00003f 	beq	80107190 <_free_r+0x10c>
80107090:	e1a04000 	mov	r4, r0
80107094:	eb00033a 	bl	80107d84 <__malloc_lock>
80107098:	e5160004 	ldr	r0, [r6, #-4]
8010709c:	e59fe2a8 	ldr	lr, [pc, #680]	; 8010734c <_free_r+0x2c8>
801070a0:	e3c03001 	bic	r3, r0, #1
801070a4:	e2462008 	sub	r2, r6, #8
801070a8:	e0827003 	add	r7, r2, r3
801070ac:	e59e5008 	ldr	r5, [lr, #8]
801070b0:	e597c004 	ldr	ip, [r7, #4]
801070b4:	e1550007 	cmp	r5, r7
801070b8:	e3ccc003 	bic	ip, ip, #3
801070bc:	0a00001d 	beq	80107138 <_free_r+0xb4>
801070c0:	e3100001 	tst	r0, #1
801070c4:	e587c004 	str	ip, [r7, #4]
801070c8:	e087100c 	add	r1, r7, ip
801070cc:	1a000031 	bne	80107198 <_free_r+0x114>
801070d0:	e5165008 	ldr	r5, [r6, #-8]
801070d4:	e0422005 	sub	r2, r2, r5
801070d8:	e5920008 	ldr	r0, [r2, #8]
801070dc:	e5911004 	ldr	r1, [r1, #4]
801070e0:	e28e6008 	add	r6, lr, #8
801070e4:	e1500006 	cmp	r0, r6
801070e8:	e0833005 	add	r3, r3, r5
801070ec:	e2011001 	and	r1, r1, #1
801070f0:	0a000059 	beq	8010725c <_free_r+0x1d8>
801070f4:	e592500c 	ldr	r5, [r2, #12]
801070f8:	e3510000 	cmp	r1, #0
801070fc:	e580500c 	str	r5, [r0, #12]
80107100:	e5850008 	str	r0, [r5, #8]
80107104:	1a000027 	bne	801071a8 <_free_r+0x124>
80107108:	e5971008 	ldr	r1, [r7, #8]
8010710c:	e59f023c 	ldr	r0, [pc, #572]	; 80107350 <_free_r+0x2cc>
80107110:	e083300c 	add	r3, r3, ip
80107114:	e1510000 	cmp	r1, r0
80107118:	e383c001 	orr	ip, r3, #1
8010711c:	0a00006f 	beq	801072e0 <_free_r+0x25c>
80107120:	e597000c 	ldr	r0, [r7, #12]
80107124:	e581000c 	str	r0, [r1, #12]
80107128:	e5801008 	str	r1, [r0, #8]
8010712c:	e582c004 	str	ip, [r2, #4]
80107130:	e7823003 	str	r3, [r2, r3]
80107134:	ea00001e 	b	801071b4 <_free_r+0x130>
80107138:	e3100001 	tst	r0, #1
8010713c:	e083300c 	add	r3, r3, ip
80107140:	1a000006 	bne	80107160 <_free_r+0xdc>
80107144:	e5161008 	ldr	r1, [r6, #-8]
80107148:	e0422001 	sub	r2, r2, r1
8010714c:	e592000c 	ldr	r0, [r2, #12]
80107150:	e592c008 	ldr	ip, [r2, #8]
80107154:	e58c000c 	str	r0, [ip, #12]
80107158:	e580c008 	str	ip, [r0, #8]
8010715c:	e0833001 	add	r3, r3, r1
80107160:	e59f11ec 	ldr	r1, [pc, #492]	; 80107354 <_free_r+0x2d0>
80107164:	e5911000 	ldr	r1, [r1]
80107168:	e1510003 	cmp	r1, r3
8010716c:	e3833001 	orr	r3, r3, #1
80107170:	e5823004 	str	r3, [r2, #4]
80107174:	e58e2008 	str	r2, [lr, #8]
80107178:	959f31d8 	ldrls	r3, [pc, #472]	; 80107358 <_free_r+0x2d4>
8010717c:	91a00004 	movls	r0, r4
80107180:	95931000 	ldrls	r1, [r3]
80107184:	9bffff7e 	blls	80106f84 <_malloc_trim_r>
80107188:	e1a00004 	mov	r0, r4
8010718c:	eb000302 	bl	80107d9c <__malloc_unlock>
80107190:	e8bd41f0 	pop	{r4, r5, r6, r7, r8, lr}
80107194:	e12fff1e 	bx	lr
80107198:	e5911004 	ldr	r1, [r1, #4]
8010719c:	e2011001 	and	r1, r1, #1
801071a0:	e3510000 	cmp	r1, #0
801071a4:	0affffd7 	beq	80107108 <_free_r+0x84>
801071a8:	e3831001 	orr	r1, r3, #1
801071ac:	e5821004 	str	r1, [r2, #4]
801071b0:	e7823003 	str	r3, [r2, r3]
801071b4:	e3530c02 	cmp	r3, #512	; 0x200
801071b8:	3a000018 	bcc	80107220 <_free_r+0x19c>
801071bc:	e1a014a3 	lsr	r1, r3, #9
801071c0:	e3510004 	cmp	r1, #4
801071c4:	8a00002f 	bhi	80107288 <_free_r+0x204>
801071c8:	e1a01323 	lsr	r1, r3, #6
801071cc:	e2815039 	add	r5, r1, #57	; 0x39
801071d0:	e1a05185 	lsl	r5, r5, #3
801071d4:	e2810038 	add	r0, r1, #56	; 0x38
801071d8:	e08ec005 	add	ip, lr, r5
801071dc:	e79e1005 	ldr	r1, [lr, r5]
801071e0:	e24cc008 	sub	ip, ip, #8
801071e4:	e15c0001 	cmp	ip, r1
801071e8:	0a000035 	beq	801072c4 <_free_r+0x240>
801071ec:	e5910004 	ldr	r0, [r1, #4]
801071f0:	e3c00003 	bic	r0, r0, #3
801071f4:	e1500003 	cmp	r0, r3
801071f8:	9a00002f 	bls	801072bc <_free_r+0x238>
801071fc:	e5911008 	ldr	r1, [r1, #8]
80107200:	e15c0001 	cmp	ip, r1
80107204:	1afffff8 	bne	801071ec <_free_r+0x168>
80107208:	e59c300c 	ldr	r3, [ip, #12]
8010720c:	e582300c 	str	r3, [r2, #12]
80107210:	e582c008 	str	ip, [r2, #8]
80107214:	e5832008 	str	r2, [r3, #8]
80107218:	e58c200c 	str	r2, [ip, #12]
8010721c:	eaffffd9 	b	80107188 <_free_r+0x104>
80107220:	e3a05001 	mov	r5, #1
80107224:	e59ec004 	ldr	ip, [lr, #4]
80107228:	e1a031a3 	lsr	r3, r3, #3
8010722c:	e0831005 	add	r1, r3, r5
80107230:	e1a03143 	asr	r3, r3, #2
80107234:	e18c3315 	orr	r3, ip, r5, lsl r3
80107238:	e08e0181 	add	r0, lr, r1, lsl #3
8010723c:	e79ec181 	ldr	ip, [lr, r1, lsl #3]
80107240:	e2400008 	sub	r0, r0, #8
80107244:	e58e3004 	str	r3, [lr, #4]
80107248:	e582000c 	str	r0, [r2, #12]
8010724c:	e582c008 	str	ip, [r2, #8]
80107250:	e78e2181 	str	r2, [lr, r1, lsl #3]
80107254:	e58c200c 	str	r2, [ip, #12]
80107258:	eaffffca 	b	80107188 <_free_r+0x104>
8010725c:	e3510000 	cmp	r1, #0
80107260:	1a000035 	bne	8010733c <_free_r+0x2b8>
80107264:	e2870008 	add	r0, r7, #8
80107268:	e8900003 	ldm	r0, {r0, r1}
8010726c:	e08c3003 	add	r3, ip, r3
80107270:	e383c001 	orr	ip, r3, #1
80107274:	e580100c 	str	r1, [r0, #12]
80107278:	e5810008 	str	r0, [r1, #8]
8010727c:	e582c004 	str	ip, [r2, #4]
80107280:	e7823003 	str	r3, [r2, r3]
80107284:	eaffffbf 	b	80107188 <_free_r+0x104>
80107288:	e3510014 	cmp	r1, #20
8010728c:	9a000006 	bls	801072ac <_free_r+0x228>
80107290:	e3510054 	cmp	r1, #84	; 0x54
80107294:	8a000018 	bhi	801072fc <_free_r+0x278>
80107298:	e1a01623 	lsr	r1, r3, #12
8010729c:	e281506f 	add	r5, r1, #111	; 0x6f
801072a0:	e1a05185 	lsl	r5, r5, #3
801072a4:	e281006e 	add	r0, r1, #110	; 0x6e
801072a8:	eaffffca 	b	801071d8 <_free_r+0x154>
801072ac:	e281505c 	add	r5, r1, #92	; 0x5c
801072b0:	e1a05185 	lsl	r5, r5, #3
801072b4:	e281005b 	add	r0, r1, #91	; 0x5b
801072b8:	eaffffc6 	b	801071d8 <_free_r+0x154>
801072bc:	e1a0c001 	mov	ip, r1
801072c0:	eaffffd0 	b	80107208 <_free_r+0x184>
801072c4:	e3a05001 	mov	r5, #1
801072c8:	e59e3004 	ldr	r3, [lr, #4]
801072cc:	e1a01140 	asr	r1, r0, #2
801072d0:	e1831115 	orr	r1, r3, r5, lsl r1
801072d4:	e58e1004 	str	r1, [lr, #4]
801072d8:	e1a0300c 	mov	r3, ip
801072dc:	eaffffca 	b	8010720c <_free_r+0x188>
801072e0:	e58e2014 	str	r2, [lr, #20]
801072e4:	e58e2010 	str	r2, [lr, #16]
801072e8:	e582100c 	str	r1, [r2, #12]
801072ec:	e5821008 	str	r1, [r2, #8]
801072f0:	e582c004 	str	ip, [r2, #4]
801072f4:	e7823003 	str	r3, [r2, r3]
801072f8:	eaffffa2 	b	80107188 <_free_r+0x104>
801072fc:	e3510f55 	cmp	r1, #340	; 0x154
80107300:	8a000004 	bhi	80107318 <_free_r+0x294>
80107304:	e1a017a3 	lsr	r1, r3, #15
80107308:	e2815078 	add	r5, r1, #120	; 0x78
8010730c:	e1a05185 	lsl	r5, r5, #3
80107310:	e2810077 	add	r0, r1, #119	; 0x77
80107314:	eaffffaf 	b	801071d8 <_free_r+0x154>
80107318:	e59f003c 	ldr	r0, [pc, #60]	; 8010735c <_free_r+0x2d8>
8010731c:	e1510000 	cmp	r1, r0
80107320:	91a01923 	lsrls	r1, r3, #18
80107324:	9281507d 	addls	r5, r1, #125	; 0x7d
80107328:	91a05185 	lslls	r5, r5, #3
8010732c:	9281007c 	addls	r0, r1, #124	; 0x7c
80107330:	83a05ffe 	movhi	r5, #1016	; 0x3f8
80107334:	83a0007e 	movhi	r0, #126	; 0x7e
80107338:	eaffffa6 	b	801071d8 <_free_r+0x154>
8010733c:	e3831001 	orr	r1, r3, #1
80107340:	e5821004 	str	r1, [r2, #4]
80107344:	e5873000 	str	r3, [r7]
80107348:	eaffff8e 	b	80107188 <_free_r+0x104>
8010734c:	8010b124 	.word	0x8010b124
80107350:	8010b12c 	.word	0x8010b12c
80107354:	8010b530 	.word	0x8010b530
80107358:	8010b704 	.word	0x8010b704
8010735c:	00000554 	.word	0x00000554

Disassembly of section .text.__localeconv_l:

80107360 <__localeconv_l>:
80107360:	e28000f0 	add	r0, r0, #240	; 0xf0
80107364:	e12fff1e 	bx	lr

Disassembly of section .text._localeconv_r:

80107368 <_localeconv_r>:
80107368:	e59f3018 	ldr	r3, [pc, #24]	; 80107388 <_localeconv_r+0x20>
8010736c:	e5932000 	ldr	r2, [r3]
80107370:	e5920034 	ldr	r0, [r2, #52]	; 0x34
80107374:	e59f3010 	ldr	r3, [pc, #16]	; 8010738c <_localeconv_r+0x24>
80107378:	e3500000 	cmp	r0, #0
8010737c:	01a00003 	moveq	r0, r3
80107380:	e28000f0 	add	r0, r0, #240	; 0xf0
80107384:	e12fff1e 	bx	lr
80107388:	8010acf4 	.word	0x8010acf4
8010738c:	8010b534 	.word	0x8010b534

Disassembly of section .text.localeconv:

80107390 <localeconv>:
80107390:	e59f3018 	ldr	r3, [pc, #24]	; 801073b0 <localeconv+0x20>
80107394:	e5932000 	ldr	r2, [r3]
80107398:	e5920034 	ldr	r0, [r2, #52]	; 0x34
8010739c:	e59f3010 	ldr	r3, [pc, #16]	; 801073b4 <localeconv+0x24>
801073a0:	e3500000 	cmp	r0, #0
801073a4:	01a00003 	moveq	r0, r3
801073a8:	e28000f0 	add	r0, r0, #240	; 0xf0
801073ac:	e12fff1e 	bx	lr
801073b0:	8010acf4 	.word	0x8010acf4
801073b4:	8010b534 	.word	0x8010b534

Disassembly of section .text._malloc_r:

801073b8 <_malloc_r>:
801073b8:	e92d4ff0 	push	{r4, r5, r6, r7, r8, r9, sl, fp, lr}
801073bc:	e281500b 	add	r5, r1, #11
801073c0:	e3550016 	cmp	r5, #22
801073c4:	e24dd00c 	sub	sp, sp, #12
801073c8:	e1a06000 	mov	r6, r0
801073cc:	8a00001c 	bhi	80107444 <_malloc_r+0x8c>
801073d0:	e3510010 	cmp	r1, #16
801073d4:	8a00010f 	bhi	80107818 <_malloc_r+0x460>
801073d8:	eb000269 	bl	80107d84 <__malloc_lock>
801073dc:	e3a05010 	mov	r5, #16
801073e0:	e3a03018 	mov	r3, #24
801073e4:	e3a00002 	mov	r0, #2
801073e8:	e59f7754 	ldr	r7, [pc, #1876]	; 80107b44 <_malloc_r+0x78c>
801073ec:	e0873003 	add	r3, r7, r3
801073f0:	e5934004 	ldr	r4, [r3, #4]
801073f4:	e2432008 	sub	r2, r3, #8
801073f8:	e1540002 	cmp	r4, r2
801073fc:	0a000119 	beq	80107868 <_malloc_r+0x4b0>
80107400:	e5943004 	ldr	r3, [r4, #4]
80107404:	e3c33003 	bic	r3, r3, #3
80107408:	e0843003 	add	r3, r4, r3
8010740c:	e5932004 	ldr	r2, [r3, #4]
80107410:	e594100c 	ldr	r1, [r4, #12]
80107414:	e594c008 	ldr	ip, [r4, #8]
80107418:	e3822001 	orr	r2, r2, #1
8010741c:	e58c100c 	str	r1, [ip, #12]
80107420:	e1a00006 	mov	r0, r6
80107424:	e581c008 	str	ip, [r1, #8]
80107428:	e5832004 	str	r2, [r3, #4]
8010742c:	eb00025a 	bl	80107d9c <__malloc_unlock>
80107430:	e2844008 	add	r4, r4, #8
80107434:	e1a00004 	mov	r0, r4
80107438:	e28dd00c 	add	sp, sp, #12
8010743c:	e8bd4ff0 	pop	{r4, r5, r6, r7, r8, r9, sl, fp, lr}
80107440:	e12fff1e 	bx	lr
80107444:	e3c55007 	bic	r5, r5, #7
80107448:	e1510005 	cmp	r1, r5
8010744c:	93a01000 	movls	r1, #0
80107450:	83a01001 	movhi	r1, #1
80107454:	e1913fa5 	orrs	r3, r1, r5, lsr #31
80107458:	1a0000ee 	bne	80107818 <_malloc_r+0x460>
8010745c:	eb000248 	bl	80107d84 <__malloc_lock>
80107460:	e3550f7e 	cmp	r5, #504	; 0x1f8
80107464:	3a000114 	bcc	801078bc <_malloc_r+0x504>
80107468:	e1b034a5 	lsrs	r3, r5, #9
8010746c:	0a000007 	beq	80107490 <_malloc_r+0xd8>
80107470:	e3530004 	cmp	r3, #4
80107474:	9a0000d7 	bls	801077d8 <_malloc_r+0x420>
80107478:	e3530014 	cmp	r3, #20
8010747c:	8a00013d 	bhi	80107978 <_malloc_r+0x5c0>
80107480:	e283005c 	add	r0, r3, #92	; 0x5c
80107484:	e283c05b 	add	ip, r3, #91	; 0x5b
80107488:	e1a01180 	lsl	r1, r0, #3
8010748c:	ea000002 	b	8010749c <_malloc_r+0xe4>
80107490:	e3a01c02 	mov	r1, #512	; 0x200
80107494:	e3a00040 	mov	r0, #64	; 0x40
80107498:	e3a0c03f 	mov	ip, #63	; 0x3f
8010749c:	e59f76a0 	ldr	r7, [pc, #1696]	; 80107b44 <_malloc_r+0x78c>
801074a0:	e0871001 	add	r1, r7, r1
801074a4:	e5914004 	ldr	r4, [r1, #4]
801074a8:	e2411008 	sub	r1, r1, #8
801074ac:	e1510004 	cmp	r1, r4
801074b0:	1a000005 	bne	801074cc <_malloc_r+0x114>
801074b4:	ea00000a 	b	801074e4 <_malloc_r+0x12c>
801074b8:	e3520000 	cmp	r2, #0
801074bc:	aaffffd1 	bge	80107408 <_malloc_r+0x50>
801074c0:	e594400c 	ldr	r4, [r4, #12]
801074c4:	e1510004 	cmp	r1, r4
801074c8:	0a000005 	beq	801074e4 <_malloc_r+0x12c>
801074cc:	e5943004 	ldr	r3, [r4, #4]
801074d0:	e3c33003 	bic	r3, r3, #3
801074d4:	e0432005 	sub	r2, r3, r5
801074d8:	e352000f 	cmp	r2, #15
801074dc:	dafffff5 	ble	801074b8 <_malloc_r+0x100>
801074e0:	e1a0000c 	mov	r0, ip
801074e4:	e5974010 	ldr	r4, [r7, #16]
801074e8:	e59fe658 	ldr	lr, [pc, #1624]	; 80107b48 <_malloc_r+0x790>
801074ec:	e154000e 	cmp	r4, lr
801074f0:	05972004 	ldreq	r2, [r7, #4]
801074f4:	0a000018 	beq	8010755c <_malloc_r+0x1a4>
801074f8:	e5943004 	ldr	r3, [r4, #4]
801074fc:	e3c33003 	bic	r3, r3, #3
80107500:	e0432005 	sub	r2, r3, r5
80107504:	e352000f 	cmp	r2, #15
80107508:	ca0000db 	bgt	8010787c <_malloc_r+0x4c4>
8010750c:	e3520000 	cmp	r2, #0
80107510:	e587e014 	str	lr, [r7, #20]
80107514:	e587e010 	str	lr, [r7, #16]
80107518:	aa0000b3 	bge	801077ec <_malloc_r+0x434>
8010751c:	e3530c02 	cmp	r3, #512	; 0x200
80107520:	2a0000f9 	bcs	8010790c <_malloc_r+0x554>
80107524:	e3a0c001 	mov	ip, #1
80107528:	e5972004 	ldr	r2, [r7, #4]
8010752c:	e1a031a3 	lsr	r3, r3, #3
80107530:	e083800c 	add	r8, r3, ip
80107534:	e1a03143 	asr	r3, r3, #2
80107538:	e182231c 	orr	r2, r2, ip, lsl r3
8010753c:	e0871188 	add	r1, r7, r8, lsl #3
80107540:	e797c188 	ldr	ip, [r7, r8, lsl #3]
80107544:	e2413008 	sub	r3, r1, #8
80107548:	e5872004 	str	r2, [r7, #4]
8010754c:	e584300c 	str	r3, [r4, #12]
80107550:	e584c008 	str	ip, [r4, #8]
80107554:	e7874188 	str	r4, [r7, r8, lsl #3]
80107558:	e58c400c 	str	r4, [ip, #12]
8010755c:	e3a01001 	mov	r1, #1
80107560:	e1a03140 	asr	r3, r0, #2
80107564:	e1a01311 	lsl	r1, r1, r3
80107568:	e1510002 	cmp	r1, r2
8010756c:	8a00002c 	bhi	80107624 <_malloc_r+0x26c>
80107570:	e1110002 	tst	r1, r2
80107574:	1a000008 	bne	8010759c <_malloc_r+0x1e4>
80107578:	e1a01081 	lsl	r1, r1, #1
8010757c:	e3c00003 	bic	r0, r0, #3
80107580:	e1110002 	tst	r1, r2
80107584:	e2800004 	add	r0, r0, #4
80107588:	1a000003 	bne	8010759c <_malloc_r+0x1e4>
8010758c:	e1a01081 	lsl	r1, r1, #1
80107590:	e1110002 	tst	r1, r2
80107594:	e2800004 	add	r0, r0, #4
80107598:	0afffffb 	beq	8010758c <_malloc_r+0x1d4>
8010759c:	e0879180 	add	r9, r7, r0, lsl #3
801075a0:	e1a0c009 	mov	ip, r9
801075a4:	e1a04000 	mov	r4, r0
801075a8:	e59c800c 	ldr	r8, [ip, #12]
801075ac:	e15c0008 	cmp	ip, r8
801075b0:	1a000005 	bne	801075cc <_malloc_r+0x214>
801075b4:	ea0000c3 	b	801078c8 <_malloc_r+0x510>
801075b8:	e3520000 	cmp	r2, #0
801075bc:	aa0000c6 	bge	801078dc <_malloc_r+0x524>
801075c0:	e598800c 	ldr	r8, [r8, #12]
801075c4:	e15c0008 	cmp	ip, r8
801075c8:	0a0000be 	beq	801078c8 <_malloc_r+0x510>
801075cc:	e5983004 	ldr	r3, [r8, #4]
801075d0:	e3c33003 	bic	r3, r3, #3
801075d4:	e0432005 	sub	r2, r3, r5
801075d8:	e352000f 	cmp	r2, #15
801075dc:	dafffff5 	ble	801075b8 <_malloc_r+0x200>
801075e0:	e598100c 	ldr	r1, [r8, #12]
801075e4:	e598c008 	ldr	ip, [r8, #8]
801075e8:	e3854001 	orr	r4, r5, #1
801075ec:	e5884004 	str	r4, [r8, #4]
801075f0:	e0885005 	add	r5, r8, r5
801075f4:	e3824001 	orr	r4, r2, #1
801075f8:	e58c100c 	str	r1, [ip, #12]
801075fc:	e1a00006 	mov	r0, r6
80107600:	e581c008 	str	ip, [r1, #8]
80107604:	e5875014 	str	r5, [r7, #20]
80107608:	e5875010 	str	r5, [r7, #16]
8010760c:	e9854010 	stmib	r5, {r4, lr}
80107610:	e585e00c 	str	lr, [r5, #12]
80107614:	e7882003 	str	r2, [r8, r3]
80107618:	eb0001df 	bl	80107d9c <__malloc_unlock>
8010761c:	e2884008 	add	r4, r8, #8
80107620:	eaffff83 	b	80107434 <_malloc_r+0x7c>
80107624:	e5974008 	ldr	r4, [r7, #8]
80107628:	e5948004 	ldr	r8, [r4, #4]
8010762c:	e3c88003 	bic	r8, r8, #3
80107630:	e1580005 	cmp	r8, r5
80107634:	23a02000 	movcs	r2, #0
80107638:	33a02001 	movcc	r2, #1
8010763c:	e0483005 	sub	r3, r8, r5
80107640:	e353000f 	cmp	r3, #15
80107644:	d3822001 	orrle	r2, r2, #1
80107648:	e3520000 	cmp	r2, #0
8010764c:	0a000078 	beq	80107834 <_malloc_r+0x47c>
80107650:	e59fa4f4 	ldr	sl, [pc, #1268]	; 80107b4c <_malloc_r+0x794>
80107654:	e59f34f4 	ldr	r3, [pc, #1268]	; 80107b50 <_malloc_r+0x798>
80107658:	e59a2000 	ldr	r2, [sl]
8010765c:	e5933000 	ldr	r3, [r3]
80107660:	e3720001 	cmn	r2, #1
80107664:	e0853003 	add	r3, r5, r3
80107668:	12833a01 	addne	r3, r3, #4096	; 0x1000
8010766c:	1283300f 	addne	r3, r3, #15
80107670:	13c39eff 	bicne	r9, r3, #4080	; 0xff0
80107674:	02839010 	addeq	r9, r3, #16
80107678:	13c9900f 	bicne	r9, r9, #15
8010767c:	e1a01009 	mov	r1, r9
80107680:	e1a00006 	mov	r0, r6
80107684:	ebffe6f6 	bl	80101264 <_sbrk_r>
80107688:	e3700001 	cmn	r0, #1
8010768c:	e1a0b000 	mov	fp, r0
80107690:	0a0000c3 	beq	801079a4 <_malloc_r+0x5ec>
80107694:	e0843008 	add	r3, r4, r8
80107698:	e1530000 	cmp	r3, r0
8010769c:	8a0000be 	bhi	8010799c <_malloc_r+0x5e4>
801076a0:	e59f24ac 	ldr	r2, [pc, #1196]	; 80107b54 <_malloc_r+0x79c>
801076a4:	e5921000 	ldr	r1, [r2]
801076a8:	e0891001 	add	r1, r9, r1
801076ac:	e5821000 	str	r1, [r2]
801076b0:	0a0000f0 	beq	80107a78 <_malloc_r+0x6c0>
801076b4:	e59a0000 	ldr	r0, [sl]
801076b8:	e3700001 	cmn	r0, #1
801076bc:	104b3003 	subne	r3, fp, r3
801076c0:	10831001 	addne	r1, r3, r1
801076c4:	058ab000 	streq	fp, [sl]
801076c8:	15821000 	strne	r1, [r2]
801076cc:	e21b1007 	ands	r1, fp, #7
801076d0:	03a01a01 	moveq	r1, #4096	; 0x1000
801076d4:	12613008 	rsbne	r3, r1, #8
801076d8:	108bb003 	addne	fp, fp, r3
801076dc:	e08b3009 	add	r3, fp, r9
801076e0:	12611a01 	rsbne	r1, r1, #4096	; 0x1000
801076e4:	e1a03a03 	lsl	r3, r3, #20
801076e8:	e1a03a23 	lsr	r3, r3, #20
801076ec:	12811008 	addne	r1, r1, #8
801076f0:	e0419003 	sub	r9, r1, r3
801076f4:	e1a01009 	mov	r1, r9
801076f8:	e1a00006 	mov	r0, r6
801076fc:	e58d2004 	str	r2, [sp, #4]
80107700:	ebffe6d7 	bl	80101264 <_sbrk_r>
80107704:	e3700001 	cmn	r0, #1
80107708:	03a09000 	moveq	r9, #0
8010770c:	03a03001 	moveq	r3, #1
80107710:	e59d2004 	ldr	r2, [sp, #4]
80107714:	1040300b 	subne	r3, r0, fp
80107718:	e5921000 	ldr	r1, [r2]
8010771c:	10833009 	addne	r3, r3, r9
80107720:	13833001 	orrne	r3, r3, #1
80107724:	e0891001 	add	r1, r9, r1
80107728:	e1540007 	cmp	r4, r7
8010772c:	e587b008 	str	fp, [r7, #8]
80107730:	e5821000 	str	r1, [r2]
80107734:	e58b3004 	str	r3, [fp, #4]
80107738:	0a00000f 	beq	8010777c <_malloc_r+0x3c4>
8010773c:	e358000f 	cmp	r8, #15
80107740:	93a03001 	movls	r3, #1
80107744:	958b3004 	strls	r3, [fp, #4]
80107748:	9a00001e 	bls	801077c8 <_malloc_r+0x410>
8010774c:	e3a0c005 	mov	ip, #5
80107750:	e5940004 	ldr	r0, [r4, #4]
80107754:	e248300c 	sub	r3, r8, #12
80107758:	e3c33007 	bic	r3, r3, #7
8010775c:	e2000001 	and	r0, r0, #1
80107760:	e1800003 	orr	r0, r0, r3
80107764:	e353000f 	cmp	r3, #15
80107768:	e0843003 	add	r3, r4, r3
8010776c:	e5840004 	str	r0, [r4, #4]
80107770:	e583c004 	str	ip, [r3, #4]
80107774:	e583c008 	str	ip, [r3, #8]
80107778:	8a0000df 	bhi	80107afc <_malloc_r+0x744>
8010777c:	e59f33d4 	ldr	r3, [pc, #980]	; 80107b58 <_malloc_r+0x7a0>
80107780:	e5932000 	ldr	r2, [r3]
80107784:	e1510002 	cmp	r1, r2
80107788:	e59f23cc 	ldr	r2, [pc, #972]	; 80107b5c <_malloc_r+0x7a4>
8010778c:	e5974008 	ldr	r4, [r7, #8]
80107790:	e5920000 	ldr	r0, [r2]
80107794:	85831000 	strhi	r1, [r3]
80107798:	e5943004 	ldr	r3, [r4, #4]
8010779c:	e1510000 	cmp	r1, r0
801077a0:	85821000 	strhi	r1, [r2]
801077a4:	e3c33003 	bic	r3, r3, #3
801077a8:	e1550003 	cmp	r5, r3
801077ac:	93a02000 	movls	r2, #0
801077b0:	83a02001 	movhi	r2, #1
801077b4:	e0433005 	sub	r3, r3, r5
801077b8:	e353000f 	cmp	r3, #15
801077bc:	d3822001 	orrle	r2, r2, #1
801077c0:	e3520000 	cmp	r2, #0
801077c4:	0a00001a 	beq	80107834 <_malloc_r+0x47c>
801077c8:	e1a00006 	mov	r0, r6
801077cc:	eb000172 	bl	80107d9c <__malloc_unlock>
801077d0:	e3a04000 	mov	r4, #0
801077d4:	eaffff16 	b	80107434 <_malloc_r+0x7c>
801077d8:	e1a03325 	lsr	r3, r5, #6
801077dc:	e2830039 	add	r0, r3, #57	; 0x39
801077e0:	e283c038 	add	ip, r3, #56	; 0x38
801077e4:	e1a01180 	lsl	r1, r0, #3
801077e8:	eaffff2b 	b	8010749c <_malloc_r+0xe4>
801077ec:	e0843003 	add	r3, r4, r3
801077f0:	e5932004 	ldr	r2, [r3, #4]
801077f4:	e3822001 	orr	r2, r2, #1
801077f8:	e1a00006 	mov	r0, r6
801077fc:	e5832004 	str	r2, [r3, #4]
80107800:	e2844008 	add	r4, r4, #8
80107804:	eb000164 	bl	80107d9c <__malloc_unlock>
80107808:	e1a00004 	mov	r0, r4
8010780c:	e28dd00c 	add	sp, sp, #12
80107810:	e8bd4ff0 	pop	{r4, r5, r6, r7, r8, r9, sl, fp, lr}
80107814:	e12fff1e 	bx	lr
80107818:	e3a04000 	mov	r4, #0
8010781c:	e3a0300c 	mov	r3, #12
80107820:	e1a00004 	mov	r0, r4
80107824:	e5863000 	str	r3, [r6]
80107828:	e28dd00c 	add	sp, sp, #12
8010782c:	e8bd4ff0 	pop	{r4, r5, r6, r7, r8, r9, sl, fp, lr}
80107830:	e12fff1e 	bx	lr
80107834:	e3852001 	orr	r2, r5, #1
80107838:	e3833001 	orr	r3, r3, #1
8010783c:	e0845005 	add	r5, r4, r5
80107840:	e5842004 	str	r2, [r4, #4]
80107844:	e1a00006 	mov	r0, r6
80107848:	e5875008 	str	r5, [r7, #8]
8010784c:	e2844008 	add	r4, r4, #8
80107850:	e5853004 	str	r3, [r5, #4]
80107854:	eb000150 	bl	80107d9c <__malloc_unlock>
80107858:	e1a00004 	mov	r0, r4
8010785c:	e28dd00c 	add	sp, sp, #12
80107860:	e8bd4ff0 	pop	{r4, r5, r6, r7, r8, r9, sl, fp, lr}
80107864:	e12fff1e 	bx	lr
80107868:	e593400c 	ldr	r4, [r3, #12]
8010786c:	e1530004 	cmp	r3, r4
80107870:	02800002 	addeq	r0, r0, #2
80107874:	0affff1a 	beq	801074e4 <_malloc_r+0x12c>
80107878:	eafffee0 	b	80107400 <_malloc_r+0x48>
8010787c:	e385c001 	orr	ip, r5, #1
80107880:	e3821001 	orr	r1, r2, #1
80107884:	e0845005 	add	r5, r4, r5
80107888:	e584c004 	str	ip, [r4, #4]
8010788c:	e1a00006 	mov	r0, r6
80107890:	e5875014 	str	r5, [r7, #20]
80107894:	e5875010 	str	r5, [r7, #16]
80107898:	e585e00c 	str	lr, [r5, #12]
8010789c:	e9854002 	stmib	r5, {r1, lr}
801078a0:	e7842003 	str	r2, [r4, r3]
801078a4:	e2844008 	add	r4, r4, #8
801078a8:	eb00013b 	bl	80107d9c <__malloc_unlock>
801078ac:	e1a00004 	mov	r0, r4
801078b0:	e28dd00c 	add	sp, sp, #12
801078b4:	e8bd4ff0 	pop	{r4, r5, r6, r7, r8, r9, sl, fp, lr}
801078b8:	e12fff1e 	bx	lr
801078bc:	e1a001a5 	lsr	r0, r5, #3
801078c0:	e2853008 	add	r3, r5, #8
801078c4:	eafffec7 	b	801073e8 <_malloc_r+0x30>
801078c8:	e2844001 	add	r4, r4, #1
801078cc:	e3140003 	tst	r4, #3
801078d0:	e28cc008 	add	ip, ip, #8
801078d4:	1affff33 	bne	801075a8 <_malloc_r+0x1f0>
801078d8:	ea000043 	b	801079ec <_malloc_r+0x634>
801078dc:	e1a04008 	mov	r4, r8
801078e0:	e0883003 	add	r3, r8, r3
801078e4:	e5932004 	ldr	r2, [r3, #4]
801078e8:	e598100c 	ldr	r1, [r8, #12]
801078ec:	e5b4c008 	ldr	ip, [r4, #8]!
801078f0:	e3822001 	orr	r2, r2, #1
801078f4:	e5832004 	str	r2, [r3, #4]
801078f8:	e1a00006 	mov	r0, r6
801078fc:	e58c100c 	str	r1, [ip, #12]
80107900:	e581c008 	str	ip, [r1, #8]
80107904:	eb000124 	bl	80107d9c <__malloc_unlock>
80107908:	eafffec9 	b	80107434 <_malloc_r+0x7c>
8010790c:	e1a024a3 	lsr	r2, r3, #9
80107910:	e3520004 	cmp	r2, #4
80107914:	9a000026 	bls	801079b4 <_malloc_r+0x5fc>
80107918:	e3520014 	cmp	r2, #20
8010791c:	8a00004e 	bhi	80107a5c <_malloc_r+0x6a4>
80107920:	e282c05c 	add	ip, r2, #92	; 0x5c
80107924:	e1a0c18c 	lsl	ip, ip, #3
80107928:	e282205b 	add	r2, r2, #91	; 0x5b
8010792c:	e087100c 	add	r1, r7, ip
80107930:	e797c00c 	ldr	ip, [r7, ip]
80107934:	e2411008 	sub	r1, r1, #8
80107938:	e151000c 	cmp	r1, ip
8010793c:	0a000040 	beq	80107a44 <_malloc_r+0x68c>
80107940:	e59c2004 	ldr	r2, [ip, #4]
80107944:	e3c22003 	bic	r2, r2, #3
80107948:	e1520003 	cmp	r2, r3
8010794c:	9a000002 	bls	8010795c <_malloc_r+0x5a4>
80107950:	e59cc008 	ldr	ip, [ip, #8]
80107954:	e151000c 	cmp	r1, ip
80107958:	1afffff8 	bne	80107940 <_malloc_r+0x588>
8010795c:	e59c100c 	ldr	r1, [ip, #12]
80107960:	e5972004 	ldr	r2, [r7, #4]
80107964:	e584100c 	str	r1, [r4, #12]
80107968:	e584c008 	str	ip, [r4, #8]
8010796c:	e5814008 	str	r4, [r1, #8]
80107970:	e58c400c 	str	r4, [ip, #12]
80107974:	eafffef8 	b	8010755c <_malloc_r+0x1a4>
80107978:	e3530054 	cmp	r3, #84	; 0x54
8010797c:	9a000011 	bls	801079c8 <_malloc_r+0x610>
80107980:	e3530f55 	cmp	r3, #340	; 0x154
80107984:	8a000044 	bhi	80107a9c <_malloc_r+0x6e4>
80107988:	e1a037a5 	lsr	r3, r5, #15
8010798c:	e2830078 	add	r0, r3, #120	; 0x78
80107990:	e283c077 	add	ip, r3, #119	; 0x77
80107994:	e1a01180 	lsl	r1, r0, #3
80107998:	eafffebf 	b	8010749c <_malloc_r+0xe4>
8010799c:	e1540007 	cmp	r4, r7
801079a0:	0a000045 	beq	80107abc <_malloc_r+0x704>
801079a4:	e5974008 	ldr	r4, [r7, #8]
801079a8:	e5943004 	ldr	r3, [r4, #4]
801079ac:	e3c33003 	bic	r3, r3, #3
801079b0:	eaffff7c 	b	801077a8 <_malloc_r+0x3f0>
801079b4:	e1a02323 	lsr	r2, r3, #6
801079b8:	e282c039 	add	ip, r2, #57	; 0x39
801079bc:	e1a0c18c 	lsl	ip, ip, #3
801079c0:	e2822038 	add	r2, r2, #56	; 0x38
801079c4:	eaffffd8 	b	8010792c <_malloc_r+0x574>
801079c8:	e1a03625 	lsr	r3, r5, #12
801079cc:	e283006f 	add	r0, r3, #111	; 0x6f
801079d0:	e283c06e 	add	ip, r3, #110	; 0x6e
801079d4:	e1a01180 	lsl	r1, r0, #3
801079d8:	eafffeaf 	b	8010749c <_malloc_r+0xe4>
801079dc:	e5999000 	ldr	r9, [r9]
801079e0:	e1590003 	cmp	r9, r3
801079e4:	e2400001 	sub	r0, r0, #1
801079e8:	1a000053 	bne	80107b3c <_malloc_r+0x784>
801079ec:	e3100003 	tst	r0, #3
801079f0:	e2493008 	sub	r3, r9, #8
801079f4:	1afffff8 	bne	801079dc <_malloc_r+0x624>
801079f8:	e5973004 	ldr	r3, [r7, #4]
801079fc:	e1c33001 	bic	r3, r3, r1
80107a00:	e5873004 	str	r3, [r7, #4]
80107a04:	e1a01081 	lsl	r1, r1, #1
80107a08:	e1510003 	cmp	r1, r3
80107a0c:	83a02000 	movhi	r2, #0
80107a10:	93a02001 	movls	r2, #1
80107a14:	e3510000 	cmp	r1, #0
80107a18:	03a02000 	moveq	r2, #0
80107a1c:	e3520000 	cmp	r2, #0
80107a20:	0afffeff 	beq	80107624 <_malloc_r+0x26c>
80107a24:	e1110003 	tst	r1, r3
80107a28:	1a000003 	bne	80107a3c <_malloc_r+0x684>
80107a2c:	e1a01081 	lsl	r1, r1, #1
80107a30:	e1110003 	tst	r1, r3
80107a34:	e2844004 	add	r4, r4, #4
80107a38:	0afffffb 	beq	80107a2c <_malloc_r+0x674>
80107a3c:	e1a00004 	mov	r0, r4
80107a40:	eafffed5 	b	8010759c <_malloc_r+0x1e4>
80107a44:	e3a08001 	mov	r8, #1
80107a48:	e5973004 	ldr	r3, [r7, #4]
80107a4c:	e1a02142 	asr	r2, r2, #2
80107a50:	e1832218 	orr	r2, r3, r8, lsl r2
80107a54:	e5872004 	str	r2, [r7, #4]
80107a58:	eaffffc1 	b	80107964 <_malloc_r+0x5ac>
80107a5c:	e3520054 	cmp	r2, #84	; 0x54
80107a60:	8a00001a 	bhi	80107ad0 <_malloc_r+0x718>
80107a64:	e1a02623 	lsr	r2, r3, #12
80107a68:	e282c06f 	add	ip, r2, #111	; 0x6f
80107a6c:	e1a0c18c 	lsl	ip, ip, #3
80107a70:	e282206e 	add	r2, r2, #110	; 0x6e
80107a74:	eaffffac 	b	8010792c <_malloc_r+0x574>
80107a78:	e1a00a03 	lsl	r0, r3, #20
80107a7c:	e1a00a20 	lsr	r0, r0, #20
80107a80:	e3500000 	cmp	r0, #0
80107a84:	1affff0a 	bne	801076b4 <_malloc_r+0x2fc>
80107a88:	e0883009 	add	r3, r8, r9
80107a8c:	e5972008 	ldr	r2, [r7, #8]
80107a90:	e3833001 	orr	r3, r3, #1
80107a94:	e5823004 	str	r3, [r2, #4]
80107a98:	eaffff37 	b	8010777c <_malloc_r+0x3c4>
80107a9c:	e59f20bc 	ldr	r2, [pc, #188]	; 80107b60 <_malloc_r+0x7a8>
80107aa0:	e1530002 	cmp	r3, r2
80107aa4:	8a000010 	bhi	80107aec <_malloc_r+0x734>
80107aa8:	e1a03925 	lsr	r3, r5, #18
80107aac:	e283007d 	add	r0, r3, #125	; 0x7d
80107ab0:	e283c07c 	add	ip, r3, #124	; 0x7c
80107ab4:	e1a01180 	lsl	r1, r0, #3
80107ab8:	eafffe77 	b	8010749c <_malloc_r+0xe4>
80107abc:	e59f2090 	ldr	r2, [pc, #144]	; 80107b54 <_malloc_r+0x79c>
80107ac0:	e5921000 	ldr	r1, [r2]
80107ac4:	e0891001 	add	r1, r9, r1
80107ac8:	e5821000 	str	r1, [r2]
80107acc:	eafffef8 	b	801076b4 <_malloc_r+0x2fc>
80107ad0:	e3520f55 	cmp	r2, #340	; 0x154
80107ad4:	8a00000f 	bhi	80107b18 <_malloc_r+0x760>
80107ad8:	e1a027a3 	lsr	r2, r3, #15
80107adc:	e282c078 	add	ip, r2, #120	; 0x78
80107ae0:	e1a0c18c 	lsl	ip, ip, #3
80107ae4:	e2822077 	add	r2, r2, #119	; 0x77
80107ae8:	eaffff8f 	b	8010792c <_malloc_r+0x574>
80107aec:	e3a01ffe 	mov	r1, #1016	; 0x3f8
80107af0:	e3a0007f 	mov	r0, #127	; 0x7f
80107af4:	e3a0c07e 	mov	ip, #126	; 0x7e
80107af8:	eafffe67 	b	8010749c <_malloc_r+0xe4>
80107afc:	e2841008 	add	r1, r4, #8
80107b00:	e1a00006 	mov	r0, r6
80107b04:	e58d2004 	str	r2, [sp, #4]
80107b08:	ebfffd5d 	bl	80107084 <_free_r>
80107b0c:	e59d2004 	ldr	r2, [sp, #4]
80107b10:	e5921000 	ldr	r1, [r2]
80107b14:	eaffff18 	b	8010777c <_malloc_r+0x3c4>
80107b18:	e59f1040 	ldr	r1, [pc, #64]	; 80107b60 <_malloc_r+0x7a8>
80107b1c:	e1520001 	cmp	r2, r1
80107b20:	91a02923 	lsrls	r2, r3, #18
80107b24:	9282c07d 	addls	ip, r2, #125	; 0x7d
80107b28:	91a0c18c 	lslls	ip, ip, #3
80107b2c:	9282207c 	addls	r2, r2, #124	; 0x7c
80107b30:	83a0cffe 	movhi	ip, #1016	; 0x3f8
80107b34:	83a0207e 	movhi	r2, #126	; 0x7e
80107b38:	eaffff7b 	b	8010792c <_malloc_r+0x574>
80107b3c:	e5973004 	ldr	r3, [r7, #4]
80107b40:	eaffffaf 	b	80107a04 <_malloc_r+0x64c>
80107b44:	8010b124 	.word	0x8010b124
80107b48:	8010b12c 	.word	0x8010b12c
80107b4c:	8010b52c 	.word	0x8010b52c
80107b50:	8010b704 	.word	0x8010b704
80107b54:	8010b6d4 	.word	0x8010b6d4
80107b58:	8010b6fc 	.word	0x8010b6fc
80107b5c:	8010b700 	.word	0x8010b700
80107b60:	00000554 	.word	0x00000554

Disassembly of section .text.memchr:

80107b64 <memchr>:
80107b64:	e3100003 	tst	r0, #3
80107b68:	e92d4070 	push	{r4, r5, r6, lr}
80107b6c:	e201e0ff 	and	lr, r1, #255	; 0xff
80107b70:	0a000038 	beq	80107c58 <memchr+0xf4>
80107b74:	e3520000 	cmp	r2, #0
80107b78:	e242c001 	sub	ip, r2, #1
80107b7c:	0a00001e 	beq	80107bfc <memchr+0x98>
80107b80:	e5d03000 	ldrb	r3, [r0]
80107b84:	e153000e 	cmp	r3, lr
80107b88:	0a00001c 	beq	80107c00 <memchr+0x9c>
80107b8c:	e2803001 	add	r3, r0, #1
80107b90:	ea000005 	b	80107bac <memchr+0x48>
80107b94:	e25cc001 	subs	ip, ip, #1
80107b98:	3a000017 	bcc	80107bfc <memchr+0x98>
80107b9c:	e5d02000 	ldrb	r2, [r0]
80107ba0:	e152000e 	cmp	r2, lr
80107ba4:	e2833001 	add	r3, r3, #1
80107ba8:	0a000014 	beq	80107c00 <memchr+0x9c>
80107bac:	e3130003 	tst	r3, #3
80107bb0:	e1a00003 	mov	r0, r3
80107bb4:	1afffff6 	bne	80107b94 <memchr+0x30>
80107bb8:	e35c0003 	cmp	ip, #3
80107bbc:	8a000011 	bhi	80107c08 <memchr+0xa4>
80107bc0:	e35c0000 	cmp	ip, #0
80107bc4:	0a000025 	beq	80107c60 <memchr+0xfc>
80107bc8:	e5d03000 	ldrb	r3, [r0]
80107bcc:	e153000e 	cmp	r3, lr
80107bd0:	0a00000a 	beq	80107c00 <memchr+0x9c>
80107bd4:	e080c00c 	add	ip, r0, ip
80107bd8:	e2803001 	add	r3, r0, #1
80107bdc:	ea000003 	b	80107bf0 <memchr+0x8c>
80107be0:	e5d02000 	ldrb	r2, [r0]
80107be4:	e152000e 	cmp	r2, lr
80107be8:	e2833001 	add	r3, r3, #1
80107bec:	0a000003 	beq	80107c00 <memchr+0x9c>
80107bf0:	e15c0003 	cmp	ip, r3
80107bf4:	e1a00003 	mov	r0, r3
80107bf8:	1afffff8 	bne	80107be0 <memchr+0x7c>
80107bfc:	e3a00000 	mov	r0, #0
80107c00:	e8bd4070 	pop	{r4, r5, r6, lr}
80107c04:	e12fff1e 	bx	lr
80107c08:	e1a02000 	mov	r2, r0
80107c0c:	e59f4054 	ldr	r4, [pc, #84]	; 80107c68 <memchr+0x104>
80107c10:	e0044401 	and	r4, r4, r1, lsl #8
80107c14:	e184400e 	orr	r4, r4, lr
80107c18:	e59f604c 	ldr	r6, [pc, #76]	; 80107c6c <memchr+0x108>
80107c1c:	e59f504c 	ldr	r5, [pc, #76]	; 80107c70 <memchr+0x10c>
80107c20:	e1844804 	orr	r4, r4, r4, lsl #16
80107c24:	e5923000 	ldr	r3, [r2]
80107c28:	e0233004 	eor	r3, r3, r4
80107c2c:	e0831006 	add	r1, r3, r6
80107c30:	e1c13003 	bic	r3, r1, r3
80107c34:	e1130005 	tst	r3, r5
80107c38:	e1a00002 	mov	r0, r2
80107c3c:	e2822004 	add	r2, r2, #4
80107c40:	1affffe0 	bne	80107bc8 <memchr+0x64>
80107c44:	e24cc004 	sub	ip, ip, #4
80107c48:	e35c0003 	cmp	ip, #3
80107c4c:	e1a00002 	mov	r0, r2
80107c50:	8afffff3 	bhi	80107c24 <memchr+0xc0>
80107c54:	eaffffd9 	b	80107bc0 <memchr+0x5c>
80107c58:	e1a0c002 	mov	ip, r2
80107c5c:	eaffffd5 	b	80107bb8 <memchr+0x54>
80107c60:	e1a0000c 	mov	r0, ip
80107c64:	eaffffe5 	b	80107c00 <memchr+0x9c>
80107c68:	0000ffff 	.word	0x0000ffff
80107c6c:	fefefeff 	.word	0xfefefeff
80107c70:	80808080 	.word	0x80808080

Disassembly of section .text.memcpy:

80107c74 <memcpy>:
80107c74:	e352000f 	cmp	r2, #15
80107c78:	9a00000a 	bls	80107ca8 <memcpy+0x34>
80107c7c:	e1803001 	orr	r3, r0, r1
80107c80:	e3130003 	tst	r3, #3
80107c84:	11a03000 	movne	r3, r0
80107c88:	0a00000a 	beq	80107cb8 <memcpy+0x44>
80107c8c:	e2433001 	sub	r3, r3, #1
80107c90:	e0812002 	add	r2, r1, r2
80107c94:	e4d1c001 	ldrb	ip, [r1], #1
80107c98:	e1510002 	cmp	r1, r2
80107c9c:	e5e3c001 	strb	ip, [r3, #1]!
80107ca0:	1afffffb 	bne	80107c94 <memcpy+0x20>
80107ca4:	e12fff1e 	bx	lr
80107ca8:	e3520000 	cmp	r2, #0
80107cac:	e1a03000 	mov	r3, r0
80107cb0:	1afffff5 	bne	80107c8c <memcpy+0x18>
80107cb4:	e12fff1e 	bx	lr
80107cb8:	e2423010 	sub	r3, r2, #16
80107cbc:	e92d4070 	push	{r4, r5, r6, lr}
80107cc0:	e1a03223 	lsr	r3, r3, #4
80107cc4:	e2816020 	add	r6, r1, #32
80107cc8:	e0866203 	add	r6, r6, r3, lsl #4
80107ccc:	e281c010 	add	ip, r1, #16
80107cd0:	e280e010 	add	lr, r0, #16
80107cd4:	e51c5010 	ldr	r5, [ip, #-16]
80107cd8:	e51c400c 	ldr	r4, [ip, #-12]
80107cdc:	e50e5010 	str	r5, [lr, #-16]
80107ce0:	e50e400c 	str	r4, [lr, #-12]
80107ce4:	e51c5008 	ldr	r5, [ip, #-8]
80107ce8:	e51c4004 	ldr	r4, [ip, #-4]
80107cec:	e28cc010 	add	ip, ip, #16
80107cf0:	e15c0006 	cmp	ip, r6
80107cf4:	e50e5008 	str	r5, [lr, #-8]
80107cf8:	e50e4004 	str	r4, [lr, #-4]
80107cfc:	e28ee010 	add	lr, lr, #16
80107d00:	1afffff3 	bne	80107cd4 <memcpy+0x60>
80107d04:	e202e00f 	and	lr, r2, #15
80107d08:	e2833001 	add	r3, r3, #1
80107d0c:	e1a03203 	lsl	r3, r3, #4
80107d10:	e35e0003 	cmp	lr, #3
80107d14:	e0811003 	add	r1, r1, r3
80107d18:	91a0200e 	movls	r2, lr
80107d1c:	e0803003 	add	r3, r0, r3
80107d20:	9a00000d 	bls	80107d5c <memcpy+0xe8>
80107d24:	e1a05001 	mov	r5, r1
80107d28:	e1a0c00e 	mov	ip, lr
80107d2c:	e2434004 	sub	r4, r3, #4
80107d30:	e24cc004 	sub	ip, ip, #4
80107d34:	e4956004 	ldr	r6, [r5], #4
80107d38:	e35c0003 	cmp	ip, #3
80107d3c:	e5a46004 	str	r6, [r4, #4]!
80107d40:	8afffffa 	bhi	80107d30 <memcpy+0xbc>
80107d44:	e24ec004 	sub	ip, lr, #4
80107d48:	e3ccc003 	bic	ip, ip, #3
80107d4c:	e28cc004 	add	ip, ip, #4
80107d50:	e083300c 	add	r3, r3, ip
80107d54:	e081100c 	add	r1, r1, ip
80107d58:	e2022003 	and	r2, r2, #3
80107d5c:	e3520000 	cmp	r2, #0
80107d60:	12433001 	subne	r3, r3, #1
80107d64:	10812002 	addne	r2, r1, r2
80107d68:	0a000003 	beq	80107d7c <memcpy+0x108>
80107d6c:	e4d1c001 	ldrb	ip, [r1], #1
80107d70:	e1510002 	cmp	r1, r2
80107d74:	e5e3c001 	strb	ip, [r3, #1]!
80107d78:	1afffffb 	bne	80107d6c <memcpy+0xf8>
80107d7c:	e8bd4070 	pop	{r4, r5, r6, lr}
80107d80:	e12fff1e 	bx	lr

Disassembly of section .text.__malloc_lock:

80107d84 <__malloc_lock>:
80107d84:	e92d4010 	push	{r4, lr}
80107d88:	e59f0008 	ldr	r0, [pc, #8]	; 80107d98 <__malloc_lock+0x14>
80107d8c:	ebffec83 	bl	80102fa0 <__retarget_lock_acquire_recursive>
80107d90:	e8bd4010 	pop	{r4, lr}
80107d94:	e12fff1e 	bx	lr
80107d98:	8010b71c 	.word	0x8010b71c

Disassembly of section .text.__malloc_unlock:

80107d9c <__malloc_unlock>:
80107d9c:	e92d4010 	push	{r4, lr}
80107da0:	e59f0008 	ldr	r0, [pc, #8]	; 80107db0 <__malloc_unlock+0x14>
80107da4:	ebffec83 	bl	80102fb8 <__retarget_lock_release_recursive>
80107da8:	e8bd4010 	pop	{r4, lr}
80107dac:	e12fff1e 	bx	lr
80107db0:	8010b71c 	.word	0x8010b71c

Disassembly of section .text._Balloc:

80107db4 <_Balloc>:
80107db4:	e590304c 	ldr	r3, [r0, #76]	; 0x4c
80107db8:	e3530000 	cmp	r3, #0
80107dbc:	e92d4070 	push	{r4, r5, r6, lr}
80107dc0:	e1a05000 	mov	r5, r0
80107dc4:	e1a04001 	mov	r4, r1
80107dc8:	0a000009 	beq	80107df4 <_Balloc+0x40>
80107dcc:	e7930104 	ldr	r0, [r3, r4, lsl #2]
80107dd0:	e3500000 	cmp	r0, #0
80107dd4:	0a00000f 	beq	80107e18 <_Balloc+0x64>
80107dd8:	e5902000 	ldr	r2, [r0]
80107ddc:	e7832104 	str	r2, [r3, r4, lsl #2]
80107de0:	e3a03000 	mov	r3, #0
80107de4:	e5803010 	str	r3, [r0, #16]
80107de8:	e580300c 	str	r3, [r0, #12]
80107dec:	e8bd4070 	pop	{r4, r5, r6, lr}
80107df0:	e12fff1e 	bx	lr
80107df4:	e3a02021 	mov	r2, #33	; 0x21
80107df8:	e3a01004 	mov	r1, #4
80107dfc:	eb000876 	bl	80109fdc <_calloc_r>
80107e00:	e3500000 	cmp	r0, #0
80107e04:	e1a03000 	mov	r3, r0
80107e08:	e585004c 	str	r0, [r5, #76]	; 0x4c
80107e0c:	1affffee 	bne	80107dcc <_Balloc+0x18>
80107e10:	e3a00000 	mov	r0, #0
80107e14:	eafffff4 	b	80107dec <_Balloc+0x38>
80107e18:	e3a01001 	mov	r1, #1
80107e1c:	e1a06411 	lsl	r6, r1, r4
80107e20:	e2862005 	add	r2, r6, #5
80107e24:	e1a00005 	mov	r0, r5
80107e28:	e1a02102 	lsl	r2, r2, #2
80107e2c:	eb00086a 	bl	80109fdc <_calloc_r>
80107e30:	e3500000 	cmp	r0, #0
80107e34:	0afffff5 	beq	80107e10 <_Balloc+0x5c>
80107e38:	e9800050 	stmib	r0, {r4, r6}
80107e3c:	eaffffe7 	b	80107de0 <_Balloc+0x2c>

Disassembly of section .text._Bfree:

80107e40 <_Bfree>:
80107e40:	e3510000 	cmp	r1, #0
80107e44:	1590304c 	ldrne	r3, [r0, #76]	; 0x4c
80107e48:	15912004 	ldrne	r2, [r1, #4]
80107e4c:	17930102 	ldrne	r0, [r3, r2, lsl #2]
80107e50:	15810000 	strne	r0, [r1]
80107e54:	17831102 	strne	r1, [r3, r2, lsl #2]
80107e58:	e12fff1e 	bx	lr

Disassembly of section .text.__multadd:

80107e5c <__multadd>:
80107e5c:	e92d43f0 	push	{r4, r5, r6, r7, r8, r9, lr}
80107e60:	e1a04001 	mov	r4, r1
80107e64:	e1a05000 	mov	r5, r0
80107e68:	e3a0e000 	mov	lr, #0
80107e6c:	e5916010 	ldr	r6, [r1, #16]
80107e70:	e59f70bc 	ldr	r7, [pc, #188]	; 80107f34 <__multadd+0xd8>
80107e74:	e24dd00c 	sub	sp, sp, #12
80107e78:	e281c014 	add	ip, r1, #20
80107e7c:	e59c0000 	ldr	r0, [ip]
80107e80:	e0001007 	and	r1, r0, r7
80107e84:	e0283192 	mla	r8, r2, r1, r3
80107e88:	e1a01820 	lsr	r1, r0, #16
80107e8c:	e1a00828 	lsr	r0, r8, #16
80107e90:	e0290192 	mla	r9, r2, r1, r0
80107e94:	e28ee001 	add	lr, lr, #1
80107e98:	e0083007 	and	r3, r8, r7
80107e9c:	e0833809 	add	r3, r3, r9, lsl #16
80107ea0:	e156000e 	cmp	r6, lr
80107ea4:	e48c3004 	str	r3, [ip], #4
80107ea8:	e1a03829 	lsr	r3, r9, #16
80107eac:	cafffff2 	bgt	80107e7c <__multadd+0x20>
80107eb0:	e3530000 	cmp	r3, #0
80107eb4:	0a000006 	beq	80107ed4 <__multadd+0x78>
80107eb8:	e5942008 	ldr	r2, [r4, #8]
80107ebc:	e1520006 	cmp	r2, r6
80107ec0:	da000007 	ble	80107ee4 <__multadd+0x88>
80107ec4:	e0842106 	add	r2, r4, r6, lsl #2
80107ec8:	e2866001 	add	r6, r6, #1
80107ecc:	e5823014 	str	r3, [r2, #20]
80107ed0:	e5846010 	str	r6, [r4, #16]
80107ed4:	e1a00004 	mov	r0, r4
80107ed8:	e28dd00c 	add	sp, sp, #12
80107edc:	e8bd43f0 	pop	{r4, r5, r6, r7, r8, r9, lr}
80107ee0:	e12fff1e 	bx	lr
80107ee4:	e5941004 	ldr	r1, [r4, #4]
80107ee8:	e1a00005 	mov	r0, r5
80107eec:	e2811001 	add	r1, r1, #1
80107ef0:	e58d3004 	str	r3, [sp, #4]
80107ef4:	ebffffae 	bl	80107db4 <_Balloc>
80107ef8:	e1a07000 	mov	r7, r0
80107efc:	e5942010 	ldr	r2, [r4, #16]
80107f00:	e2822002 	add	r2, r2, #2
80107f04:	e284100c 	add	r1, r4, #12
80107f08:	e1a02102 	lsl	r2, r2, #2
80107f0c:	e280000c 	add	r0, r0, #12
80107f10:	ebffff57 	bl	80107c74 <memcpy>
80107f14:	e595204c 	ldr	r2, [r5, #76]	; 0x4c
80107f18:	e5941004 	ldr	r1, [r4, #4]
80107f1c:	e7920101 	ldr	r0, [r2, r1, lsl #2]
80107f20:	e59d3004 	ldr	r3, [sp, #4]
80107f24:	e5840000 	str	r0, [r4]
80107f28:	e7824101 	str	r4, [r2, r1, lsl #2]
80107f2c:	e1a04007 	mov	r4, r7
80107f30:	eaffffe3 	b	80107ec4 <__multadd+0x68>
80107f34:	0000ffff 	.word	0x0000ffff

Disassembly of section .text.__s2b:

80107f38 <__s2b>:
80107f38:	e92d47f0 	push	{r4, r5, r6, r7, r8, r9, sl, lr}
80107f3c:	e1a05003 	mov	r5, r3
80107f40:	e59f30d0 	ldr	r3, [pc, #208]	; 80108018 <__s2b+0xe0>
80107f44:	e285c008 	add	ip, r5, #8
80107f48:	e0c7639c 	smull	r6, r7, ip, r3
80107f4c:	e1a0cfcc 	asr	ip, ip, #31
80107f50:	e06cc0c7 	rsb	ip, ip, r7, asr #1
80107f54:	e35c0001 	cmp	ip, #1
80107f58:	e1a04001 	mov	r4, r1
80107f5c:	e1a06000 	mov	r6, r0
80107f60:	e1a07002 	mov	r7, r2
80107f64:	e59d8020 	ldr	r8, [sp, #32]
80107f68:	d3a01000 	movle	r1, #0
80107f6c:	da000005 	ble	80107f88 <__s2b+0x50>
80107f70:	e3a03001 	mov	r3, #1
80107f74:	e3a01000 	mov	r1, #0
80107f78:	e1a03083 	lsl	r3, r3, #1
80107f7c:	e15c0003 	cmp	ip, r3
80107f80:	e2811001 	add	r1, r1, #1
80107f84:	cafffffb 	bgt	80107f78 <__s2b+0x40>
80107f88:	e1a00006 	mov	r0, r6
80107f8c:	ebffff88 	bl	80107db4 <_Balloc>
80107f90:	e3a03001 	mov	r3, #1
80107f94:	e3570009 	cmp	r7, #9
80107f98:	e5808014 	str	r8, [r0, #20]
80107f9c:	e5803010 	str	r3, [r0, #16]
80107fa0:	d3a07009 	movle	r7, #9
80107fa4:	d284400a 	addle	r4, r4, #10
80107fa8:	da00000c 	ble	80107fe0 <__s2b+0xa8>
80107fac:	e2849009 	add	r9, r4, #9
80107fb0:	e1a08009 	mov	r8, r9
80107fb4:	e0844007 	add	r4, r4, r7
80107fb8:	e4d83001 	ldrb	r3, [r8], #1
80107fbc:	e1a01000 	mov	r1, r0
80107fc0:	e2433030 	sub	r3, r3, #48	; 0x30
80107fc4:	e3a0200a 	mov	r2, #10
80107fc8:	e1a00006 	mov	r0, r6
80107fcc:	ebffffa2 	bl	80107e5c <__multadd>
80107fd0:	e1540008 	cmp	r4, r8
80107fd4:	1afffff7 	bne	80107fb8 <__s2b+0x80>
80107fd8:	e0894007 	add	r4, r9, r7
80107fdc:	e2444008 	sub	r4, r4, #8
80107fe0:	e1550007 	cmp	r5, r7
80107fe4:	da000009 	ble	80108010 <__s2b+0xd8>
80107fe8:	e0455007 	sub	r5, r5, r7
80107fec:	e0845005 	add	r5, r4, r5
80107ff0:	e4d43001 	ldrb	r3, [r4], #1
80107ff4:	e1a01000 	mov	r1, r0
80107ff8:	e2433030 	sub	r3, r3, #48	; 0x30
80107ffc:	e3a0200a 	mov	r2, #10
80108000:	e1a00006 	mov	r0, r6
80108004:	ebffff94 	bl	80107e5c <__multadd>
80108008:	e1550004 	cmp	r5, r4
8010800c:	1afffff7 	bne	80107ff0 <__s2b+0xb8>
80108010:	e8bd47f0 	pop	{r4, r5, r6, r7, r8, r9, sl, lr}
80108014:	e12fff1e 	bx	lr
80108018:	38e38e39 	.word	0x38e38e39

Disassembly of section .text.__hi0bits:

8010801c <__hi0bits>:
8010801c:	e1a02820 	lsr	r2, r0, #16
80108020:	e1a03000 	mov	r3, r0
80108024:	e1a02802 	lsl	r2, r2, #16
80108028:	e3520000 	cmp	r2, #0
8010802c:	01a03800 	lsleq	r3, r0, #16
80108030:	13a00000 	movne	r0, #0
80108034:	03a00010 	moveq	r0, #16
80108038:	e31304ff 	tst	r3, #-16777216	; 0xff000000
8010803c:	01a03403 	lsleq	r3, r3, #8
80108040:	02800008 	addeq	r0, r0, #8
80108044:	e313020f 	tst	r3, #-268435456	; 0xf0000000
80108048:	01a03203 	lsleq	r3, r3, #4
8010804c:	02800004 	addeq	r0, r0, #4
80108050:	e3130103 	tst	r3, #-1073741824	; 0xc0000000
80108054:	01a03103 	lsleq	r3, r3, #2
80108058:	02800002 	addeq	r0, r0, #2
8010805c:	e3530000 	cmp	r3, #0
80108060:	b12fff1e 	bxlt	lr
80108064:	e3130101 	tst	r3, #1073741824	; 0x40000000
80108068:	12800001 	addne	r0, r0, #1
8010806c:	03a00020 	moveq	r0, #32
80108070:	e12fff1e 	bx	lr

Disassembly of section .text.__lo0bits:

80108074 <__lo0bits>:
80108074:	e5903000 	ldr	r3, [r0]
80108078:	e2132007 	ands	r2, r3, #7
8010807c:	e1a01000 	mov	r1, r0
80108080:	0a000009 	beq	801080ac <__lo0bits+0x38>
80108084:	e3130001 	tst	r3, #1
80108088:	1a00001d 	bne	80108104 <__lo0bits+0x90>
8010808c:	e3130002 	tst	r3, #2
80108090:	11a030a3 	lsrne	r3, r3, #1
80108094:	01a03123 	lsreq	r3, r3, #2
80108098:	15803000 	strne	r3, [r0]
8010809c:	05813000 	streq	r3, [r1]
801080a0:	13a00001 	movne	r0, #1
801080a4:	03a00002 	moveq	r0, #2
801080a8:	e12fff1e 	bx	lr
801080ac:	e1a00803 	lsl	r0, r3, #16
801080b0:	e1a00820 	lsr	r0, r0, #16
801080b4:	e3500000 	cmp	r0, #0
801080b8:	03a00010 	moveq	r0, #16
801080bc:	11a00002 	movne	r0, r2
801080c0:	01a03823 	lsreq	r3, r3, #16
801080c4:	e31300ff 	tst	r3, #255	; 0xff
801080c8:	01a03423 	lsreq	r3, r3, #8
801080cc:	02800008 	addeq	r0, r0, #8
801080d0:	e313000f 	tst	r3, #15
801080d4:	01a03223 	lsreq	r3, r3, #4
801080d8:	02800004 	addeq	r0, r0, #4
801080dc:	e3130003 	tst	r3, #3
801080e0:	01a03123 	lsreq	r3, r3, #2
801080e4:	02800002 	addeq	r0, r0, #2
801080e8:	e3130001 	tst	r3, #1
801080ec:	1a000002 	bne	801080fc <__lo0bits+0x88>
801080f0:	e1b030a3 	lsrs	r3, r3, #1
801080f4:	0a000004 	beq	8010810c <__lo0bits+0x98>
801080f8:	e2800001 	add	r0, r0, #1
801080fc:	e5813000 	str	r3, [r1]
80108100:	e12fff1e 	bx	lr
80108104:	e3a00000 	mov	r0, #0
80108108:	e12fff1e 	bx	lr
8010810c:	e3a00020 	mov	r0, #32
80108110:	e12fff1e 	bx	lr

Disassembly of section .text.__i2b:

80108114 <__i2b>:
80108114:	e92d4010 	push	{r4, lr}
80108118:	e1a04001 	mov	r4, r1
8010811c:	e3a01001 	mov	r1, #1
80108120:	ebffff23 	bl	80107db4 <_Balloc>
80108124:	e3a02001 	mov	r2, #1
80108128:	e5804014 	str	r4, [r0, #20]
8010812c:	e5802010 	str	r2, [r0, #16]
80108130:	e8bd4010 	pop	{r4, lr}
80108134:	e12fff1e 	bx	lr

Disassembly of section .text.__multiply:

80108138 <__multiply>:
80108138:	e92d4ff0 	push	{r4, r5, r6, r7, r8, r9, sl, fp, lr}
8010813c:	e5913010 	ldr	r3, [r1, #16]
80108140:	e5924010 	ldr	r4, [r2, #16]
80108144:	e1530004 	cmp	r3, r4
80108148:	b1a05002 	movlt	r5, r2
8010814c:	a1a05001 	movge	r5, r1
80108150:	a1a09003 	movge	r9, r3
80108154:	b1a09004 	movlt	r9, r4
80108158:	b1a04003 	movlt	r4, r3
8010815c:	e5953008 	ldr	r3, [r5, #8]
80108160:	e0897004 	add	r7, r9, r4
80108164:	b1a0a001 	movlt	sl, r1
80108168:	e5951004 	ldr	r1, [r5, #4]
8010816c:	a1a0a002 	movge	sl, r2
80108170:	e1530007 	cmp	r3, r7
80108174:	e24dd014 	sub	sp, sp, #20
80108178:	b2811001 	addlt	r1, r1, #1
8010817c:	ebffff0c 	bl	80107db4 <_Balloc>
80108180:	e280b014 	add	fp, r0, #20
80108184:	e08b1107 	add	r1, fp, r7, lsl #2
80108188:	e15b0001 	cmp	fp, r1
8010818c:	e58d0004 	str	r0, [sp, #4]
80108190:	e58d1008 	str	r1, [sp, #8]
80108194:	2a000004 	bcs	801081ac <__multiply+0x74>
80108198:	e1a0300b 	mov	r3, fp
8010819c:	e3a02000 	mov	r2, #0
801081a0:	e4832004 	str	r2, [r3], #4
801081a4:	e1510003 	cmp	r1, r3
801081a8:	8afffffc 	bhi	801081a0 <__multiply+0x68>
801081ac:	e28a3014 	add	r3, sl, #20
801081b0:	e0834104 	add	r4, r3, r4, lsl #2
801081b4:	e2852014 	add	r2, r5, #20
801081b8:	e1530004 	cmp	r3, r4
801081bc:	e58d2000 	str	r2, [sp]
801081c0:	e0829109 	add	r9, r2, r9, lsl #2
801081c4:	2a000047 	bcs	801082e8 <__multiply+0x1b0>
801081c8:	e044400a 	sub	r4, r4, sl
801081cc:	e2444015 	sub	r4, r4, #21
801081d0:	e3c44003 	bic	r4, r4, #3
801081d4:	e59fe158 	ldr	lr, [pc, #344]	; 80108334 <__multiply+0x1fc>
801081d8:	e0838004 	add	r8, r3, r4
801081dc:	e28aa010 	add	sl, sl, #16
801081e0:	e58d700c 	str	r7, [sp, #12]
801081e4:	ea000004 	b	801081fc <__multiply+0xc4>
801081e8:	e1b01821 	lsrs	r1, r1, #16
801081ec:	1a00001f 	bne	80108270 <__multiply+0x138>
801081f0:	e158000a 	cmp	r8, sl
801081f4:	e28bb004 	add	fp, fp, #4
801081f8:	0a000039 	beq	801082e4 <__multiply+0x1ac>
801081fc:	e5ba1004 	ldr	r1, [sl, #4]!
80108200:	e011700e 	ands	r7, r1, lr
80108204:	0afffff7 	beq	801081e8 <__multiply+0xb0>
80108208:	e59d6000 	ldr	r6, [sp]
8010820c:	e1a0500b 	mov	r5, fp
80108210:	e3a01000 	mov	r1, #0
80108214:	ea000000 	b	8010821c <__multiply+0xe4>
80108218:	e1a05000 	mov	r5, r0
8010821c:	e1a00005 	mov	r0, r5
80108220:	e4962004 	ldr	r2, [r6], #4
80108224:	e595c000 	ldr	ip, [r5]
80108228:	e002300e 	and	r3, r2, lr
8010822c:	e00c400e 	and	r4, ip, lr
80108230:	e1a02822 	lsr	r2, r2, #16
80108234:	e0234397 	mla	r3, r7, r3, r4
80108238:	e1a0c82c 	lsr	ip, ip, #16
8010823c:	e022c297 	mla	r2, r7, r2, ip
80108240:	e0833001 	add	r3, r3, r1
80108244:	e0821823 	add	r1, r2, r3, lsr #16
80108248:	e003300e 	and	r3, r3, lr
8010824c:	e1832801 	orr	r2, r3, r1, lsl #16
80108250:	e1590006 	cmp	r9, r6
80108254:	e1a01821 	lsr	r1, r1, #16
80108258:	e4802004 	str	r2, [r0], #4
8010825c:	8affffed 	bhi	80108218 <__multiply+0xe0>
80108260:	e5851004 	str	r1, [r5, #4]
80108264:	e59a1000 	ldr	r1, [sl]
80108268:	e1b01821 	lsrs	r1, r1, #16
8010826c:	0affffdf 	beq	801081f0 <__multiply+0xb8>
80108270:	e59b3000 	ldr	r3, [fp]
80108274:	e59d0000 	ldr	r0, [sp]
80108278:	e1a05003 	mov	r5, r3
8010827c:	e1a0400b 	mov	r4, fp
80108280:	e3a02000 	mov	r2, #0
80108284:	ea000000 	b	8010828c <__multiply+0x154>
80108288:	e1a0400c 	mov	r4, ip
8010828c:	e1a0c004 	mov	ip, r4
80108290:	e5906000 	ldr	r6, [r0]
80108294:	e1a07825 	lsr	r7, r5, #16
80108298:	e006600e 	and	r6, r6, lr
8010829c:	e0257691 	mla	r5, r1, r6, r7
801082a0:	e003300e 	and	r3, r3, lr
801082a4:	e0852002 	add	r2, r5, r2
801082a8:	e1833802 	orr	r3, r3, r2, lsl #16
801082ac:	e48c3004 	str	r3, [ip], #4
801082b0:	e4903004 	ldr	r3, [r0], #4
801082b4:	e5945004 	ldr	r5, [r4, #4]
801082b8:	e1a07823 	lsr	r7, r3, #16
801082bc:	e005600e 	and	r6, r5, lr
801082c0:	e0236791 	mla	r3, r1, r7, r6
801082c4:	e1590000 	cmp	r9, r0
801082c8:	e0833822 	add	r3, r3, r2, lsr #16
801082cc:	e1a02823 	lsr	r2, r3, #16
801082d0:	8affffec 	bhi	80108288 <__multiply+0x150>
801082d4:	e158000a 	cmp	r8, sl
801082d8:	e5843004 	str	r3, [r4, #4]
801082dc:	e28bb004 	add	fp, fp, #4
801082e0:	1affffc5 	bne	801081fc <__multiply+0xc4>
801082e4:	e59d700c 	ldr	r7, [sp, #12]
801082e8:	e3570000 	cmp	r7, #0
801082ec:	da00000a 	ble	8010831c <__multiply+0x1e4>
801082f0:	e59d2008 	ldr	r2, [sp, #8]
801082f4:	e5123004 	ldr	r3, [r2, #-4]
801082f8:	e3530000 	cmp	r3, #0
801082fc:	e2423004 	sub	r3, r2, #4
80108300:	0a000003 	beq	80108314 <__multiply+0x1dc>
80108304:	ea000004 	b	8010831c <__multiply+0x1e4>
80108308:	e5332004 	ldr	r2, [r3, #-4]!
8010830c:	e3520000 	cmp	r2, #0
80108310:	1a000001 	bne	8010831c <__multiply+0x1e4>
80108314:	e2577001 	subs	r7, r7, #1
80108318:	1afffffa 	bne	80108308 <__multiply+0x1d0>
8010831c:	e59d3004 	ldr	r3, [sp, #4]
80108320:	e1a00003 	mov	r0, r3
80108324:	e5837010 	str	r7, [r3, #16]
80108328:	e28dd014 	add	sp, sp, #20
8010832c:	e8bd4ff0 	pop	{r4, r5, r6, r7, r8, r9, sl, fp, lr}
80108330:	e12fff1e 	bx	lr
80108334:	0000ffff 	.word	0x0000ffff

Disassembly of section .text.__pow5mult:

80108338 <__pow5mult>:
80108338:	e2123003 	ands	r3, r2, #3
8010833c:	e92d41f0 	push	{r4, r5, r6, r7, r8, lr}
80108340:	e1a04002 	mov	r4, r2
80108344:	e1a07000 	mov	r7, r0
80108348:	01a05001 	moveq	r5, r1
8010834c:	1a000025 	bne	801083e8 <__pow5mult+0xb0>
80108350:	e1b04144 	asrs	r4, r4, #2
80108354:	0a000019 	beq	801083c0 <__pow5mult+0x88>
80108358:	e5976048 	ldr	r6, [r7, #72]	; 0x48
8010835c:	e3560000 	cmp	r6, #0
80108360:	0a000027 	beq	80108404 <__pow5mult+0xcc>
80108364:	e3a08000 	mov	r8, #0
80108368:	ea000005 	b	80108384 <__pow5mult+0x4c>
8010836c:	e1b040c4 	asrs	r4, r4, #1
80108370:	0a000012 	beq	801083c0 <__pow5mult+0x88>
80108374:	e5960000 	ldr	r0, [r6]
80108378:	e3500000 	cmp	r0, #0
8010837c:	0a000012 	beq	801083cc <__pow5mult+0x94>
80108380:	e1a06000 	mov	r6, r0
80108384:	e3140001 	tst	r4, #1
80108388:	0afffff7 	beq	8010836c <__pow5mult+0x34>
8010838c:	e1a02006 	mov	r2, r6
80108390:	e1a01005 	mov	r1, r5
80108394:	e1a00007 	mov	r0, r7
80108398:	ebffff66 	bl	80108138 <__multiply>
8010839c:	e3550000 	cmp	r5, #0
801083a0:	15952004 	ldrne	r2, [r5, #4]
801083a4:	1597304c 	ldrne	r3, [r7, #76]	; 0x4c
801083a8:	17931102 	ldrne	r1, [r3, r2, lsl #2]
801083ac:	15851000 	strne	r1, [r5]
801083b0:	17835102 	strne	r5, [r3, r2, lsl #2]
801083b4:	e1b040c4 	asrs	r4, r4, #1
801083b8:	e1a05000 	mov	r5, r0
801083bc:	1affffec 	bne	80108374 <__pow5mult+0x3c>
801083c0:	e1a00005 	mov	r0, r5
801083c4:	e8bd41f0 	pop	{r4, r5, r6, r7, r8, lr}
801083c8:	e12fff1e 	bx	lr
801083cc:	e1a02006 	mov	r2, r6
801083d0:	e1a01006 	mov	r1, r6
801083d4:	e1a00007 	mov	r0, r7
801083d8:	ebffff56 	bl	80108138 <__multiply>
801083dc:	e5860000 	str	r0, [r6]
801083e0:	e5808000 	str	r8, [r0]
801083e4:	eaffffe5 	b	80108380 <__pow5mult+0x48>
801083e8:	e59f2044 	ldr	r2, [pc, #68]	; 80108434 <__pow5mult+0xfc>
801083ec:	e2433001 	sub	r3, r3, #1
801083f0:	e7922103 	ldr	r2, [r2, r3, lsl #2]
801083f4:	e3a03000 	mov	r3, #0
801083f8:	ebfffe97 	bl	80107e5c <__multadd>
801083fc:	e1a05000 	mov	r5, r0
80108400:	eaffffd2 	b	80108350 <__pow5mult+0x18>
80108404:	e3a01001 	mov	r1, #1
80108408:	e1a00007 	mov	r0, r7
8010840c:	ebfffe68 	bl	80107db4 <_Balloc>
80108410:	e3a01001 	mov	r1, #1
80108414:	e3a03000 	mov	r3, #0
80108418:	e59f2018 	ldr	r2, [pc, #24]	; 80108438 <__pow5mult+0x100>
8010841c:	e5801010 	str	r1, [r0, #16]
80108420:	e5802014 	str	r2, [r0, #20]
80108424:	e1a06000 	mov	r6, r0
80108428:	e5870048 	str	r0, [r7, #72]	; 0x48
8010842c:	e5803000 	str	r3, [r0]
80108430:	eaffffcb 	b	80108364 <__pow5mult+0x2c>
80108434:	8010aba0 	.word	0x8010aba0
80108438:	00000271 	.word	0x00000271

Disassembly of section .text.__lshift:

8010843c <__lshift>:
8010843c:	e92d47f0 	push	{r4, r5, r6, r7, r8, r9, sl, lr}
80108440:	e5917010 	ldr	r7, [r1, #16]
80108444:	e1a082c2 	asr	r8, r2, #5
80108448:	e5913008 	ldr	r3, [r1, #8]
8010844c:	e0887007 	add	r7, r8, r7
80108450:	e2874001 	add	r4, r7, #1
80108454:	e1540003 	cmp	r4, r3
80108458:	e1a05001 	mov	r5, r1
8010845c:	e1a09002 	mov	r9, r2
80108460:	e1a06000 	mov	r6, r0
80108464:	e5911004 	ldr	r1, [r1, #4]
80108468:	da000003 	ble	8010847c <__lshift+0x40>
8010846c:	e1a03083 	lsl	r3, r3, #1
80108470:	e1540003 	cmp	r4, r3
80108474:	e2811001 	add	r1, r1, #1
80108478:	cafffffb 	bgt	8010846c <__lshift+0x30>
8010847c:	e1a00006 	mov	r0, r6
80108480:	ebfffe4b 	bl	80107db4 <_Balloc>
80108484:	e3580000 	cmp	r8, #0
80108488:	e2803014 	add	r3, r0, #20
8010848c:	d1a01003 	movle	r1, r3
80108490:	da000004 	ble	801084a8 <__lshift+0x6c>
80108494:	e3a02000 	mov	r2, #0
80108498:	e0831108 	add	r1, r3, r8, lsl #2
8010849c:	e4832004 	str	r2, [r3], #4
801084a0:	e1530001 	cmp	r3, r1
801084a4:	1afffffc 	bne	8010849c <__lshift+0x60>
801084a8:	e5958010 	ldr	r8, [r5, #16]
801084ac:	e219201f 	ands	r2, r9, #31
801084b0:	e2853014 	add	r3, r5, #20
801084b4:	e0838108 	add	r8, r3, r8, lsl #2
801084b8:	12629020 	rsbne	r9, r2, #32
801084bc:	13a0c000 	movne	ip, #0
801084c0:	1a00000e 	bne	80108500 <__lshift+0xc4>
801084c4:	e2411004 	sub	r1, r1, #4
801084c8:	e4932004 	ldr	r2, [r3], #4
801084cc:	e1580003 	cmp	r8, r3
801084d0:	e5a12004 	str	r2, [r1, #4]!
801084d4:	8afffffb 	bhi	801084c8 <__lshift+0x8c>
801084d8:	e596304c 	ldr	r3, [r6, #76]	; 0x4c
801084dc:	e5952004 	ldr	r2, [r5, #4]
801084e0:	e7931102 	ldr	r1, [r3, r2, lsl #2]
801084e4:	e2444001 	sub	r4, r4, #1
801084e8:	e5804010 	str	r4, [r0, #16]
801084ec:	e5851000 	str	r1, [r5]
801084f0:	e7835102 	str	r5, [r3, r2, lsl #2]
801084f4:	e8bd47f0 	pop	{r4, r5, r6, r7, r8, r9, sl, lr}
801084f8:	e12fff1e 	bx	lr
801084fc:	e1a0100e 	mov	r1, lr
80108500:	e1a0e001 	mov	lr, r1
80108504:	e593a000 	ldr	sl, [r3]
80108508:	e18cc21a 	orr	ip, ip, sl, lsl r2
8010850c:	e48ec004 	str	ip, [lr], #4
80108510:	e493c004 	ldr	ip, [r3], #4
80108514:	e1530008 	cmp	r3, r8
80108518:	e1a0c93c 	lsr	ip, ip, r9
8010851c:	3afffff6 	bcc	801084fc <__lshift+0xc0>
80108520:	e35c0000 	cmp	ip, #0
80108524:	e581c004 	str	ip, [r1, #4]
80108528:	12874002 	addne	r4, r7, #2
8010852c:	eaffffe9 	b	801084d8 <__lshift+0x9c>

Disassembly of section .text.__mcmp:

80108530 <__mcmp>:
80108530:	e52de004 	push	{lr}		; (str lr, [sp, #-4]!)
80108534:	e5913010 	ldr	r3, [r1, #16]
80108538:	e1a0e000 	mov	lr, r0
8010853c:	e5900010 	ldr	r0, [r0, #16]
80108540:	e0500003 	subs	r0, r0, r3
80108544:	1a00000d 	bne	80108580 <__mcmp+0x50>
80108548:	e1a03103 	lsl	r3, r3, #2
8010854c:	e28ee014 	add	lr, lr, #20
80108550:	e2811014 	add	r1, r1, #20
80108554:	e0811003 	add	r1, r1, r3
80108558:	e08e3003 	add	r3, lr, r3
8010855c:	ea000001 	b	80108568 <__mcmp+0x38>
80108560:	e15e0003 	cmp	lr, r3
80108564:	2a000005 	bcs	80108580 <__mcmp+0x50>
80108568:	e533c004 	ldr	ip, [r3, #-4]!
8010856c:	e5312004 	ldr	r2, [r1, #-4]!
80108570:	e15c0002 	cmp	ip, r2
80108574:	0afffff9 	beq	80108560 <__mcmp+0x30>
80108578:	3a000002 	bcc	80108588 <__mcmp+0x58>
8010857c:	e3a00001 	mov	r0, #1
80108580:	e49de004 	pop	{lr}		; (ldr lr, [sp], #4)
80108584:	e12fff1e 	bx	lr
80108588:	e3e00000 	mvn	r0, #0
8010858c:	eafffffb 	b	80108580 <__mcmp+0x50>

Disassembly of section .text.__mdiff:

80108590 <__mdiff>:
80108590:	e92d47f0 	push	{r4, r5, r6, r7, r8, r9, sl, lr}
80108594:	e5923010 	ldr	r3, [r2, #16]
80108598:	e5914010 	ldr	r4, [r1, #16]
8010859c:	e0444003 	sub	r4, r4, r3
801085a0:	e3540000 	cmp	r4, #0
801085a4:	e1a07001 	mov	r7, r1
801085a8:	e1a09002 	mov	r9, r2
801085ac:	e2816014 	add	r6, r1, #20
801085b0:	e2828014 	add	r8, r2, #20
801085b4:	1a000044 	bne	801086cc <__mdiff+0x13c>
801085b8:	e1a03103 	lsl	r3, r3, #2
801085bc:	e0862003 	add	r2, r6, r3
801085c0:	e0883003 	add	r3, r8, r3
801085c4:	ea000001 	b	801085d0 <__mdiff+0x40>
801085c8:	e1520006 	cmp	r2, r6
801085cc:	9a000048 	bls	801086f4 <__mdiff+0x164>
801085d0:	e532c004 	ldr	ip, [r2, #-4]!
801085d4:	e5331004 	ldr	r1, [r3, #-4]!
801085d8:	e15c0001 	cmp	ip, r1
801085dc:	0afffff9 	beq	801085c8 <__mdiff+0x38>
801085e0:	3a00003b 	bcc	801086d4 <__mdiff+0x144>
801085e4:	e5971004 	ldr	r1, [r7, #4]
801085e8:	ebfffdf1 	bl	80107db4 <_Balloc>
801085ec:	e3a0a000 	mov	sl, #0
801085f0:	e5977010 	ldr	r7, [r7, #16]
801085f4:	e5993010 	ldr	r3, [r9, #16]
801085f8:	e580400c 	str	r4, [r0, #12]
801085fc:	e59f4110 	ldr	r4, [pc, #272]	; 80108714 <__mdiff+0x184>
80108600:	e1a05008 	mov	r5, r8
80108604:	e1a0e006 	mov	lr, r6
80108608:	e0888103 	add	r8, r8, r3, lsl #2
8010860c:	e0866107 	add	r6, r6, r7, lsl #2
80108610:	e280c014 	add	ip, r0, #20
80108614:	e49e9004 	ldr	r9, [lr], #4
80108618:	e4951004 	ldr	r1, [r5], #4
8010861c:	e0093004 	and	r3, r9, r4
80108620:	e083300a 	add	r3, r3, sl
80108624:	e1a02821 	lsr	r2, r1, #16
80108628:	e001a004 	and	sl, r1, r4
8010862c:	e043300a 	sub	r3, r3, sl
80108630:	e0622829 	rsb	r2, r2, r9, lsr #16
80108634:	e0822843 	add	r2, r2, r3, asr #16
80108638:	e0033004 	and	r3, r3, r4
8010863c:	e1833802 	orr	r3, r3, r2, lsl #16
80108640:	e1580005 	cmp	r8, r5
80108644:	e48c3004 	str	r3, [ip], #4
80108648:	e1a0a842 	asr	sl, r2, #16
8010864c:	8afffff0 	bhi	80108614 <__mdiff+0x84>
80108650:	e156000e 	cmp	r6, lr
80108654:	9a000012 	bls	801086a4 <__mdiff+0x114>
80108658:	e1a0500c 	mov	r5, ip
8010865c:	e1a0100e 	mov	r1, lr
80108660:	e59f40ac 	ldr	r4, [pc, #172]	; 80108714 <__mdiff+0x184>
80108664:	e4918004 	ldr	r8, [r1], #4
80108668:	e0083004 	and	r3, r8, r4
8010866c:	e083300a 	add	r3, r3, sl
80108670:	e1a02843 	asr	r2, r3, #16
80108674:	e0822828 	add	r2, r2, r8, lsr #16
80108678:	e0033004 	and	r3, r3, r4
8010867c:	e1833802 	orr	r3, r3, r2, lsl #16
80108680:	e1560001 	cmp	r6, r1
80108684:	e4853004 	str	r3, [r5], #4
80108688:	e1a0a842 	asr	sl, r2, #16
8010868c:	8afffff4 	bhi	80108664 <__mdiff+0xd4>
80108690:	e1e0e00e 	mvn	lr, lr
80108694:	e08e6006 	add	r6, lr, r6
80108698:	e3c66003 	bic	r6, r6, #3
8010869c:	e2866004 	add	r6, r6, #4
801086a0:	e08cc006 	add	ip, ip, r6
801086a4:	e3530000 	cmp	r3, #0
801086a8:	e24cc004 	sub	ip, ip, #4
801086ac:	1a000003 	bne	801086c0 <__mdiff+0x130>
801086b0:	e53c3004 	ldr	r3, [ip, #-4]!
801086b4:	e3530000 	cmp	r3, #0
801086b8:	e2477001 	sub	r7, r7, #1
801086bc:	0afffffb 	beq	801086b0 <__mdiff+0x120>
801086c0:	e5807010 	str	r7, [r0, #16]
801086c4:	e8bd47f0 	pop	{r4, r5, r6, r7, r8, r9, sl, lr}
801086c8:	e12fff1e 	bx	lr
801086cc:	a3a04000 	movge	r4, #0
801086d0:	aaffffc3 	bge	801085e4 <__mdiff+0x54>
801086d4:	e1a02006 	mov	r2, r6
801086d8:	e1a03007 	mov	r3, r7
801086dc:	e1a06008 	mov	r6, r8
801086e0:	e1a07009 	mov	r7, r9
801086e4:	e1a08002 	mov	r8, r2
801086e8:	e1a09003 	mov	r9, r3
801086ec:	e3a04001 	mov	r4, #1
801086f0:	eaffffbb 	b	801085e4 <__mdiff+0x54>
801086f4:	e3a01000 	mov	r1, #0
801086f8:	ebfffdad 	bl	80107db4 <_Balloc>
801086fc:	e3a02001 	mov	r2, #1
80108700:	e3a03000 	mov	r3, #0
80108704:	e5802010 	str	r2, [r0, #16]
80108708:	e5803014 	str	r3, [r0, #20]
8010870c:	e8bd47f0 	pop	{r4, r5, r6, r7, r8, r9, sl, lr}
80108710:	e12fff1e 	bx	lr
80108714:	0000ffff 	.word	0x0000ffff

Disassembly of section .text.__ulp:

80108718 <__ulp>:
80108718:	e59f305c 	ldr	r3, [pc, #92]	; 8010877c <__ulp+0x64>
8010871c:	e0033001 	and	r3, r3, r1
80108720:	e243350d 	sub	r3, r3, #54525952	; 0x3400000
80108724:	e3530000 	cmp	r3, #0
80108728:	da000002 	ble	80108738 <__ulp+0x20>
8010872c:	e3a00000 	mov	r0, #0
80108730:	e1a01003 	mov	r1, r3
80108734:	e12fff1e 	bx	lr
80108738:	e2633000 	rsb	r3, r3, #0
8010873c:	e1a03a43 	asr	r3, r3, #20
80108740:	e3530013 	cmp	r3, #19
80108744:	da000008 	ble	8010876c <__ulp+0x54>
80108748:	e2433014 	sub	r3, r3, #20
8010874c:	e353001e 	cmp	r3, #30
80108750:	d3a02001 	movle	r2, #1
80108754:	c3a03001 	movgt	r3, #1
80108758:	d263301f 	rsble	r3, r3, #31
8010875c:	d1a03312 	lslle	r3, r2, r3
80108760:	e3a01000 	mov	r1, #0
80108764:	e1a00003 	mov	r0, r3
80108768:	e12fff1e 	bx	lr
8010876c:	e3a02702 	mov	r2, #524288	; 0x80000
80108770:	e3a00000 	mov	r0, #0
80108774:	e1a01352 	asr	r1, r2, r3
80108778:	e12fff1e 	bx	lr
8010877c:	7ff00000 	.word	0x7ff00000

Disassembly of section .text.__b2d:

80108780 <__b2d>:
80108780:	e92d41f0 	push	{r4, r5, r6, r7, r8, lr}
80108784:	e5907010 	ldr	r7, [r0, #16]
80108788:	e2806014 	add	r6, r0, #20
8010878c:	e0867107 	add	r7, r6, r7, lsl #2
80108790:	e5178004 	ldr	r8, [r7, #-4]
80108794:	e1a00008 	mov	r0, r8
80108798:	ebfffe1f 	bl	8010801c <__hi0bits>
8010879c:	e2603020 	rsb	r3, r0, #32
801087a0:	e350000a 	cmp	r0, #10
801087a4:	e5813000 	str	r3, [r1]
801087a8:	e2473004 	sub	r3, r7, #4
801087ac:	ca00000c 	bgt	801087e4 <__b2d+0x64>
801087b0:	e59f20a4 	ldr	r2, [pc, #164]	; 8010885c <__b2d+0xdc>
801087b4:	e1560003 	cmp	r6, r3
801087b8:	e260300b 	rsb	r3, r0, #11
801087bc:	e1825338 	orr	r5, r2, r8, lsr r3
801087c0:	23a02000 	movcs	r2, #0
801087c4:	35172008 	ldrcc	r2, [r7, #-8]
801087c8:	31a02332 	lsrcc	r2, r2, r3
801087cc:	e2803015 	add	r3, r0, #21
801087d0:	e1824318 	orr	r4, r2, r8, lsl r3
801087d4:	e1a00004 	mov	r0, r4
801087d8:	e1a01005 	mov	r1, r5
801087dc:	e8bd41f0 	pop	{r4, r5, r6, r7, r8, lr}
801087e0:	e12fff1e 	bx	lr
801087e4:	e1560003 	cmp	r6, r3
801087e8:	e240300b 	sub	r3, r0, #11
801087ec:	2a00000c 	bcs	80108824 <__b2d+0xa4>
801087f0:	e3530000 	cmp	r3, #0
801087f4:	e5170008 	ldr	r0, [r7, #-8]
801087f8:	0a00000c 	beq	80108830 <__b2d+0xb0>
801087fc:	e59f2058 	ldr	r2, [pc, #88]	; 8010885c <__b2d+0xdc>
80108800:	e2471008 	sub	r1, r7, #8
80108804:	e1828318 	orr	r8, r2, r8, lsl r3
80108808:	e263c020 	rsb	ip, r3, #32
8010880c:	e1560001 	cmp	r6, r1
80108810:	e1885c30 	orr	r5, r8, r0, lsr ip
80108814:	e1a00310 	lsl	r0, r0, r3
80108818:	3517300c 	ldrcc	r3, [r7, #-12]
8010881c:	31800c33 	orrcc	r0, r0, r3, lsr ip
80108820:	ea000004 	b	80108838 <__b2d+0xb8>
80108824:	e3530000 	cmp	r3, #0
80108828:	01a00003 	moveq	r0, r3
8010882c:	1a000006 	bne	8010884c <__b2d+0xcc>
80108830:	e38855ff 	orr	r5, r8, #1069547520	; 0x3fc00000
80108834:	e3855603 	orr	r5, r5, #3145728	; 0x300000
80108838:	e1a04000 	mov	r4, r0
8010883c:	e1a01005 	mov	r1, r5
80108840:	e1a00004 	mov	r0, r4
80108844:	e8bd41f0 	pop	{r4, r5, r6, r7, r8, lr}
80108848:	e12fff1e 	bx	lr
8010884c:	e59f2008 	ldr	r2, [pc, #8]	; 8010885c <__b2d+0xdc>
80108850:	e3a00000 	mov	r0, #0
80108854:	e1825318 	orr	r5, r2, r8, lsl r3
80108858:	eafffff6 	b	80108838 <__b2d+0xb8>
8010885c:	3ff00000 	.word	0x3ff00000

Disassembly of section .text.__d2b:

80108860 <__d2b>:
80108860:	e92d41f0 	push	{r4, r5, r6, r7, r8, lr}
80108864:	e1a04003 	mov	r4, r3
80108868:	e24dd008 	sub	sp, sp, #8
8010886c:	e1a08002 	mov	r8, r2
80108870:	e3a01001 	mov	r1, #1
80108874:	e59d6020 	ldr	r6, [sp, #32]
80108878:	e59d5024 	ldr	r5, [sp, #36]	; 0x24
8010887c:	ebfffd4c 	bl	80107db4 <_Balloc>
80108880:	e59f20ec 	ldr	r2, [pc, #236]	; 80108974 <__d2b+0x114>
80108884:	e3c414ff 	bic	r1, r4, #-16777216	; 0xff000000
80108888:	e3c1160f 	bic	r1, r1, #15728640	; 0xf00000
8010888c:	e0124a24 	ands	r4, r2, r4, lsr #20
80108890:	13811601 	orrne	r1, r1, #1048576	; 0x100000
80108894:	e3580000 	cmp	r8, #0
80108898:	e1a07000 	mov	r7, r0
8010889c:	e58d1004 	str	r1, [sp, #4]
801088a0:	0a00001f 	beq	80108924 <__d2b+0xc4>
801088a4:	e28d0008 	add	r0, sp, #8
801088a8:	e5208008 	str	r8, [r0, #-8]!
801088ac:	ebfffdf0 	bl	80108074 <__lo0bits>
801088b0:	e3500000 	cmp	r0, #0
801088b4:	059d3000 	ldreq	r3, [sp]
801088b8:	189d000c 	ldmne	sp, {r2, r3}
801088bc:	12601020 	rsbne	r1, r0, #32
801088c0:	05873014 	streq	r3, [r7, #20]
801088c4:	059d3004 	ldreq	r3, [sp, #4]
801088c8:	11822113 	orrne	r2, r2, r3, lsl r1
801088cc:	11a03033 	lsrne	r3, r3, r0
801088d0:	15872014 	strne	r2, [r7, #20]
801088d4:	158d3004 	strne	r3, [sp, #4]
801088d8:	e3530000 	cmp	r3, #0
801088dc:	03a01001 	moveq	r1, #1
801088e0:	13a01002 	movne	r1, #2
801088e4:	e3540000 	cmp	r4, #0
801088e8:	e5873018 	str	r3, [r7, #24]
801088ec:	e5871010 	str	r1, [r7, #16]
801088f0:	1a000015 	bne	8010894c <__d2b+0xec>
801088f4:	e2400e43 	sub	r0, r0, #1072	; 0x430
801088f8:	e0873101 	add	r3, r7, r1, lsl #2
801088fc:	e2400002 	sub	r0, r0, #2
80108900:	e5860000 	str	r0, [r6]
80108904:	e5930010 	ldr	r0, [r3, #16]
80108908:	ebfffdc3 	bl	8010801c <__hi0bits>
8010890c:	e0600281 	rsb	r0, r0, r1, lsl #5
80108910:	e5850000 	str	r0, [r5]
80108914:	e1a00007 	mov	r0, r7
80108918:	e28dd008 	add	sp, sp, #8
8010891c:	e8bd41f0 	pop	{r4, r5, r6, r7, r8, lr}
80108920:	e12fff1e 	bx	lr
80108924:	e28d0004 	add	r0, sp, #4
80108928:	ebfffdd1 	bl	80108074 <__lo0bits>
8010892c:	e3a03001 	mov	r3, #1
80108930:	e59d2004 	ldr	r2, [sp, #4]
80108934:	e3540000 	cmp	r4, #0
80108938:	e1a01003 	mov	r1, r3
8010893c:	e5873010 	str	r3, [r7, #16]
80108940:	e5872014 	str	r2, [r7, #20]
80108944:	e2800020 	add	r0, r0, #32
80108948:	0affffe9 	beq	801088f4 <__d2b+0x94>
8010894c:	e2443e43 	sub	r3, r4, #1072	; 0x430
80108950:	e2433003 	sub	r3, r3, #3
80108954:	e0833000 	add	r3, r3, r0
80108958:	e2600035 	rsb	r0, r0, #53	; 0x35
8010895c:	e5863000 	str	r3, [r6]
80108960:	e5850000 	str	r0, [r5]
80108964:	e1a00007 	mov	r0, r7
80108968:	e28dd008 	add	sp, sp, #8
8010896c:	e8bd41f0 	pop	{r4, r5, r6, r7, r8, lr}
80108970:	e12fff1e 	bx	lr
80108974:	000007ff 	.word	0x000007ff

Disassembly of section .text.__ratio:

80108978 <__ratio>:
80108978:	e92d43f0 	push	{r4, r5, r6, r7, r8, r9, lr}
8010897c:	e24dd00c 	sub	sp, sp, #12
80108980:	e1a08001 	mov	r8, r1
80108984:	e1a0100d 	mov	r1, sp
80108988:	e1a09000 	mov	r9, r0
8010898c:	ebffff7b 	bl	80108780 <__b2d>
80108990:	e1a04000 	mov	r4, r0
80108994:	e1a05001 	mov	r5, r1
80108998:	e1a00008 	mov	r0, r8
8010899c:	e28d1004 	add	r1, sp, #4
801089a0:	ebffff76 	bl	80108780 <__b2d>
801089a4:	e59d3000 	ldr	r3, [sp]
801089a8:	e1a06000 	mov	r6, r0
801089ac:	e1a07001 	mov	r7, r1
801089b0:	e5980010 	ldr	r0, [r8, #16]
801089b4:	e5991010 	ldr	r1, [r9, #16]
801089b8:	e59d2004 	ldr	r2, [sp, #4]
801089bc:	e0411000 	sub	r1, r1, r0
801089c0:	e0433002 	sub	r3, r3, r2
801089c4:	e0833281 	add	r3, r3, r1, lsl #5
801089c8:	e3530000 	cmp	r3, #0
801089cc:	da000009 	ble	801089f8 <__ratio+0x80>
801089d0:	e0859a03 	add	r9, r5, r3, lsl #20
801089d4:	e1a05009 	mov	r5, r9
801089d8:	e1a02006 	mov	r2, r6
801089dc:	e1a03007 	mov	r3, r7
801089e0:	e1a00004 	mov	r0, r4
801089e4:	e1a01005 	mov	r1, r5
801089e8:	ebffe6c5 	bl	80102504 <__aeabi_ddiv>
801089ec:	e28dd00c 	add	sp, sp, #12
801089f0:	e8bd43f0 	pop	{r4, r5, r6, r7, r8, r9, lr}
801089f4:	e12fff1e 	bx	lr
801089f8:	e0633603 	rsb	r3, r3, r3, lsl #12
801089fc:	e0871a03 	add	r1, r7, r3, lsl #20
80108a00:	e1a07001 	mov	r7, r1
80108a04:	eafffff3 	b	801089d8 <__ratio+0x60>

Disassembly of section .text._mprec_log10:

80108a08 <_mprec_log10>:
80108a08:	e3500017 	cmp	r0, #23
80108a0c:	e92d40d0 	push	{r4, r6, r7, lr}
80108a10:	e1a04000 	mov	r4, r0
80108a14:	da00000a 	ble	80108a44 <_mprec_log10+0x3c>
80108a18:	e3a00000 	mov	r0, #0
80108a1c:	e3a06000 	mov	r6, #0
80108a20:	e59f1030 	ldr	r1, [pc, #48]	; 80108a58 <_mprec_log10+0x50>
80108a24:	e59f7030 	ldr	r7, [pc, #48]	; 80108a5c <_mprec_log10+0x54>
80108a28:	e1a02006 	mov	r2, r6
80108a2c:	e1a03007 	mov	r3, r7
80108a30:	ebffe60f 	bl	80102274 <__aeabi_dmul>
80108a34:	e2544001 	subs	r4, r4, #1
80108a38:	1afffffa 	bne	80108a28 <_mprec_log10+0x20>
80108a3c:	e8bd40d0 	pop	{r4, r6, r7, lr}
80108a40:	e12fff1e 	bx	lr
80108a44:	e59f3014 	ldr	r3, [pc, #20]	; 80108a60 <_mprec_log10+0x58>
80108a48:	e0834180 	add	r4, r3, r0, lsl #3
80108a4c:	e8940003 	ldm	r4, {r0, r1}
80108a50:	e8bd40d0 	pop	{r4, r6, r7, lr}
80108a54:	e12fff1e 	bx	lr
80108a58:	3ff00000 	.word	0x3ff00000
80108a5c:	40240000 	.word	0x40240000
80108a60:	8010aab0 	.word	0x8010aab0

Disassembly of section .text.__copybits:

80108a64 <__copybits>:
80108a64:	e592c010 	ldr	ip, [r2, #16]
80108a68:	e2823014 	add	r3, r2, #20
80108a6c:	e2411001 	sub	r1, r1, #1
80108a70:	e1a012c1 	asr	r1, r1, #5
80108a74:	e083c10c 	add	ip, r3, ip, lsl #2
80108a78:	e2811001 	add	r1, r1, #1
80108a7c:	e153000c 	cmp	r3, ip
80108a80:	e0801101 	add	r1, r0, r1, lsl #2
80108a84:	2a000012 	bcs	80108ad4 <__copybits+0x70>
80108a88:	e92d4010 	push	{r4, lr}
80108a8c:	e240e004 	sub	lr, r0, #4
80108a90:	e4934004 	ldr	r4, [r3], #4
80108a94:	e15c0003 	cmp	ip, r3
80108a98:	e5ae4004 	str	r4, [lr, #4]!
80108a9c:	8afffffb 	bhi	80108a90 <__copybits+0x2c>
80108aa0:	e04c3002 	sub	r3, ip, r2
80108aa4:	e2433015 	sub	r3, r3, #21
80108aa8:	e3c33003 	bic	r3, r3, #3
80108aac:	e2833004 	add	r3, r3, #4
80108ab0:	e0800003 	add	r0, r0, r3
80108ab4:	e1510000 	cmp	r1, r0
80108ab8:	9a000003 	bls	80108acc <__copybits+0x68>
80108abc:	e3a03000 	mov	r3, #0
80108ac0:	e4803004 	str	r3, [r0], #4
80108ac4:	e1510000 	cmp	r1, r0
80108ac8:	8afffffc 	bhi	80108ac0 <__copybits+0x5c>
80108acc:	e8bd4010 	pop	{r4, lr}
80108ad0:	e12fff1e 	bx	lr
80108ad4:	e1510000 	cmp	r1, r0
80108ad8:	912fff1e 	bxls	lr
80108adc:	e3a03000 	mov	r3, #0
80108ae0:	e4803004 	str	r3, [r0], #4
80108ae4:	e1510000 	cmp	r1, r0
80108ae8:	8afffffc 	bhi	80108ae0 <__copybits+0x7c>
80108aec:	e12fff1e 	bx	lr

Disassembly of section .text.__any_on:

80108af0 <__any_on>:
80108af0:	e5903010 	ldr	r3, [r0, #16]
80108af4:	e1a0c2c1 	asr	ip, r1, #5
80108af8:	e153000c 	cmp	r3, ip
80108afc:	e2802014 	add	r2, r0, #20
80108b00:	b0823103 	addlt	r3, r2, r3, lsl #2
80108b04:	ba000001 	blt	80108b10 <__any_on+0x20>
80108b08:	e082310c 	add	r3, r2, ip, lsl #2
80108b0c:	ca00000c 	bgt	80108b44 <__any_on+0x54>
80108b10:	e1520003 	cmp	r2, r3
80108b14:	2a000011 	bcs	80108b60 <__any_on+0x70>
80108b18:	e5130004 	ldr	r0, [r3, #-4]
80108b1c:	e3500000 	cmp	r0, #0
80108b20:	e2433004 	sub	r3, r3, #4
80108b24:	1a000004 	bne	80108b3c <__any_on+0x4c>
80108b28:	e1520003 	cmp	r2, r3
80108b2c:	212fff1e 	bxcs	lr
80108b30:	e5331004 	ldr	r1, [r3, #-4]!
80108b34:	e3510000 	cmp	r1, #0
80108b38:	0afffffa 	beq	80108b28 <__any_on+0x38>
80108b3c:	e3a00001 	mov	r0, #1
80108b40:	e12fff1e 	bx	lr
80108b44:	e211101f 	ands	r1, r1, #31
80108b48:	0afffff0 	beq	80108b10 <__any_on+0x20>
80108b4c:	e792010c 	ldr	r0, [r2, ip, lsl #2]
80108b50:	e1a0c130 	lsr	ip, r0, r1
80108b54:	e150011c 	cmp	r0, ip, lsl r1
80108b58:	1afffff7 	bne	80108b3c <__any_on+0x4c>
80108b5c:	eaffffeb 	b	80108b10 <__any_on+0x20>
80108b60:	e3a00000 	mov	r0, #0
80108b64:	e12fff1e 	bx	lr

Disassembly of section .text.frexp:

80108b68 <frexp>:
80108b68:	e92d4070 	push	{r4, r5, r6, lr}
80108b6c:	e1a06002 	mov	r6, r2
80108b70:	e3a02000 	mov	r2, #0
80108b74:	e59fe07c 	ldr	lr, [pc, #124]	; 80108bf8 <frexp+0x90>
80108b78:	e3c13102 	bic	r3, r1, #-2147483648	; 0x80000000
80108b7c:	e153000e 	cmp	r3, lr
80108b80:	e1a04000 	mov	r4, r0
80108b84:	e1a05001 	mov	r5, r1
80108b88:	e5862000 	str	r2, [r6]
80108b8c:	ca000015 	bgt	80108be8 <frexp+0x80>
80108b90:	e1a0e000 	mov	lr, r0
80108b94:	e193e00e 	orrs	lr, r3, lr
80108b98:	0a000012 	beq	80108be8 <frexp+0x80>
80108b9c:	e3530601 	cmp	r3, #1048576	; 0x100000
80108ba0:	e1a0c001 	mov	ip, r1
80108ba4:	aa000006 	bge	80108bc4 <frexp+0x5c>
80108ba8:	e3a02000 	mov	r2, #0
80108bac:	e59f3048 	ldr	r3, [pc, #72]	; 80108bfc <frexp+0x94>
80108bb0:	ebffe5af 	bl	80102274 <__aeabi_dmul>
80108bb4:	e3e02035 	mvn	r2, #53	; 0x35
80108bb8:	e1a04000 	mov	r4, r0
80108bbc:	e1a0c001 	mov	ip, r1
80108bc0:	e3c13102 	bic	r3, r1, #-2147483648	; 0x80000000
80108bc4:	e1a03a43 	asr	r3, r3, #20
80108bc8:	e2433fff 	sub	r3, r3, #1020	; 0x3fc
80108bcc:	e3ccc47f 	bic	ip, ip, #2130706432	; 0x7f000000
80108bd0:	e2433002 	sub	r3, r3, #2
80108bd4:	e3ccc60f 	bic	ip, ip, #15728640	; 0xf00000
80108bd8:	e0833002 	add	r3, r3, r2
80108bdc:	e38c55ff 	orr	r5, ip, #1069547520	; 0x3fc00000
80108be0:	e5863000 	str	r3, [r6]
80108be4:	e3855602 	orr	r5, r5, #2097152	; 0x200000
80108be8:	e1a00004 	mov	r0, r4
80108bec:	e1a01005 	mov	r1, r5
80108bf0:	e8bd4070 	pop	{r4, r5, r6, lr}
80108bf4:	e12fff1e 	bx	lr
80108bf8:	7fefffff 	.word	0x7fefffff
80108bfc:	43500000 	.word	0x43500000

Disassembly of section .text.strlen:

80108c00 <strlen>:
80108c00:	e3c01003 	bic	r1, r0, #3
80108c04:	e2100003 	ands	r0, r0, #3
80108c08:	e2600000 	rsb	r0, r0, #0
80108c0c:	e4913004 	ldr	r3, [r1], #4
80108c10:	e280c004 	add	ip, r0, #4
80108c14:	e1a0c18c 	lsl	ip, ip, #3
80108c18:	e3e02000 	mvn	r2, #0
80108c1c:	11833c32 	orrne	r3, r3, r2, lsr ip
80108c20:	e3a0c001 	mov	ip, #1
80108c24:	e18cc40c 	orr	ip, ip, ip, lsl #8
80108c28:	e18cc80c 	orr	ip, ip, ip, lsl #16
80108c2c:	e043200c 	sub	r2, r3, ip
80108c30:	e1c22003 	bic	r2, r2, r3
80108c34:	e012238c 	ands	r2, r2, ip, lsl #7
80108c38:	04913004 	ldreq	r3, [r1], #4
80108c3c:	02800004 	addeq	r0, r0, #4
80108c40:	0afffff9 	beq	80108c2c <strlen+0x2c>
80108c44:	e31300ff 	tst	r3, #255	; 0xff
80108c48:	12800001 	addne	r0, r0, #1
80108c4c:	13130cff 	tstne	r3, #65280	; 0xff00
80108c50:	12800001 	addne	r0, r0, #1
80108c54:	131308ff 	tstne	r3, #16711680	; 0xff0000
80108c58:	12800001 	addne	r0, r0, #1
80108c5c:	e12fff1e 	bx	lr

Disassembly of section .text.strncpy:

80108c60 <strncpy>:
80108c60:	e1803001 	orr	r3, r0, r1
80108c64:	e3520003 	cmp	r2, #3
80108c68:	e2033003 	and	r3, r3, #3
80108c6c:	93a0c000 	movls	ip, #0
80108c70:	83a0c001 	movhi	ip, #1
80108c74:	e3530000 	cmp	r3, #0
80108c78:	13a0c000 	movne	ip, #0
80108c7c:	e35c0000 	cmp	ip, #0
80108c80:	e92d4070 	push	{r4, r5, r6, lr}
80108c84:	01a03000 	moveq	r3, r0
80108c88:	1a00001a 	bne	80108cf8 <strncpy+0x98>
80108c8c:	e3520000 	cmp	r2, #0
80108c90:	0a00000d 	beq	80108ccc <strncpy+0x6c>
80108c94:	e5d1c000 	ldrb	ip, [r1]
80108c98:	e35c0000 	cmp	ip, #0
80108c9c:	e5c3c000 	strb	ip, [r3]
80108ca0:	e2422001 	sub	r2, r2, #1
80108ca4:	e2833001 	add	r3, r3, #1
80108ca8:	1a000005 	bne	80108cc4 <strncpy+0x64>
80108cac:	ea000008 	b	80108cd4 <strncpy+0x74>
80108cb0:	e5f1c001 	ldrb	ip, [r1, #1]!
80108cb4:	e35c0000 	cmp	ip, #0
80108cb8:	e2422001 	sub	r2, r2, #1
80108cbc:	e4c3c001 	strb	ip, [r3], #1
80108cc0:	0a000003 	beq	80108cd4 <strncpy+0x74>
80108cc4:	e3520000 	cmp	r2, #0
80108cc8:	1afffff8 	bne	80108cb0 <strncpy+0x50>
80108ccc:	e8bd4070 	pop	{r4, r5, r6, lr}
80108cd0:	e12fff1e 	bx	lr
80108cd4:	e3520000 	cmp	r2, #0
80108cd8:	13a01000 	movne	r1, #0
80108cdc:	10832002 	addne	r2, r3, r2
80108ce0:	0afffff9 	beq	80108ccc <strncpy+0x6c>
80108ce4:	e4c31001 	strb	r1, [r3], #1
80108ce8:	e1530002 	cmp	r3, r2
80108cec:	1afffffc 	bne	80108ce4 <strncpy+0x84>
80108cf0:	e8bd4070 	pop	{r4, r5, r6, lr}
80108cf4:	e12fff1e 	bx	lr
80108cf8:	e1a0c001 	mov	ip, r1
80108cfc:	e1a03000 	mov	r3, r0
80108d00:	e59f6030 	ldr	r6, [pc, #48]	; 80108d38 <strncpy+0xd8>
80108d04:	e59f5030 	ldr	r5, [pc, #48]	; 80108d3c <strncpy+0xdc>
80108d08:	e1a0100c 	mov	r1, ip
80108d0c:	e49c4004 	ldr	r4, [ip], #4
80108d10:	e084e006 	add	lr, r4, r6
80108d14:	e1cee004 	bic	lr, lr, r4
80108d18:	e11e0005 	tst	lr, r5
80108d1c:	1affffdc 	bne	80108c94 <strncpy+0x34>
80108d20:	e2422004 	sub	r2, r2, #4
80108d24:	e3520003 	cmp	r2, #3
80108d28:	e4834004 	str	r4, [r3], #4
80108d2c:	e1a0100c 	mov	r1, ip
80108d30:	8afffff4 	bhi	80108d08 <strncpy+0xa8>
80108d34:	eaffffd4 	b	80108c8c <strncpy+0x2c>
80108d38:	fefefeff 	.word	0xfefefeff
80108d3c:	80808080 	.word	0x80808080

Disassembly of section .text.__ssprint_r:

80108d40 <__ssprint_r>:
80108d40:	e92d4ff0 	push	{r4, r5, r6, r7, r8, r9, sl, fp, lr}
80108d44:	e5923008 	ldr	r3, [r2, #8]
80108d48:	e3530000 	cmp	r3, #0
80108d4c:	e24dd00c 	sub	sp, sp, #12
80108d50:	e1a08002 	mov	r8, r2
80108d54:	0a000058 	beq	80108ebc <__ssprint_r+0x17c>
80108d58:	e5927000 	ldr	r7, [r2]
80108d5c:	e1a0a000 	mov	sl, r0
80108d60:	e1a04001 	mov	r4, r1
80108d64:	e5910000 	ldr	r0, [r1]
80108d68:	e2877008 	add	r7, r7, #8
80108d6c:	e5915008 	ldr	r5, [r1, #8]
80108d70:	ea000034 	b	80108e48 <__ssprint_r+0x108>
80108d74:	e1d430bc 	ldrh	r3, [r4, #12]
80108d78:	e3130d12 	tst	r3, #1152	; 0x480
80108d7c:	0a000022 	beq	80108e0c <__ssprint_r+0xcc>
80108d80:	e2841010 	add	r1, r4, #16
80108d84:	e8910006 	ldm	r1, {r1, r2}
80108d88:	e0822082 	add	r2, r2, r2, lsl #1
80108d8c:	e0822fa2 	add	r2, r2, r2, lsr #31
80108d90:	e040b001 	sub	fp, r0, r1
80108d94:	e2865001 	add	r5, r6, #1
80108d98:	e1a020c2 	asr	r2, r2, #1
80108d9c:	e085500b 	add	r5, r5, fp
80108da0:	e1550002 	cmp	r5, r2
80108da4:	91a05002 	movls	r5, r2
80108da8:	81a02005 	movhi	r2, r5
80108dac:	e3130b01 	tst	r3, #1024	; 0x400
80108db0:	0a00002e 	beq	80108e70 <__ssprint_r+0x130>
80108db4:	e1a01002 	mov	r1, r2
80108db8:	e1a0000a 	mov	r0, sl
80108dbc:	ebfff97d 	bl	801073b8 <_malloc_r>
80108dc0:	e2503000 	subs	r3, r0, #0
80108dc4:	0a000030 	beq	80108e8c <__ssprint_r+0x14c>
80108dc8:	e1a0200b 	mov	r2, fp
80108dcc:	e5941010 	ldr	r1, [r4, #16]
80108dd0:	e58d3004 	str	r3, [sp, #4]
80108dd4:	ebfffba6 	bl	80107c74 <memcpy>
80108dd8:	e1d420bc 	ldrh	r2, [r4, #12]
80108ddc:	e3c22d12 	bic	r2, r2, #1152	; 0x480
80108de0:	e3822080 	orr	r2, r2, #128	; 0x80
80108de4:	e1c420bc 	strh	r2, [r4, #12]
80108de8:	e59d3004 	ldr	r3, [sp, #4]
80108dec:	e083000b 	add	r0, r3, fp
80108df0:	e045b00b 	sub	fp, r5, fp
80108df4:	e584b008 	str	fp, [r4, #8]
80108df8:	e5845014 	str	r5, [r4, #20]
80108dfc:	e1a0b006 	mov	fp, r6
80108e00:	e1a05006 	mov	r5, r6
80108e04:	e5843010 	str	r3, [r4, #16]
80108e08:	e5840000 	str	r0, [r4]
80108e0c:	e1a0200b 	mov	r2, fp
80108e10:	e1a01009 	mov	r1, r9
80108e14:	eb0004ea 	bl	8010a1c4 <memmove>
80108e18:	e5983008 	ldr	r3, [r8, #8]
80108e1c:	e5942008 	ldr	r2, [r4, #8]
80108e20:	e5940000 	ldr	r0, [r4]
80108e24:	e0436006 	sub	r6, r3, r6
80108e28:	e0425005 	sub	r5, r2, r5
80108e2c:	e080000b 	add	r0, r0, fp
80108e30:	e3560000 	cmp	r6, #0
80108e34:	e5845008 	str	r5, [r4, #8]
80108e38:	e5840000 	str	r0, [r4]
80108e3c:	e5886008 	str	r6, [r8, #8]
80108e40:	0a00001d 	beq	80108ebc <__ssprint_r+0x17c>
80108e44:	e2877008 	add	r7, r7, #8
80108e48:	e5176004 	ldr	r6, [r7, #-4]
80108e4c:	e3560000 	cmp	r6, #0
80108e50:	e5179008 	ldr	r9, [r7, #-8]
80108e54:	e1a0b005 	mov	fp, r5
80108e58:	0afffff9 	beq	80108e44 <__ssprint_r+0x104>
80108e5c:	e1560005 	cmp	r6, r5
80108e60:	2affffc3 	bcs	80108d74 <__ssprint_r+0x34>
80108e64:	e1a05006 	mov	r5, r6
80108e68:	e1a0b006 	mov	fp, r6
80108e6c:	eaffffe6 	b	80108e0c <__ssprint_r+0xcc>
80108e70:	e1a0000a 	mov	r0, sl
80108e74:	eb000522 	bl	8010a304 <_realloc_r>
80108e78:	e2503000 	subs	r3, r0, #0
80108e7c:	1affffda 	bne	80108dec <__ssprint_r+0xac>
80108e80:	e5941010 	ldr	r1, [r4, #16]
80108e84:	e1a0000a 	mov	r0, sl
80108e88:	ebfff87d 	bl	80107084 <_free_r>
80108e8c:	e3a0300c 	mov	r3, #12
80108e90:	e3a02000 	mov	r2, #0
80108e94:	e3e00000 	mvn	r0, #0
80108e98:	e58a3000 	str	r3, [sl]
80108e9c:	e1d430bc 	ldrh	r3, [r4, #12]
80108ea0:	e3833040 	orr	r3, r3, #64	; 0x40
80108ea4:	e1c430bc 	strh	r3, [r4, #12]
80108ea8:	e5882008 	str	r2, [r8, #8]
80108eac:	e5882004 	str	r2, [r8, #4]
80108eb0:	e28dd00c 	add	sp, sp, #12
80108eb4:	e8bd4ff0 	pop	{r4, r5, r6, r7, r8, r9, sl, fp, lr}
80108eb8:	e12fff1e 	bx	lr
80108ebc:	e3a00000 	mov	r0, #0
80108ec0:	e5880004 	str	r0, [r8, #4]
80108ec4:	e28dd00c 	add	sp, sp, #12
80108ec8:	e8bd4ff0 	pop	{r4, r5, r6, r7, r8, r9, sl, fp, lr}
80108ecc:	e12fff1e 	bx	lr

Disassembly of section .text._svfiprintf_r:

80108ed0 <_svfiprintf_r>:
80108ed0:	e92d4ff0 	push	{r4, r5, r6, r7, r8, r9, sl, fp, lr}
80108ed4:	e24dd0f4 	sub	sp, sp, #244	; 0xf4
80108ed8:	e1a0c001 	mov	ip, r1
80108edc:	e58d1004 	str	r1, [sp, #4]
80108ee0:	e1d110bc 	ldrh	r1, [r1, #12]
80108ee4:	e3110080 	tst	r1, #128	; 0x80
80108ee8:	e1a0b002 	mov	fp, r2
80108eec:	e58d3010 	str	r3, [sp, #16]
80108ef0:	e58d000c 	str	r0, [sp, #12]
80108ef4:	0a000002 	beq	80108f04 <_svfiprintf_r+0x34>
80108ef8:	e59c3010 	ldr	r3, [ip, #16]
80108efc:	e3530000 	cmp	r3, #0
80108f00:	0a00038e 	beq	80109d40 <_svfiprintf_r+0xe70>
80108f04:	e3a03000 	mov	r3, #0
80108f08:	e28d904c 	add	r9, sp, #76	; 0x4c
80108f0c:	e58d3024 	str	r3, [sp, #36]	; 0x24
80108f10:	e58d3028 	str	r3, [sp, #40]	; 0x28
80108f14:	e58d3030 	str	r3, [sp, #48]	; 0x30
80108f18:	e58d302c 	str	r3, [sp, #44]	; 0x2c
80108f1c:	e58d3008 	str	r3, [sp, #8]
80108f20:	e58d3048 	str	r3, [sp, #72]	; 0x48
80108f24:	e58d3044 	str	r3, [sp, #68]	; 0x44
80108f28:	e58d9040 	str	r9, [sp, #64]	; 0x40
80108f2c:	e5db3000 	ldrb	r3, [fp]
80108f30:	e3530000 	cmp	r3, #0
80108f34:	13530025 	cmpne	r3, #37	; 0x25
80108f38:	e1a0500b 	mov	r5, fp
80108f3c:	0a000013 	beq	80108f90 <_svfiprintf_r+0xc0>
80108f40:	e5f53001 	ldrb	r3, [r5, #1]!
80108f44:	e3530000 	cmp	r3, #0
80108f48:	13530025 	cmpne	r3, #37	; 0x25
80108f4c:	1afffffb 	bne	80108f40 <_svfiprintf_r+0x70>
80108f50:	e055400b 	subs	r4, r5, fp
80108f54:	0a00000d 	beq	80108f90 <_svfiprintf_r+0xc0>
80108f58:	e59d3044 	ldr	r3, [sp, #68]	; 0x44
80108f5c:	e59d2048 	ldr	r2, [sp, #72]	; 0x48
80108f60:	e2833001 	add	r3, r3, #1
80108f64:	e3530007 	cmp	r3, #7
80108f68:	e0822004 	add	r2, r2, r4
80108f6c:	e589b000 	str	fp, [r9]
80108f70:	e5894004 	str	r4, [r9, #4]
80108f74:	e58d3044 	str	r3, [sp, #68]	; 0x44
80108f78:	e58d2048 	str	r2, [sp, #72]	; 0x48
80108f7c:	d2899008 	addle	r9, r9, #8
80108f80:	ca000088 	bgt	801091a8 <_svfiprintf_r+0x2d8>
80108f84:	e59d3008 	ldr	r3, [sp, #8]
80108f88:	e0833004 	add	r3, r3, r4
80108f8c:	e58d3008 	str	r3, [sp, #8]
80108f90:	e5d53000 	ldrb	r3, [r5]
80108f94:	e3530000 	cmp	r3, #0
80108f98:	0a00008a 	beq	801091c8 <_svfiprintf_r+0x2f8>
80108f9c:	e3e04000 	mvn	r4, #0
80108fa0:	e3a0a000 	mov	sl, #0
80108fa4:	e3a03000 	mov	r3, #0
80108fa8:	e1a06004 	mov	r6, r4
80108fac:	e1a0800a 	mov	r8, sl
80108fb0:	e5cd303b 	strb	r3, [sp, #59]	; 0x3b
80108fb4:	e5d53001 	ldrb	r3, [r5, #1]
80108fb8:	e285b001 	add	fp, r5, #1
80108fbc:	e28bb001 	add	fp, fp, #1
80108fc0:	e2432020 	sub	r2, r3, #32
80108fc4:	e352005a 	cmp	r2, #90	; 0x5a
80108fc8:	979ff102 	ldrls	pc, [pc, r2, lsl #2]
80108fcc:	ea000288 	b	801099f4 <_svfiprintf_r+0xb24>
80108fd0:	801097d8 	.word	0x801097d8
80108fd4:	801099f4 	.word	0x801099f4
80108fd8:	801099f4 	.word	0x801099f4
80108fdc:	801097cc 	.word	0x801097cc
80108fe0:	801099f4 	.word	0x801099f4
80108fe4:	801099f4 	.word	0x801099f4
80108fe8:	801099f4 	.word	0x801099f4
80108fec:	80109778 	.word	0x80109778
80108ff0:	801099f4 	.word	0x801099f4
80108ff4:	801099f4 	.word	0x801099f4
80108ff8:	80109754 	.word	0x80109754
80108ffc:	80109744 	.word	0x80109744
80109000:	801099f4 	.word	0x801099f4
80109004:	80109738 	.word	0x80109738
80109008:	801096f8 	.word	0x801096f8
8010900c:	801099f4 	.word	0x801099f4
80109010:	801096ec 	.word	0x801096ec
80109014:	801096c8 	.word	0x801096c8
80109018:	801096c8 	.word	0x801096c8
8010901c:	801096c8 	.word	0x801096c8
80109020:	801096c8 	.word	0x801096c8
80109024:	801096c8 	.word	0x801096c8
80109028:	801096c8 	.word	0x801096c8
8010902c:	801096c8 	.word	0x801096c8
80109030:	801096c8 	.word	0x801096c8
80109034:	801096c8 	.word	0x801096c8
80109038:	801099f4 	.word	0x801099f4
8010903c:	801099f4 	.word	0x801099f4
80109040:	801099f4 	.word	0x801099f4
80109044:	801099f4 	.word	0x801099f4
80109048:	801099f4 	.word	0x801099f4
8010904c:	801099f4 	.word	0x801099f4
80109050:	801099f4 	.word	0x801099f4
80109054:	801099f4 	.word	0x801099f4
80109058:	801099f4 	.word	0x801099f4
8010905c:	801098dc 	.word	0x801098dc
80109060:	8010989c 	.word	0x8010989c
80109064:	801099f4 	.word	0x801099f4
80109068:	801099f4 	.word	0x801099f4
8010906c:	801099f4 	.word	0x801099f4
80109070:	801099f4 	.word	0x801099f4
80109074:	801099f4 	.word	0x801099f4
80109078:	801099f4 	.word	0x801099f4
8010907c:	801099f4 	.word	0x801099f4
80109080:	801099f4 	.word	0x801099f4
80109084:	801099f4 	.word	0x801099f4
80109088:	801099f4 	.word	0x801099f4
8010908c:	80109148 	.word	0x80109148
80109090:	801099f4 	.word	0x801099f4
80109094:	801099f4 	.word	0x801099f4
80109098:	801099f4 	.word	0x801099f4
8010909c:	80109848 	.word	0x80109848
801090a0:	801099f4 	.word	0x801099f4
801090a4:	80109178 	.word	0x80109178
801090a8:	801099f4 	.word	0x801099f4
801090ac:	801099f4 	.word	0x801099f4
801090b0:	8010980c 	.word	0x8010980c
801090b4:	801099f4 	.word	0x801099f4
801090b8:	801099f4 	.word	0x801099f4
801090bc:	801099f4 	.word	0x801099f4
801090c0:	801099f4 	.word	0x801099f4
801090c4:	801099f4 	.word	0x801099f4
801090c8:	801099f4 	.word	0x801099f4
801090cc:	801099f4 	.word	0x801099f4
801090d0:	801099f4 	.word	0x801099f4
801090d4:	801099f4 	.word	0x801099f4
801090d8:	801099f4 	.word	0x801099f4
801090dc:	801098dc 	.word	0x801098dc
801090e0:	80109644 	.word	0x80109644
801090e4:	801099f4 	.word	0x801099f4
801090e8:	801099f4 	.word	0x801099f4
801090ec:	801099f4 	.word	0x801099f4
801090f0:	801097f0 	.word	0x801097f0
801090f4:	80109644 	.word	0x80109644
801090f8:	8010913c 	.word	0x8010913c
801090fc:	801099f4 	.word	0x801099f4
80109100:	80109948 	.word	0x80109948
80109104:	801099f4 	.word	0x801099f4
80109108:	80109910 	.word	0x80109910
8010910c:	8010914c 	.word	0x8010914c
80109110:	80109964 	.word	0x80109964
80109114:	8010913c 	.word	0x8010913c
80109118:	801099f4 	.word	0x801099f4
8010911c:	80109848 	.word	0x80109848
80109120:	80109140 	.word	0x80109140
80109124:	8010917c 	.word	0x8010917c
80109128:	801099f4 	.word	0x801099f4
8010912c:	801099f4 	.word	0x801099f4
80109130:	80109208 	.word	0x80109208
80109134:	801099f4 	.word	0x801099f4
80109138:	80109140 	.word	0x80109140
8010913c:	e3888020 	orr	r8, r8, #32
80109140:	e5db3000 	ldrb	r3, [fp]
80109144:	eaffff9c 	b	80108fbc <_svfiprintf_r+0xec>
80109148:	e3888010 	orr	r8, r8, #16
8010914c:	e3180020 	tst	r8, #32
80109150:	0a00021c 	beq	801099c8 <_svfiprintf_r+0xaf8>
80109154:	e59d3010 	ldr	r3, [sp, #16]
80109158:	e2835007 	add	r5, r3, #7
8010915c:	e3c53007 	bic	r3, r5, #7
80109160:	e2832008 	add	r2, r3, #8
80109164:	e58d2010 	str	r2, [sp, #16]
80109168:	e89300c0 	ldm	r3, {r6, r7}
8010916c:	e3c85b01 	bic	r5, r8, #1024	; 0x400
80109170:	e3a02000 	mov	r2, #0
80109174:	ea000037 	b	80109258 <_svfiprintf_r+0x388>
80109178:	e3888010 	orr	r8, r8, #16
8010917c:	e3180020 	tst	r8, #32
80109180:	0a000203 	beq	80109994 <_svfiprintf_r+0xac4>
80109184:	e59d3010 	ldr	r3, [sp, #16]
80109188:	e2835007 	add	r5, r3, #7
8010918c:	e3c53007 	bic	r3, r5, #7
80109190:	e2832008 	add	r2, r3, #8
80109194:	e58d2010 	str	r2, [sp, #16]
80109198:	e1a05008 	mov	r5, r8
8010919c:	e89300c0 	ldm	r3, {r6, r7}
801091a0:	e3a02001 	mov	r2, #1
801091a4:	ea00002b 	b	80109258 <_svfiprintf_r+0x388>
801091a8:	e28d2040 	add	r2, sp, #64	; 0x40
801091ac:	e59d1004 	ldr	r1, [sp, #4]
801091b0:	e59d000c 	ldr	r0, [sp, #12]
801091b4:	ebfffee1 	bl	80108d40 <__ssprint_r>
801091b8:	e3500000 	cmp	r0, #0
801091bc:	1a000007 	bne	801091e0 <_svfiprintf_r+0x310>
801091c0:	e28d904c 	add	r9, sp, #76	; 0x4c
801091c4:	eaffff6e 	b	80108f84 <_svfiprintf_r+0xb4>
801091c8:	e59d3048 	ldr	r3, [sp, #72]	; 0x48
801091cc:	e3530000 	cmp	r3, #0
801091d0:	159d000c 	ldrne	r0, [sp, #12]
801091d4:	128d2040 	addne	r2, sp, #64	; 0x40
801091d8:	159d1004 	ldrne	r1, [sp, #4]
801091dc:	1bfffed7 	blne	80108d40 <__ssprint_r>
801091e0:	e59d3004 	ldr	r3, [sp, #4]
801091e4:	e1d330bc 	ldrh	r3, [r3, #12]
801091e8:	e3130040 	tst	r3, #64	; 0x40
801091ec:	e59d3008 	ldr	r3, [sp, #8]
801091f0:	13e03000 	mvnne	r3, #0
801091f4:	e58d3008 	str	r3, [sp, #8]
801091f8:	e59d0008 	ldr	r0, [sp, #8]
801091fc:	e28dd0f4 	add	sp, sp, #244	; 0xf4
80109200:	e8bd4ff0 	pop	{r4, r5, r6, r7, r8, r9, sl, fp, lr}
80109204:	e12fff1e 	bx	lr
80109208:	e59f2db4 	ldr	r2, [pc, #3508]	; 80109fc4 <_svfiprintf_r+0x10f4>
8010920c:	e3180020 	tst	r8, #32
80109210:	e58d2024 	str	r2, [sp, #36]	; 0x24
80109214:	0a000180 	beq	8010981c <_svfiprintf_r+0x94c>
80109218:	e59d2010 	ldr	r2, [sp, #16]
8010921c:	e2825007 	add	r5, r2, #7
80109220:	e3c52007 	bic	r2, r5, #7
80109224:	e2821008 	add	r1, r2, #8
80109228:	e58d1010 	str	r1, [sp, #16]
8010922c:	e89200c0 	ldm	r2, {r6, r7}
80109230:	e1962007 	orrs	r2, r6, r7
80109234:	12082001 	andne	r2, r8, #1
80109238:	03a02000 	moveq	r2, #0
8010923c:	e3520000 	cmp	r2, #0
80109240:	13a02030 	movne	r2, #48	; 0x30
80109244:	15cd203c 	strbne	r2, [sp, #60]	; 0x3c
80109248:	e3a02002 	mov	r2, #2
8010924c:	13888002 	orrne	r8, r8, #2
80109250:	15cd303d 	strbne	r3, [sp, #61]	; 0x3d
80109254:	e3c85b01 	bic	r5, r8, #1024	; 0x400
80109258:	e3a03000 	mov	r3, #0
8010925c:	e3740001 	cmn	r4, #1
80109260:	e5cd303b 	strb	r3, [sp, #59]	; 0x3b
80109264:	e28d30f0 	add	r3, sp, #240	; 0xf0
80109268:	e58d3014 	str	r3, [sp, #20]
8010926c:	0a000223 	beq	80109b00 <_svfiprintf_r+0xc30>
80109270:	e1963007 	orrs	r3, r6, r7
80109274:	13a03001 	movne	r3, #1
80109278:	03a03000 	moveq	r3, #0
8010927c:	e3540000 	cmp	r4, #0
80109280:	13a03001 	movne	r3, #1
80109284:	e3530000 	cmp	r3, #0
80109288:	e3c58080 	bic	r8, r5, #128	; 0x80
8010928c:	1a00021a 	bne	80109afc <_svfiprintf_r+0xc2c>
80109290:	e3520000 	cmp	r2, #0
80109294:	1a000253 	bne	80109be8 <_svfiprintf_r+0xd18>
80109298:	e2157001 	ands	r7, r5, #1
8010929c:	0a00027a 	beq	80109c8c <_svfiprintf_r+0xdbc>
801092a0:	e3a03030 	mov	r3, #48	; 0x30
801092a4:	e1a04002 	mov	r4, r2
801092a8:	e28d10f0 	add	r1, sp, #240	; 0xf0
801092ac:	e5613001 	strb	r3, [r1, #-1]!
801092b0:	e58d101c 	str	r1, [sp, #28]
801092b4:	e1540007 	cmp	r4, r7
801092b8:	a1a06004 	movge	r6, r4
801092bc:	b1a06007 	movlt	r6, r7
801092c0:	e5dd303b 	ldrb	r3, [sp, #59]	; 0x3b
801092c4:	e3530000 	cmp	r3, #0
801092c8:	12866001 	addne	r6, r6, #1
801092cc:	e2183002 	ands	r3, r8, #2
801092d0:	e58d3014 	str	r3, [sp, #20]
801092d4:	12866002 	addne	r6, r6, #2
801092d8:	e28d1044 	add	r1, sp, #68	; 0x44
801092dc:	e2183084 	ands	r3, r8, #132	; 0x84
801092e0:	e58d3018 	str	r3, [sp, #24]
801092e4:	e8910006 	ldm	r1, {r1, r2}
801092e8:	1a00003c 	bne	801093e0 <_svfiprintf_r+0x510>
801092ec:	e04a5006 	sub	r5, sl, r6
801092f0:	e3550000 	cmp	r5, #0
801092f4:	da000039 	ble	801093e0 <_svfiprintf_r+0x510>
801092f8:	e3550010 	cmp	r5, #16
801092fc:	da000025 	ble	80109398 <_svfiprintf_r+0x4c8>
80109300:	e1a00009 	mov	r0, r9
80109304:	e3a03010 	mov	r3, #16
80109308:	e1a09007 	mov	r9, r7
8010930c:	e1a07006 	mov	r7, r6
80109310:	e1a06004 	mov	r6, r4
80109314:	e59d400c 	ldr	r4, [sp, #12]
80109318:	ea000002 	b	80109328 <_svfiprintf_r+0x458>
8010931c:	e2455010 	sub	r5, r5, #16
80109320:	e3550010 	cmp	r5, #16
80109324:	da000017 	ble	80109388 <_svfiprintf_r+0x4b8>
80109328:	e2811001 	add	r1, r1, #1
8010932c:	e59fcc94 	ldr	ip, [pc, #3220]	; 80109fc8 <_svfiprintf_r+0x10f8>
80109330:	e3510007 	cmp	r1, #7
80109334:	e2822010 	add	r2, r2, #16
80109338:	e580c000 	str	ip, [r0]
8010933c:	e5803004 	str	r3, [r0, #4]
80109340:	e58d1044 	str	r1, [sp, #68]	; 0x44
80109344:	e58d2048 	str	r2, [sp, #72]	; 0x48
80109348:	d2800008 	addle	r0, r0, #8
8010934c:	dafffff2 	ble	8010931c <_svfiprintf_r+0x44c>
80109350:	e28d2040 	add	r2, sp, #64	; 0x40
80109354:	e59d1004 	ldr	r1, [sp, #4]
80109358:	e1a00004 	mov	r0, r4
8010935c:	e58d3020 	str	r3, [sp, #32]
80109360:	ebfffe76 	bl	80108d40 <__ssprint_r>
80109364:	e3500000 	cmp	r0, #0
80109368:	1affff9c 	bne	801091e0 <_svfiprintf_r+0x310>
8010936c:	e2455010 	sub	r5, r5, #16
80109370:	e28d1044 	add	r1, sp, #68	; 0x44
80109374:	e3550010 	cmp	r5, #16
80109378:	e28d004c 	add	r0, sp, #76	; 0x4c
8010937c:	e8910006 	ldm	r1, {r1, r2}
80109380:	e59d3020 	ldr	r3, [sp, #32]
80109384:	caffffe7 	bgt	80109328 <_svfiprintf_r+0x458>
80109388:	e1a04006 	mov	r4, r6
8010938c:	e1a06007 	mov	r6, r7
80109390:	e1a07009 	mov	r7, r9
80109394:	e1a09000 	mov	r9, r0
80109398:	e2811001 	add	r1, r1, #1
8010939c:	e59f3c24 	ldr	r3, [pc, #3108]	; 80109fc8 <_svfiprintf_r+0x10f8>
801093a0:	e3510007 	cmp	r1, #7
801093a4:	e0822005 	add	r2, r2, r5
801093a8:	e8890028 	stm	r9, {r3, r5}
801093ac:	e58d1044 	str	r1, [sp, #68]	; 0x44
801093b0:	e58d2048 	str	r2, [sp, #72]	; 0x48
801093b4:	d2899008 	addle	r9, r9, #8
801093b8:	da000008 	ble	801093e0 <_svfiprintf_r+0x510>
801093bc:	e28d2040 	add	r2, sp, #64	; 0x40
801093c0:	e59d1004 	ldr	r1, [sp, #4]
801093c4:	e59d000c 	ldr	r0, [sp, #12]
801093c8:	ebfffe5c 	bl	80108d40 <__ssprint_r>
801093cc:	e3500000 	cmp	r0, #0
801093d0:	1affff82 	bne	801091e0 <_svfiprintf_r+0x310>
801093d4:	e28d1044 	add	r1, sp, #68	; 0x44
801093d8:	e8910006 	ldm	r1, {r1, r2}
801093dc:	e28d904c 	add	r9, sp, #76	; 0x4c
801093e0:	e5dd003b 	ldrb	r0, [sp, #59]	; 0x3b
801093e4:	e3500000 	cmp	r0, #0
801093e8:	e281c001 	add	ip, r1, #1
801093ec:	e2890008 	add	r0, r9, #8
801093f0:	0a00000e 	beq	80109430 <_svfiprintf_r+0x560>
801093f4:	e3a05001 	mov	r5, #1
801093f8:	e28de03b 	add	lr, sp, #59	; 0x3b
801093fc:	e0822005 	add	r2, r2, r5
80109400:	e35c0007 	cmp	ip, #7
80109404:	e58d2048 	str	r2, [sp, #72]	; 0x48
80109408:	e58dc044 	str	ip, [sp, #68]	; 0x44
8010940c:	e5895004 	str	r5, [r9, #4]
80109410:	e589e000 	str	lr, [r9]
80109414:	ca0001f8 	bgt	80109bfc <_svfiprintf_r+0xd2c>
80109418:	e2815002 	add	r5, r1, #2
8010941c:	e289e010 	add	lr, r9, #16
80109420:	e1a0100c 	mov	r1, ip
80109424:	e1a09000 	mov	r9, r0
80109428:	e1a0c005 	mov	ip, r5
8010942c:	e1a0000e 	mov	r0, lr
80109430:	e59d3014 	ldr	r3, [sp, #20]
80109434:	e3530000 	cmp	r3, #0
80109438:	0a00000c 	beq	80109470 <_svfiprintf_r+0x5a0>
8010943c:	e3a01002 	mov	r1, #2
80109440:	e28d303c 	add	r3, sp, #60	; 0x3c
80109444:	e0822001 	add	r2, r2, r1
80109448:	e35c0007 	cmp	ip, #7
8010944c:	e58d2048 	str	r2, [sp, #72]	; 0x48
80109450:	e58dc044 	str	ip, [sp, #68]	; 0x44
80109454:	e5891004 	str	r1, [r9, #4]
80109458:	e5893000 	str	r3, [r9]
8010945c:	ca0001f2 	bgt	80109c2c <_svfiprintf_r+0xd5c>
80109460:	e1a0100c 	mov	r1, ip
80109464:	e1a09000 	mov	r9, r0
80109468:	e28cc001 	add	ip, ip, #1
8010946c:	e2800008 	add	r0, r0, #8
80109470:	e59d3018 	ldr	r3, [sp, #24]
80109474:	e3530080 	cmp	r3, #128	; 0x80
80109478:	0a000167 	beq	80109a1c <_svfiprintf_r+0xb4c>
8010947c:	e0444007 	sub	r4, r4, r7
80109480:	e3540000 	cmp	r4, #0
80109484:	da000030 	ble	8010954c <_svfiprintf_r+0x67c>
80109488:	e3540010 	cmp	r4, #16
8010948c:	da000248 	ble	80109db4 <_svfiprintf_r+0xee4>
80109490:	e1a00009 	mov	r0, r9
80109494:	e3a05010 	mov	r5, #16
80109498:	e1a09007 	mov	r9, r7
8010949c:	e1a07006 	mov	r7, r6
801094a0:	e1a06004 	mov	r6, r4
801094a4:	e59d400c 	ldr	r4, [sp, #12]
801094a8:	ea000002 	b	801094b8 <_svfiprintf_r+0x5e8>
801094ac:	e2466010 	sub	r6, r6, #16
801094b0:	e3560010 	cmp	r6, #16
801094b4:	da000014 	ble	8010950c <_svfiprintf_r+0x63c>
801094b8:	e2811001 	add	r1, r1, #1
801094bc:	e59f3b08 	ldr	r3, [pc, #2824]	; 80109fcc <_svfiprintf_r+0x10fc>
801094c0:	e3510007 	cmp	r1, #7
801094c4:	e2822010 	add	r2, r2, #16
801094c8:	e8800028 	stm	r0, {r3, r5}
801094cc:	e58d1044 	str	r1, [sp, #68]	; 0x44
801094d0:	e58d2048 	str	r2, [sp, #72]	; 0x48
801094d4:	d2800008 	addle	r0, r0, #8
801094d8:	dafffff3 	ble	801094ac <_svfiprintf_r+0x5dc>
801094dc:	e28d2040 	add	r2, sp, #64	; 0x40
801094e0:	e59d1004 	ldr	r1, [sp, #4]
801094e4:	e1a00004 	mov	r0, r4
801094e8:	ebfffe14 	bl	80108d40 <__ssprint_r>
801094ec:	e3500000 	cmp	r0, #0
801094f0:	1affff3a 	bne	801091e0 <_svfiprintf_r+0x310>
801094f4:	e2466010 	sub	r6, r6, #16
801094f8:	e28d1044 	add	r1, sp, #68	; 0x44
801094fc:	e3560010 	cmp	r6, #16
80109500:	e28d004c 	add	r0, sp, #76	; 0x4c
80109504:	e8910006 	ldm	r1, {r1, r2}
80109508:	caffffea 	bgt	801094b8 <_svfiprintf_r+0x5e8>
8010950c:	e1a04006 	mov	r4, r6
80109510:	e1a06007 	mov	r6, r7
80109514:	e1a07009 	mov	r7, r9
80109518:	e1a09000 	mov	r9, r0
8010951c:	e281c001 	add	ip, r1, #1
80109520:	e2803008 	add	r3, r0, #8
80109524:	e59f1aa0 	ldr	r1, [pc, #2720]	; 80109fcc <_svfiprintf_r+0x10fc>
80109528:	e0822004 	add	r2, r2, r4
8010952c:	e35c0007 	cmp	ip, #7
80109530:	e58d2048 	str	r2, [sp, #72]	; 0x48
80109534:	e8890012 	stm	r9, {r1, r4}
80109538:	e58dc044 	str	ip, [sp, #68]	; 0x44
8010953c:	ca0001c6 	bgt	80109c5c <_svfiprintf_r+0xd8c>
80109540:	e1a09003 	mov	r9, r3
80109544:	e28cc001 	add	ip, ip, #1
80109548:	e2830008 	add	r0, r3, #8
8010954c:	e59d301c 	ldr	r3, [sp, #28]
80109550:	e0872002 	add	r2, r7, r2
80109554:	e35c0007 	cmp	ip, #7
80109558:	e58d2048 	str	r2, [sp, #72]	; 0x48
8010955c:	e8890088 	stm	r9, {r3, r7}
80109560:	e58dc044 	str	ip, [sp, #68]	; 0x44
80109564:	ca00018f 	bgt	80109ba8 <_svfiprintf_r+0xcd8>
80109568:	e3180004 	tst	r8, #4
8010956c:	0a000029 	beq	80109618 <_svfiprintf_r+0x748>
80109570:	e04a4006 	sub	r4, sl, r6
80109574:	e3540000 	cmp	r4, #0
80109578:	da000026 	ble	80109618 <_svfiprintf_r+0x748>
8010957c:	e3540010 	cmp	r4, #16
80109580:	e59d3044 	ldr	r3, [sp, #68]	; 0x44
80109584:	da00001b 	ble	801095f8 <_svfiprintf_r+0x728>
80109588:	e3a05010 	mov	r5, #16
8010958c:	e59d700c 	ldr	r7, [sp, #12]
80109590:	e59d8004 	ldr	r8, [sp, #4]
80109594:	ea000002 	b	801095a4 <_svfiprintf_r+0x6d4>
80109598:	e2444010 	sub	r4, r4, #16
8010959c:	e3540010 	cmp	r4, #16
801095a0:	da000014 	ble	801095f8 <_svfiprintf_r+0x728>
801095a4:	e2833001 	add	r3, r3, #1
801095a8:	e59f1a18 	ldr	r1, [pc, #2584]	; 80109fc8 <_svfiprintf_r+0x10f8>
801095ac:	e3530007 	cmp	r3, #7
801095b0:	e2822010 	add	r2, r2, #16
801095b4:	e8800022 	stm	r0, {r1, r5}
801095b8:	e58d3044 	str	r3, [sp, #68]	; 0x44
801095bc:	e58d2048 	str	r2, [sp, #72]	; 0x48
801095c0:	d2800008 	addle	r0, r0, #8
801095c4:	dafffff3 	ble	80109598 <_svfiprintf_r+0x6c8>
801095c8:	e28d2040 	add	r2, sp, #64	; 0x40
801095cc:	e1a01008 	mov	r1, r8
801095d0:	e1a00007 	mov	r0, r7
801095d4:	ebfffdd9 	bl	80108d40 <__ssprint_r>
801095d8:	e3500000 	cmp	r0, #0
801095dc:	1afffeff 	bne	801091e0 <_svfiprintf_r+0x310>
801095e0:	e2444010 	sub	r4, r4, #16
801095e4:	e3540010 	cmp	r4, #16
801095e8:	e28d004c 	add	r0, sp, #76	; 0x4c
801095ec:	e59d2048 	ldr	r2, [sp, #72]	; 0x48
801095f0:	e59d3044 	ldr	r3, [sp, #68]	; 0x44
801095f4:	caffffea 	bgt	801095a4 <_svfiprintf_r+0x6d4>
801095f8:	e2833001 	add	r3, r3, #1
801095fc:	e3530007 	cmp	r3, #7
80109600:	e58d3044 	str	r3, [sp, #68]	; 0x44
80109604:	e59f39bc 	ldr	r3, [pc, #2492]	; 80109fc8 <_svfiprintf_r+0x10f8>
80109608:	e0822004 	add	r2, r2, r4
8010960c:	e58d2048 	str	r2, [sp, #72]	; 0x48
80109610:	e8800018 	stm	r0, {r3, r4}
80109614:	ca0001a0 	bgt	80109c9c <_svfiprintf_r+0xdcc>
80109618:	e59d3008 	ldr	r3, [sp, #8]
8010961c:	e15a0006 	cmp	sl, r6
80109620:	a083300a 	addge	r3, r3, sl
80109624:	b0833006 	addlt	r3, r3, r6
80109628:	e3520000 	cmp	r2, #0
8010962c:	e58d3008 	str	r3, [sp, #8]
80109630:	1a000165 	bne	80109bcc <_svfiprintf_r+0xcfc>
80109634:	e3a03000 	mov	r3, #0
80109638:	e28d904c 	add	r9, sp, #76	; 0x4c
8010963c:	e58d3044 	str	r3, [sp, #68]	; 0x44
80109640:	eafffe39 	b	80108f2c <_svfiprintf_r+0x5c>
80109644:	e1a05008 	mov	r5, r8
80109648:	e3150020 	tst	r5, #32
8010964c:	0a000095 	beq	801098a8 <_svfiprintf_r+0x9d8>
80109650:	e59d3010 	ldr	r3, [sp, #16]
80109654:	e2833007 	add	r3, r3, #7
80109658:	e3c33007 	bic	r3, r3, #7
8010965c:	e8930003 	ldm	r3, {r0, r1}
80109660:	e1a06000 	mov	r6, r0
80109664:	e1a07001 	mov	r7, r1
80109668:	e2833008 	add	r3, r3, #8
8010966c:	e58d3010 	str	r3, [sp, #16]
80109670:	e3500000 	cmp	r0, #0
80109674:	e2d13000 	sbcs	r3, r1, #0
80109678:	aa000003 	bge	8010968c <_svfiprintf_r+0x7bc>
8010967c:	e3a0302d 	mov	r3, #45	; 0x2d
80109680:	e2766000 	rsbs	r6, r6, #0
80109684:	e5cd303b 	strb	r3, [sp, #59]	; 0x3b
80109688:	e2e77000 	rsc	r7, r7, #0
8010968c:	e3740001 	cmn	r4, #1
80109690:	e28d30f0 	add	r3, sp, #240	; 0xf0
80109694:	e58d3014 	str	r3, [sp, #20]
80109698:	13a02001 	movne	r2, #1
8010969c:	1afffef3 	bne	80109270 <_svfiprintf_r+0x3a0>
801096a0:	e3570000 	cmp	r7, #0
801096a4:	03560009 	cmpeq	r6, #9
801096a8:	8a0001c3 	bhi	80109dbc <_svfiprintf_r+0xeec>
801096ac:	e28d30f0 	add	r3, sp, #240	; 0xf0
801096b0:	e2866030 	add	r6, r6, #48	; 0x30
801096b4:	e5636001 	strb	r6, [r3, #-1]!
801096b8:	e1a08005 	mov	r8, r5
801096bc:	e58d301c 	str	r3, [sp, #28]
801096c0:	e3a07001 	mov	r7, #1
801096c4:	eafffefa 	b	801092b4 <_svfiprintf_r+0x3e4>
801096c8:	e3a0a000 	mov	sl, #0
801096cc:	e2432030 	sub	r2, r3, #48	; 0x30
801096d0:	e4db3001 	ldrb	r3, [fp], #1
801096d4:	e08aa10a 	add	sl, sl, sl, lsl #2
801096d8:	e082a08a 	add	sl, r2, sl, lsl #1
801096dc:	e2432030 	sub	r2, r3, #48	; 0x30
801096e0:	e3520009 	cmp	r2, #9
801096e4:	9afffff9 	bls	801096d0 <_svfiprintf_r+0x800>
801096e8:	eafffe34 	b	80108fc0 <_svfiprintf_r+0xf0>
801096ec:	e3888080 	orr	r8, r8, #128	; 0x80
801096f0:	e5db3000 	ldrb	r3, [fp]
801096f4:	eafffe30 	b	80108fbc <_svfiprintf_r+0xec>
801096f8:	e5db3000 	ldrb	r3, [fp]
801096fc:	e353002a 	cmp	r3, #42	; 0x2a
80109700:	e28b1001 	add	r1, fp, #1
80109704:	0a00021f 	beq	80109f88 <_svfiprintf_r+0x10b8>
80109708:	e2432030 	sub	r2, r3, #48	; 0x30
8010970c:	e3520009 	cmp	r2, #9
80109710:	e1a0b001 	mov	fp, r1
80109714:	e3a04000 	mov	r4, #0
80109718:	8afffe28 	bhi	80108fc0 <_svfiprintf_r+0xf0>
8010971c:	e4db3001 	ldrb	r3, [fp], #1
80109720:	e0844104 	add	r4, r4, r4, lsl #2
80109724:	e0824084 	add	r4, r2, r4, lsl #1
80109728:	e2432030 	sub	r2, r3, #48	; 0x30
8010972c:	e3520009 	cmp	r2, #9
80109730:	9afffff9 	bls	8010971c <_svfiprintf_r+0x84c>
80109734:	eafffe21 	b	80108fc0 <_svfiprintf_r+0xf0>
80109738:	e5db3000 	ldrb	r3, [fp]
8010973c:	e3888004 	orr	r8, r8, #4
80109740:	eafffe1d 	b	80108fbc <_svfiprintf_r+0xec>
80109744:	e3a0302b 	mov	r3, #43	; 0x2b
80109748:	e5cd303b 	strb	r3, [sp, #59]	; 0x3b
8010974c:	e5db3000 	ldrb	r3, [fp]
80109750:	eafffe19 	b	80108fbc <_svfiprintf_r+0xec>
80109754:	e59d3010 	ldr	r3, [sp, #16]
80109758:	e593a000 	ldr	sl, [r3]
8010975c:	e2832004 	add	r2, r3, #4
80109760:	e35a0000 	cmp	sl, #0
80109764:	e5db3000 	ldrb	r3, [fp]
80109768:	e58d2010 	str	r2, [sp, #16]
8010976c:	aafffe12 	bge	80108fbc <_svfiprintf_r+0xec>
80109770:	e26aa000 	rsb	sl, sl, #0
80109774:	eafffff0 	b	8010973c <_svfiprintf_r+0x86c>
80109778:	e59d700c 	ldr	r7, [sp, #12]
8010977c:	e1a00007 	mov	r0, r7
80109780:	ebfff6f8 	bl	80107368 <_localeconv_r>
80109784:	e5903004 	ldr	r3, [r0, #4]
80109788:	e1a00003 	mov	r0, r3
8010978c:	e58d302c 	str	r3, [sp, #44]	; 0x2c
80109790:	ebfffd1a 	bl	80108c00 <strlen>
80109794:	e1a05000 	mov	r5, r0
80109798:	e58d0030 	str	r0, [sp, #48]	; 0x30
8010979c:	e1a00007 	mov	r0, r7
801097a0:	ebfff6f0 	bl	80107368 <_localeconv_r>
801097a4:	e5903008 	ldr	r3, [r0, #8]
801097a8:	e3550000 	cmp	r5, #0
801097ac:	13530000 	cmpne	r3, #0
801097b0:	e58d3028 	str	r3, [sp, #40]	; 0x28
801097b4:	0afffe61 	beq	80109140 <_svfiprintf_r+0x270>
801097b8:	e5d33000 	ldrb	r3, [r3]
801097bc:	e3530000 	cmp	r3, #0
801097c0:	13888b01 	orrne	r8, r8, #1024	; 0x400
801097c4:	e5db3000 	ldrb	r3, [fp]
801097c8:	eafffdfb 	b	80108fbc <_svfiprintf_r+0xec>
801097cc:	e3888001 	orr	r8, r8, #1
801097d0:	e5db3000 	ldrb	r3, [fp]
801097d4:	eafffdf8 	b	80108fbc <_svfiprintf_r+0xec>
801097d8:	e5dd303b 	ldrb	r3, [sp, #59]	; 0x3b
801097dc:	e3530000 	cmp	r3, #0
801097e0:	03a02020 	moveq	r2, #32
801097e4:	e5db3000 	ldrb	r3, [fp]
801097e8:	05cd203b 	strbeq	r2, [sp, #59]	; 0x3b
801097ec:	eafffdf2 	b	80108fbc <_svfiprintf_r+0xec>
801097f0:	e5db3000 	ldrb	r3, [fp]
801097f4:	e3530068 	cmp	r3, #104	; 0x68
801097f8:	05db3001 	ldrbeq	r3, [fp, #1]
801097fc:	03888c02 	orreq	r8, r8, #512	; 0x200
80109800:	028bb001 	addeq	fp, fp, #1
80109804:	13888040 	orrne	r8, r8, #64	; 0x40
80109808:	eafffdeb 	b	80108fbc <_svfiprintf_r+0xec>
8010980c:	e59f27bc 	ldr	r2, [pc, #1980]	; 80109fd0 <_svfiprintf_r+0x1100>
80109810:	e3180020 	tst	r8, #32
80109814:	e58d2024 	str	r2, [sp, #36]	; 0x24
80109818:	1afffe7e 	bne	80109218 <_svfiprintf_r+0x348>
8010981c:	e59d1010 	ldr	r1, [sp, #16]
80109820:	e3180010 	tst	r8, #16
80109824:	e2812004 	add	r2, r1, #4
80109828:	1a00013c 	bne	80109d20 <_svfiprintf_r+0xe50>
8010982c:	e3180040 	tst	r8, #64	; 0x40
80109830:	e59d1010 	ldr	r1, [sp, #16]
80109834:	0a000137 	beq	80109d18 <_svfiprintf_r+0xe48>
80109838:	e1d160b0 	ldrh	r6, [r1]
8010983c:	e58d2010 	str	r2, [sp, #16]
80109840:	e3a07000 	mov	r7, #0
80109844:	eafffe79 	b	80109230 <_svfiprintf_r+0x360>
80109848:	e59d3010 	ldr	r3, [sp, #16]
8010984c:	e5932000 	ldr	r2, [r3]
80109850:	e58d201c 	str	r2, [sp, #28]
80109854:	e3520000 	cmp	r2, #0
80109858:	e3a02000 	mov	r2, #0
8010985c:	e2835004 	add	r5, r3, #4
80109860:	e5cd203b 	strb	r2, [sp, #59]	; 0x3b
80109864:	0a000195 	beq	80109ec0 <_svfiprintf_r+0xff0>
80109868:	e3740001 	cmn	r4, #1
8010986c:	0a00013e 	beq	80109d6c <_svfiprintf_r+0xe9c>
80109870:	e59d601c 	ldr	r6, [sp, #28]
80109874:	e1a02004 	mov	r2, r4
80109878:	e3a01000 	mov	r1, #0
8010987c:	e1a00006 	mov	r0, r6
80109880:	ebfff8b7 	bl	80107b64 <memchr>
80109884:	e3500000 	cmp	r0, #0
80109888:	0a0001af 	beq	80109f4c <_svfiprintf_r+0x107c>
8010988c:	e0407006 	sub	r7, r0, r6
80109890:	e58d5010 	str	r5, [sp, #16]
80109894:	e3a04000 	mov	r4, #0
80109898:	eafffe85 	b	801092b4 <_svfiprintf_r+0x3e4>
8010989c:	e3885010 	orr	r5, r8, #16
801098a0:	e3150020 	tst	r5, #32
801098a4:	1affff69 	bne	80109650 <_svfiprintf_r+0x780>
801098a8:	e59d2010 	ldr	r2, [sp, #16]
801098ac:	e3150010 	tst	r5, #16
801098b0:	e2823004 	add	r3, r2, #4
801098b4:	1a000111 	bne	80109d00 <_svfiprintf_r+0xe30>
801098b8:	e3150040 	tst	r5, #64	; 0x40
801098bc:	e59d2010 	ldr	r2, [sp, #16]
801098c0:	0a00010c 	beq	80109cf8 <_svfiprintf_r+0xe28>
801098c4:	e1d260f0 	ldrsh	r6, [r2]
801098c8:	e1a07fc6 	asr	r7, r6, #31
801098cc:	e58d3010 	str	r3, [sp, #16]
801098d0:	e1a00006 	mov	r0, r6
801098d4:	e1a01007 	mov	r1, r7
801098d8:	eaffff64 	b	80109670 <_svfiprintf_r+0x7a0>
801098dc:	e3a06001 	mov	r6, #1
801098e0:	e3a01000 	mov	r1, #0
801098e4:	e1a07006 	mov	r7, r6
801098e8:	e59d2010 	ldr	r2, [sp, #16]
801098ec:	e5923000 	ldr	r3, [r2]
801098f0:	e5cd308c 	strb	r3, [sp, #140]	; 0x8c
801098f4:	e2823004 	add	r3, r2, #4
801098f8:	e58d3010 	str	r3, [sp, #16]
801098fc:	e28d308c 	add	r3, sp, #140	; 0x8c
80109900:	e5cd103b 	strb	r1, [sp, #59]	; 0x3b
80109904:	e58d301c 	str	r3, [sp, #28]
80109908:	e3a04000 	mov	r4, #0
8010990c:	eafffe6e 	b	801092cc <_svfiprintf_r+0x3fc>
80109910:	e59d2010 	ldr	r2, [sp, #16]
80109914:	e4923004 	ldr	r3, [r2], #4
80109918:	e3180020 	tst	r8, #32
8010991c:	e58d2010 	str	r2, [sp, #16]
80109920:	1a000102 	bne	80109d30 <_svfiprintf_r+0xe60>
80109924:	e3180010 	tst	r8, #16
80109928:	1a000161 	bne	80109eb4 <_svfiprintf_r+0xfe4>
8010992c:	e3180040 	tst	r8, #64	; 0x40
80109930:	1a00017f 	bne	80109f34 <_svfiprintf_r+0x1064>
80109934:	e3180c02 	tst	r8, #512	; 0x200
80109938:	0a00015d 	beq	80109eb4 <_svfiprintf_r+0xfe4>
8010993c:	e59d2008 	ldr	r2, [sp, #8]
80109940:	e5c32000 	strb	r2, [r3]
80109944:	eafffd78 	b	80108f2c <_svfiprintf_r+0x5c>
80109948:	e5db3000 	ldrb	r3, [fp]
8010994c:	e353006c 	cmp	r3, #108	; 0x6c
80109950:	05db3001 	ldrbeq	r3, [fp, #1]
80109954:	03888020 	orreq	r8, r8, #32
80109958:	028bb001 	addeq	fp, fp, #1
8010995c:	13888010 	orrne	r8, r8, #16
80109960:	eafffd95 	b	80108fbc <_svfiprintf_r+0xec>
80109964:	e59f3668 	ldr	r3, [pc, #1640]	; 80109fd4 <_svfiprintf_r+0x1104>
80109968:	e59d2010 	ldr	r2, [sp, #16]
8010996c:	e1cd33bc 	strh	r3, [sp, #60]	; 0x3c
80109970:	e59f364c 	ldr	r3, [pc, #1612]	; 80109fc4 <_svfiprintf_r+0x10f4>
80109974:	e5926000 	ldr	r6, [r2]
80109978:	e2822004 	add	r2, r2, #4
8010997c:	e58d2010 	str	r2, [sp, #16]
80109980:	e3885002 	orr	r5, r8, #2
80109984:	e3a07000 	mov	r7, #0
80109988:	e58d3024 	str	r3, [sp, #36]	; 0x24
8010998c:	e3a02002 	mov	r2, #2
80109990:	eafffe30 	b	80109258 <_svfiprintf_r+0x388>
80109994:	e59d2010 	ldr	r2, [sp, #16]
80109998:	e3180010 	tst	r8, #16
8010999c:	e2823004 	add	r3, r2, #4
801099a0:	1a0000ce 	bne	80109ce0 <_svfiprintf_r+0xe10>
801099a4:	e3180040 	tst	r8, #64	; 0x40
801099a8:	0a0000c9 	beq	80109cd4 <_svfiprintf_r+0xe04>
801099ac:	e59d2010 	ldr	r2, [sp, #16]
801099b0:	e1a05008 	mov	r5, r8
801099b4:	e1d260b0 	ldrh	r6, [r2]
801099b8:	e58d3010 	str	r3, [sp, #16]
801099bc:	e3a07000 	mov	r7, #0
801099c0:	e3a02001 	mov	r2, #1
801099c4:	eafffe23 	b	80109258 <_svfiprintf_r+0x388>
801099c8:	e59d2010 	ldr	r2, [sp, #16]
801099cc:	e3180010 	tst	r8, #16
801099d0:	e2823004 	add	r3, r2, #4
801099d4:	1a0000ba 	bne	80109cc4 <_svfiprintf_r+0xdf4>
801099d8:	e3180040 	tst	r8, #64	; 0x40
801099dc:	e59d2010 	ldr	r2, [sp, #16]
801099e0:	0a0000b5 	beq	80109cbc <_svfiprintf_r+0xdec>
801099e4:	e1d260b0 	ldrh	r6, [r2]
801099e8:	e58d3010 	str	r3, [sp, #16]
801099ec:	e3a07000 	mov	r7, #0
801099f0:	eafffddd 	b	8010916c <_svfiprintf_r+0x29c>
801099f4:	e3530000 	cmp	r3, #0
801099f8:	0afffdf2 	beq	801091c8 <_svfiprintf_r+0x2f8>
801099fc:	e5cd308c 	strb	r3, [sp, #140]	; 0x8c
80109a00:	e3a03000 	mov	r3, #0
80109a04:	e3a06001 	mov	r6, #1
80109a08:	e5cd303b 	strb	r3, [sp, #59]	; 0x3b
80109a0c:	e28d308c 	add	r3, sp, #140	; 0x8c
80109a10:	e1a07006 	mov	r7, r6
80109a14:	e58d301c 	str	r3, [sp, #28]
80109a18:	eaffffba 	b	80109908 <_svfiprintf_r+0xa38>
80109a1c:	e04a5006 	sub	r5, sl, r6
80109a20:	e3550000 	cmp	r5, #0
80109a24:	dafffe94 	ble	8010947c <_svfiprintf_r+0x5ac>
80109a28:	e3550010 	cmp	r5, #16
80109a2c:	da000143 	ble	80109f40 <_svfiprintf_r+0x1070>
80109a30:	e1a00009 	mov	r0, r9
80109a34:	e3a03010 	mov	r3, #16
80109a38:	e1a09007 	mov	r9, r7
80109a3c:	e1a07006 	mov	r7, r6
80109a40:	e1a06004 	mov	r6, r4
80109a44:	e59d400c 	ldr	r4, [sp, #12]
80109a48:	ea000002 	b	80109a58 <_svfiprintf_r+0xb88>
80109a4c:	e2455010 	sub	r5, r5, #16
80109a50:	e3550010 	cmp	r5, #16
80109a54:	da000017 	ble	80109ab8 <_svfiprintf_r+0xbe8>
80109a58:	e2811001 	add	r1, r1, #1
80109a5c:	e59fc568 	ldr	ip, [pc, #1384]	; 80109fcc <_svfiprintf_r+0x10fc>
80109a60:	e3510007 	cmp	r1, #7
80109a64:	e2822010 	add	r2, r2, #16
80109a68:	e580c000 	str	ip, [r0]
80109a6c:	e5803004 	str	r3, [r0, #4]
80109a70:	e58d1044 	str	r1, [sp, #68]	; 0x44
80109a74:	e58d2048 	str	r2, [sp, #72]	; 0x48
80109a78:	d2800008 	addle	r0, r0, #8
80109a7c:	dafffff2 	ble	80109a4c <_svfiprintf_r+0xb7c>
80109a80:	e28d2040 	add	r2, sp, #64	; 0x40
80109a84:	e59d1004 	ldr	r1, [sp, #4]
80109a88:	e1a00004 	mov	r0, r4
80109a8c:	e58d3014 	str	r3, [sp, #20]
80109a90:	ebfffcaa 	bl	80108d40 <__ssprint_r>
80109a94:	e3500000 	cmp	r0, #0
80109a98:	1afffdd0 	bne	801091e0 <_svfiprintf_r+0x310>
80109a9c:	e2455010 	sub	r5, r5, #16
80109aa0:	e28d1044 	add	r1, sp, #68	; 0x44
80109aa4:	e3550010 	cmp	r5, #16
80109aa8:	e28d004c 	add	r0, sp, #76	; 0x4c
80109aac:	e8910006 	ldm	r1, {r1, r2}
80109ab0:	e59d3014 	ldr	r3, [sp, #20]
80109ab4:	caffffe7 	bgt	80109a58 <_svfiprintf_r+0xb88>
80109ab8:	e1a04006 	mov	r4, r6
80109abc:	e1a06007 	mov	r6, r7
80109ac0:	e1a07009 	mov	r7, r9
80109ac4:	e1a09000 	mov	r9, r0
80109ac8:	e2811001 	add	r1, r1, #1
80109acc:	e2803008 	add	r3, r0, #8
80109ad0:	e59f04f4 	ldr	r0, [pc, #1268]	; 80109fcc <_svfiprintf_r+0x10fc>
80109ad4:	e0822005 	add	r2, r2, r5
80109ad8:	e3510007 	cmp	r1, #7
80109adc:	e58d2048 	str	r2, [sp, #72]	; 0x48
80109ae0:	e8890021 	stm	r9, {r0, r5}
80109ae4:	e58d1044 	str	r1, [sp, #68]	; 0x44
80109ae8:	ca0000a5 	bgt	80109d84 <_svfiprintf_r+0xeb4>
80109aec:	e281c001 	add	ip, r1, #1
80109af0:	e2830008 	add	r0, r3, #8
80109af4:	e1a09003 	mov	r9, r3
80109af8:	eafffe5f 	b	8010947c <_svfiprintf_r+0x5ac>
80109afc:	e1a05008 	mov	r5, r8
80109b00:	e3520001 	cmp	r2, #1
80109b04:	0afffee5 	beq	801096a0 <_svfiprintf_r+0x7d0>
80109b08:	e3520002 	cmp	r2, #2
80109b0c:	128d10f0 	addne	r1, sp, #240	; 0xf0
80109b10:	1a00000f 	bne	80109b54 <_svfiprintf_r+0xc84>
80109b14:	e28d30f0 	add	r3, sp, #240	; 0xf0
80109b18:	e1a02003 	mov	r2, r3
80109b1c:	e59dc024 	ldr	ip, [sp, #36]	; 0x24
80109b20:	e1a03226 	lsr	r3, r6, #4
80109b24:	e1833e07 	orr	r3, r3, r7, lsl #28
80109b28:	e1a00227 	lsr	r0, r7, #4
80109b2c:	e206100f 	and	r1, r6, #15
80109b30:	e1a07000 	mov	r7, r0
80109b34:	e1a06003 	mov	r6, r3
80109b38:	e7dc3001 	ldrb	r3, [ip, r1]
80109b3c:	e1961007 	orrs	r1, r6, r7
80109b40:	e5623001 	strb	r3, [r2, #-1]!
80109b44:	1afffff5 	bne	80109b20 <_svfiprintf_r+0xc50>
80109b48:	e58d201c 	str	r2, [sp, #28]
80109b4c:	ea000011 	b	80109b98 <_svfiprintf_r+0xcc8>
80109b50:	e1a01002 	mov	r1, r2
80109b54:	e1a021a6 	lsr	r2, r6, #3
80109b58:	e1822e87 	orr	r2, r2, r7, lsl #29
80109b5c:	e1a001a7 	lsr	r0, r7, #3
80109b60:	e2063007 	and	r3, r6, #7
80109b64:	e1a07000 	mov	r7, r0
80109b68:	e1a06002 	mov	r6, r2
80109b6c:	e2833030 	add	r3, r3, #48	; 0x30
80109b70:	e1962007 	orrs	r2, r6, r7
80109b74:	e5413001 	strb	r3, [r1, #-1]
80109b78:	e2412001 	sub	r2, r1, #1
80109b7c:	1afffff3 	bne	80109b50 <_svfiprintf_r+0xc80>
80109b80:	e3530030 	cmp	r3, #48	; 0x30
80109b84:	03a03000 	moveq	r3, #0
80109b88:	12053001 	andne	r3, r5, #1
80109b8c:	e3530000 	cmp	r3, #0
80109b90:	e58d201c 	str	r2, [sp, #28]
80109b94:	1a0000bd 	bne	80109e90 <_svfiprintf_r+0xfc0>
80109b98:	e59d3014 	ldr	r3, [sp, #20]
80109b9c:	e1a08005 	mov	r8, r5
80109ba0:	e0437002 	sub	r7, r3, r2
80109ba4:	eafffdc2 	b	801092b4 <_svfiprintf_r+0x3e4>
80109ba8:	e28d2040 	add	r2, sp, #64	; 0x40
80109bac:	e59d1004 	ldr	r1, [sp, #4]
80109bb0:	e59d000c 	ldr	r0, [sp, #12]
80109bb4:	ebfffc61 	bl	80108d40 <__ssprint_r>
80109bb8:	e3500000 	cmp	r0, #0
80109bbc:	1afffd87 	bne	801091e0 <_svfiprintf_r+0x310>
80109bc0:	e28d004c 	add	r0, sp, #76	; 0x4c
80109bc4:	e59d2048 	ldr	r2, [sp, #72]	; 0x48
80109bc8:	eafffe66 	b	80109568 <_svfiprintf_r+0x698>
80109bcc:	e28d2040 	add	r2, sp, #64	; 0x40
80109bd0:	e59d1004 	ldr	r1, [sp, #4]
80109bd4:	e59d000c 	ldr	r0, [sp, #12]
80109bd8:	ebfffc58 	bl	80108d40 <__ssprint_r>
80109bdc:	e3500000 	cmp	r0, #0
80109be0:	0afffe93 	beq	80109634 <_svfiprintf_r+0x764>
80109be4:	eafffd7d 	b	801091e0 <_svfiprintf_r+0x310>
80109be8:	e1a04003 	mov	r4, r3
80109bec:	e28d30f0 	add	r3, sp, #240	; 0xf0
80109bf0:	e58d301c 	str	r3, [sp, #28]
80109bf4:	e1a07004 	mov	r7, r4
80109bf8:	eafffdad 	b	801092b4 <_svfiprintf_r+0x3e4>
80109bfc:	e28d2040 	add	r2, sp, #64	; 0x40
80109c00:	e59d1004 	ldr	r1, [sp, #4]
80109c04:	e59d000c 	ldr	r0, [sp, #12]
80109c08:	ebfffc4c 	bl	80108d40 <__ssprint_r>
80109c0c:	e3500000 	cmp	r0, #0
80109c10:	1afffd72 	bne	801091e0 <_svfiprintf_r+0x310>
80109c14:	e28d1044 	add	r1, sp, #68	; 0x44
80109c18:	e8910006 	ldm	r1, {r1, r2}
80109c1c:	e28d904c 	add	r9, sp, #76	; 0x4c
80109c20:	e281c001 	add	ip, r1, #1
80109c24:	e28d0054 	add	r0, sp, #84	; 0x54
80109c28:	eafffe00 	b	80109430 <_svfiprintf_r+0x560>
80109c2c:	e28d2040 	add	r2, sp, #64	; 0x40
80109c30:	e59d1004 	ldr	r1, [sp, #4]
80109c34:	e59d000c 	ldr	r0, [sp, #12]
80109c38:	ebfffc40 	bl	80108d40 <__ssprint_r>
80109c3c:	e3500000 	cmp	r0, #0
80109c40:	1afffd66 	bne	801091e0 <_svfiprintf_r+0x310>
80109c44:	e28d1044 	add	r1, sp, #68	; 0x44
80109c48:	e8910006 	ldm	r1, {r1, r2}
80109c4c:	e28d904c 	add	r9, sp, #76	; 0x4c
80109c50:	e281c001 	add	ip, r1, #1
80109c54:	e28d0054 	add	r0, sp, #84	; 0x54
80109c58:	eafffe04 	b	80109470 <_svfiprintf_r+0x5a0>
80109c5c:	e28d2040 	add	r2, sp, #64	; 0x40
80109c60:	e59d1004 	ldr	r1, [sp, #4]
80109c64:	e59d000c 	ldr	r0, [sp, #12]
80109c68:	ebfffc34 	bl	80108d40 <__ssprint_r>
80109c6c:	e3500000 	cmp	r0, #0
80109c70:	1afffd5a 	bne	801091e0 <_svfiprintf_r+0x310>
80109c74:	e59dc044 	ldr	ip, [sp, #68]	; 0x44
80109c78:	e28d904c 	add	r9, sp, #76	; 0x4c
80109c7c:	e59d2048 	ldr	r2, [sp, #72]	; 0x48
80109c80:	e28cc001 	add	ip, ip, #1
80109c84:	e28d0054 	add	r0, sp, #84	; 0x54
80109c88:	eafffe2f 	b	8010954c <_svfiprintf_r+0x67c>
80109c8c:	e28d30f0 	add	r3, sp, #240	; 0xf0
80109c90:	e1a04002 	mov	r4, r2
80109c94:	e58d301c 	str	r3, [sp, #28]
80109c98:	eafffd85 	b	801092b4 <_svfiprintf_r+0x3e4>
80109c9c:	e28d2040 	add	r2, sp, #64	; 0x40
80109ca0:	e59d1004 	ldr	r1, [sp, #4]
80109ca4:	e59d000c 	ldr	r0, [sp, #12]
80109ca8:	ebfffc24 	bl	80108d40 <__ssprint_r>
80109cac:	e3500000 	cmp	r0, #0
80109cb0:	1afffd4a 	bne	801091e0 <_svfiprintf_r+0x310>
80109cb4:	e59d2048 	ldr	r2, [sp, #72]	; 0x48
80109cb8:	eafffe56 	b	80109618 <_svfiprintf_r+0x748>
80109cbc:	e3180c02 	tst	r8, #512	; 0x200
80109cc0:	1a000097 	bne	80109f24 <_svfiprintf_r+0x1054>
80109cc4:	e5926000 	ldr	r6, [r2]
80109cc8:	e3a07000 	mov	r7, #0
80109ccc:	e58d3010 	str	r3, [sp, #16]
80109cd0:	eafffd25 	b	8010916c <_svfiprintf_r+0x29c>
80109cd4:	e3180c02 	tst	r8, #512	; 0x200
80109cd8:	1a000080 	bne	80109ee0 <_svfiprintf_r+0x1010>
80109cdc:	e59d2010 	ldr	r2, [sp, #16]
80109ce0:	e5926000 	ldr	r6, [r2]
80109ce4:	e1a05008 	mov	r5, r8
80109ce8:	e58d3010 	str	r3, [sp, #16]
80109cec:	e3a07000 	mov	r7, #0
80109cf0:	e3a02001 	mov	r2, #1
80109cf4:	eafffd57 	b	80109258 <_svfiprintf_r+0x388>
80109cf8:	e3150c02 	tst	r5, #512	; 0x200
80109cfc:	1a000082 	bne	80109f0c <_svfiprintf_r+0x103c>
80109d00:	e5926000 	ldr	r6, [r2]
80109d04:	e1a07fc6 	asr	r7, r6, #31
80109d08:	e58d3010 	str	r3, [sp, #16]
80109d0c:	e1a00006 	mov	r0, r6
80109d10:	e1a01007 	mov	r1, r7
80109d14:	eafffe55 	b	80109670 <_svfiprintf_r+0x7a0>
80109d18:	e3180c02 	tst	r8, #512	; 0x200
80109d1c:	1a000076 	bne	80109efc <_svfiprintf_r+0x102c>
80109d20:	e5916000 	ldr	r6, [r1]
80109d24:	e3a07000 	mov	r7, #0
80109d28:	e58d2010 	str	r2, [sp, #16]
80109d2c:	eafffd3f 	b	80109230 <_svfiprintf_r+0x360>
80109d30:	e59d0008 	ldr	r0, [sp, #8]
80109d34:	e1a01fc0 	asr	r1, r0, #31
80109d38:	e8830003 	stm	r3, {r0, r1}
80109d3c:	eafffc7a 	b	80108f2c <_svfiprintf_r+0x5c>
80109d40:	e3a01040 	mov	r1, #64	; 0x40
80109d44:	ebfff59b 	bl	801073b8 <_malloc_r>
80109d48:	e59d3004 	ldr	r3, [sp, #4]
80109d4c:	e3500000 	cmp	r0, #0
80109d50:	e5830000 	str	r0, [r3]
80109d54:	e5830010 	str	r0, [r3, #16]
80109d58:	0a000093 	beq	80109fac <_svfiprintf_r+0x10dc>
80109d5c:	e3a03040 	mov	r3, #64	; 0x40
80109d60:	e59d2004 	ldr	r2, [sp, #4]
80109d64:	e5823014 	str	r3, [r2, #20]
80109d68:	eafffc65 	b	80108f04 <_svfiprintf_r+0x34>
80109d6c:	e59d001c 	ldr	r0, [sp, #28]
80109d70:	e58d5010 	str	r5, [sp, #16]
80109d74:	ebfffba1 	bl	80108c00 <strlen>
80109d78:	e3a04000 	mov	r4, #0
80109d7c:	e1a07000 	mov	r7, r0
80109d80:	eafffd4b 	b	801092b4 <_svfiprintf_r+0x3e4>
80109d84:	e28d2040 	add	r2, sp, #64	; 0x40
80109d88:	e59d1004 	ldr	r1, [sp, #4]
80109d8c:	e59d000c 	ldr	r0, [sp, #12]
80109d90:	ebfffbea 	bl	80108d40 <__ssprint_r>
80109d94:	e3500000 	cmp	r0, #0
80109d98:	1afffd10 	bne	801091e0 <_svfiprintf_r+0x310>
80109d9c:	e28d1044 	add	r1, sp, #68	; 0x44
80109da0:	e8910006 	ldm	r1, {r1, r2}
80109da4:	e28d904c 	add	r9, sp, #76	; 0x4c
80109da8:	e281c001 	add	ip, r1, #1
80109dac:	e28d0054 	add	r0, sp, #84	; 0x54
80109db0:	eafffdb1 	b	8010947c <_svfiprintf_r+0x5ac>
80109db4:	e1a03000 	mov	r3, r0
80109db8:	eafffdd9 	b	80109524 <_svfiprintf_r+0x654>
80109dbc:	e3a02000 	mov	r2, #0
80109dc0:	e2053b01 	and	r3, r5, #1024	; 0x400
80109dc4:	e58d5018 	str	r5, [sp, #24]
80109dc8:	e58d4020 	str	r4, [sp, #32]
80109dcc:	e1a05002 	mov	r5, r2
80109dd0:	e1a04003 	mov	r4, r3
80109dd4:	e58db034 	str	fp, [sp, #52]	; 0x34
80109dd8:	e1a0b009 	mov	fp, r9
80109ddc:	e59d9028 	ldr	r9, [sp, #40]	; 0x28
80109de0:	e28d80f0 	add	r8, sp, #240	; 0xf0
80109de4:	e3a0200a 	mov	r2, #10
80109de8:	e3a03000 	mov	r3, #0
80109dec:	e1a00006 	mov	r0, r6
80109df0:	e1a01007 	mov	r1, r7
80109df4:	ebffe2bb 	bl	801028e8 <__aeabi_uldivmod>
80109df8:	e3540000 	cmp	r4, #0
80109dfc:	e2822030 	add	r2, r2, #48	; 0x30
80109e00:	e5482001 	strb	r2, [r8, #-1]
80109e04:	e2855001 	add	r5, r5, #1
80109e08:	e2488001 	sub	r8, r8, #1
80109e0c:	0a00000c 	beq	80109e44 <_svfiprintf_r+0xf74>
80109e10:	e3570000 	cmp	r7, #0
80109e14:	03560009 	cmpeq	r6, #9
80109e18:	83a03001 	movhi	r3, #1
80109e1c:	93a03000 	movls	r3, #0
80109e20:	e5d92000 	ldrb	r2, [r9]
80109e24:	e35200ff 	cmp	r2, #255	; 0xff
80109e28:	03a03000 	moveq	r3, #0
80109e2c:	12033001 	andne	r3, r3, #1
80109e30:	e1520005 	cmp	r2, r5
80109e34:	13a03000 	movne	r3, #0
80109e38:	02033001 	andeq	r3, r3, #1
80109e3c:	e3530000 	cmp	r3, #0
80109e40:	1a000045 	bne	80109f5c <_svfiprintf_r+0x108c>
80109e44:	e1a00006 	mov	r0, r6
80109e48:	e1a01007 	mov	r1, r7
80109e4c:	e3a03000 	mov	r3, #0
80109e50:	e3a0200a 	mov	r2, #10
80109e54:	ebffe2a3 	bl	801028e8 <__aeabi_uldivmod>
80109e58:	e1a06000 	mov	r6, r0
80109e5c:	e1a07001 	mov	r7, r1
80109e60:	e1963007 	orrs	r3, r6, r7
80109e64:	1affffde 	bne	80109de4 <_svfiprintf_r+0xf14>
80109e68:	e59d5018 	ldr	r5, [sp, #24]
80109e6c:	e59d3014 	ldr	r3, [sp, #20]
80109e70:	e58d801c 	str	r8, [sp, #28]
80109e74:	e58d9028 	str	r9, [sp, #40]	; 0x28
80109e78:	e0437008 	sub	r7, r3, r8
80109e7c:	e1a0900b 	mov	r9, fp
80109e80:	e59d4020 	ldr	r4, [sp, #32]
80109e84:	e59db034 	ldr	fp, [sp, #52]	; 0x34
80109e88:	e1a08005 	mov	r8, r5
80109e8c:	eafffd08 	b	801092b4 <_svfiprintf_r+0x3e4>
80109e90:	e3a03030 	mov	r3, #48	; 0x30
80109e94:	e59d2014 	ldr	r2, [sp, #20]
80109e98:	e2411002 	sub	r1, r1, #2
80109e9c:	e0427001 	sub	r7, r2, r1
80109ea0:	e59d201c 	ldr	r2, [sp, #28]
80109ea4:	e1a08005 	mov	r8, r5
80109ea8:	e5423001 	strb	r3, [r2, #-1]
80109eac:	e58d101c 	str	r1, [sp, #28]
80109eb0:	eafffcff 	b	801092b4 <_svfiprintf_r+0x3e4>
80109eb4:	e59d2008 	ldr	r2, [sp, #8]
80109eb8:	e5832000 	str	r2, [r3]
80109ebc:	eafffc1a 	b	80108f2c <_svfiprintf_r+0x5c>
80109ec0:	e3540006 	cmp	r4, #6
80109ec4:	31a07004 	movcc	r7, r4
80109ec8:	23a07006 	movcs	r7, #6
80109ecc:	e59f3104 	ldr	r3, [pc, #260]	; 80109fd8 <_svfiprintf_r+0x1108>
80109ed0:	e58d5010 	str	r5, [sp, #16]
80109ed4:	e1a06007 	mov	r6, r7
80109ed8:	e58d301c 	str	r3, [sp, #28]
80109edc:	eafffe89 	b	80109908 <_svfiprintf_r+0xa38>
80109ee0:	e59d2010 	ldr	r2, [sp, #16]
80109ee4:	e1a05008 	mov	r5, r8
80109ee8:	e5d26000 	ldrb	r6, [r2]
80109eec:	e3a07000 	mov	r7, #0
80109ef0:	e3a02001 	mov	r2, #1
80109ef4:	e58d3010 	str	r3, [sp, #16]
80109ef8:	eafffcd6 	b	80109258 <_svfiprintf_r+0x388>
80109efc:	e5d16000 	ldrb	r6, [r1]
80109f00:	e3a07000 	mov	r7, #0
80109f04:	e58d2010 	str	r2, [sp, #16]
80109f08:	eafffcc8 	b	80109230 <_svfiprintf_r+0x360>
80109f0c:	e1d260d0 	ldrsb	r6, [r2]
80109f10:	e1a07fc6 	asr	r7, r6, #31
80109f14:	e58d3010 	str	r3, [sp, #16]
80109f18:	e1a00006 	mov	r0, r6
80109f1c:	e1a01007 	mov	r1, r7
80109f20:	eafffdd2 	b	80109670 <_svfiprintf_r+0x7a0>
80109f24:	e5d26000 	ldrb	r6, [r2]
80109f28:	e3a07000 	mov	r7, #0
80109f2c:	e58d3010 	str	r3, [sp, #16]
80109f30:	eafffc8d 	b	8010916c <_svfiprintf_r+0x29c>
80109f34:	e59d2008 	ldr	r2, [sp, #8]
80109f38:	e1c320b0 	strh	r2, [r3]
80109f3c:	eafffbfa 	b	80108f2c <_svfiprintf_r+0x5c>
80109f40:	e1a03000 	mov	r3, r0
80109f44:	e1a0100c 	mov	r1, ip
80109f48:	eafffee0 	b	80109ad0 <_svfiprintf_r+0xc00>
80109f4c:	e1a07004 	mov	r7, r4
80109f50:	e58d5010 	str	r5, [sp, #16]
80109f54:	e1a04000 	mov	r4, r0
80109f58:	eafffcd5 	b	801092b4 <_svfiprintf_r+0x3e4>
80109f5c:	e59d3030 	ldr	r3, [sp, #48]	; 0x30
80109f60:	e0488003 	sub	r8, r8, r3
80109f64:	e1a00008 	mov	r0, r8
80109f68:	e1a02003 	mov	r2, r3
80109f6c:	e59d102c 	ldr	r1, [sp, #44]	; 0x2c
80109f70:	ebfffb3a 	bl	80108c60 <strncpy>
80109f74:	e5d95001 	ldrb	r5, [r9, #1]
80109f78:	e3550000 	cmp	r5, #0
80109f7c:	12899001 	addne	r9, r9, #1
80109f80:	13a05000 	movne	r5, #0
80109f84:	eaffffae 	b	80109e44 <_svfiprintf_r+0xf74>
80109f88:	e59d2010 	ldr	r2, [sp, #16]
80109f8c:	e5924000 	ldr	r4, [r2]
80109f90:	e2822004 	add	r2, r2, #4
80109f94:	e1540006 	cmp	r4, r6
80109f98:	e5db3001 	ldrb	r3, [fp, #1]
80109f9c:	b1a04006 	movlt	r4, r6
80109fa0:	e1a0b001 	mov	fp, r1
80109fa4:	e58d2010 	str	r2, [sp, #16]
80109fa8:	eafffc03 	b	80108fbc <_svfiprintf_r+0xec>
80109fac:	e3e02000 	mvn	r2, #0
80109fb0:	e3a0300c 	mov	r3, #12
80109fb4:	e58d2008 	str	r2, [sp, #8]
80109fb8:	e59d200c 	ldr	r2, [sp, #12]
80109fbc:	e5823000 	str	r3, [r2]
80109fc0:	eafffc8c 	b	801091f8 <_svfiprintf_r+0x328>
80109fc4:	8010aa24 	.word	0x8010aa24
80109fc8:	8010abac 	.word	0x8010abac
80109fcc:	8010abbc 	.word	0x8010abbc
80109fd0:	8010aa38 	.word	0x8010aa38
80109fd4:	00007830 	.word	0x00007830
80109fd8:	8010aa4c 	.word	0x8010aa4c

Disassembly of section .text._calloc_r:

80109fdc <_calloc_r>:
80109fdc:	e92d4010 	push	{r4, lr}
80109fe0:	e0010192 	mul	r1, r2, r1
80109fe4:	ebfff4f3 	bl	801073b8 <_malloc_r>
80109fe8:	e2504000 	subs	r4, r0, #0
80109fec:	0a000018 	beq	8010a054 <_calloc_r+0x78>
80109ff0:	e5142004 	ldr	r2, [r4, #-4]
80109ff4:	e3c22003 	bic	r2, r2, #3
80109ff8:	e2422004 	sub	r2, r2, #4
80109ffc:	e3520024 	cmp	r2, #36	; 0x24
8010a000:	8a000016 	bhi	8010a060 <_calloc_r+0x84>
8010a004:	e3520013 	cmp	r2, #19
8010a008:	91a02004 	movls	r2, r4
8010a00c:	9a00000c 	bls	8010a044 <_calloc_r+0x68>
8010a010:	e3a03000 	mov	r3, #0
8010a014:	e352001b 	cmp	r2, #27
8010a018:	e5843000 	str	r3, [r4]
8010a01c:	e5843004 	str	r3, [r4, #4]
8010a020:	92842008 	addls	r2, r4, #8
8010a024:	9a000006 	bls	8010a044 <_calloc_r+0x68>
8010a028:	e3520024 	cmp	r2, #36	; 0x24
8010a02c:	e5843008 	str	r3, [r4, #8]
8010a030:	e584300c 	str	r3, [r4, #12]
8010a034:	05843010 	streq	r3, [r4, #16]
8010a038:	05843014 	streq	r3, [r4, #20]
8010a03c:	12842010 	addne	r2, r4, #16
8010a040:	02842018 	addeq	r2, r4, #24
8010a044:	e3a03000 	mov	r3, #0
8010a048:	e5823000 	str	r3, [r2]
8010a04c:	e5823004 	str	r3, [r2, #4]
8010a050:	e5823008 	str	r3, [r2, #8]
8010a054:	e1a00004 	mov	r0, r4
8010a058:	e8bd4010 	pop	{r4, lr}
8010a05c:	e12fff1e 	bx	lr
8010a060:	e3a01000 	mov	r1, #0
8010a064:	ebffe2e4 	bl	80102bfc <memset>
8010a068:	e1a00004 	mov	r0, r4
8010a06c:	e8bd4010 	pop	{r4, lr}
8010a070:	e12fff1e 	bx	lr

Disassembly of section .text._setlocale_r:

8010a074 <_setlocale_r>:
8010a074:	e92d4010 	push	{r4, lr}
8010a078:	e2524000 	subs	r4, r2, #0
8010a07c:	0a000004 	beq	8010a094 <_setlocale_r+0x20>
8010a080:	e59f1048 	ldr	r1, [pc, #72]	; 8010a0d0 <_setlocale_r+0x5c>
8010a084:	e1a00004 	mov	r0, r4
8010a088:	ebffdea1 	bl	80101b14 <strcmp>
8010a08c:	e3500000 	cmp	r0, #0
8010a090:	1a000002 	bne	8010a0a0 <_setlocale_r+0x2c>
8010a094:	e59f0038 	ldr	r0, [pc, #56]	; 8010a0d4 <_setlocale_r+0x60>
8010a098:	e8bd4010 	pop	{r4, lr}
8010a09c:	e12fff1e 	bx	lr
8010a0a0:	e59f102c 	ldr	r1, [pc, #44]	; 8010a0d4 <_setlocale_r+0x60>
8010a0a4:	e1a00004 	mov	r0, r4
8010a0a8:	ebffde99 	bl	80101b14 <strcmp>
8010a0ac:	e3500000 	cmp	r0, #0
8010a0b0:	0afffff7 	beq	8010a094 <_setlocale_r+0x20>
8010a0b4:	e1a00004 	mov	r0, r4
8010a0b8:	e59f1018 	ldr	r1, [pc, #24]	; 8010a0d8 <_setlocale_r+0x64>
8010a0bc:	ebffde94 	bl	80101b14 <strcmp>
8010a0c0:	e3500000 	cmp	r0, #0
8010a0c4:	0afffff2 	beq	8010a094 <_setlocale_r+0x20>
8010a0c8:	e3a00000 	mov	r0, #0
8010a0cc:	eafffff1 	b	8010a098 <_setlocale_r+0x24>
8010a0d0:	8010abd0 	.word	0x8010abd0
8010a0d4:	8010abcc 	.word	0x8010abcc
8010a0d8:	8010aa48 	.word	0x8010aa48

Disassembly of section .text.__locale_mb_cur_max:

8010a0dc <__locale_mb_cur_max>:
8010a0dc:	e59f3018 	ldr	r3, [pc, #24]	; 8010a0fc <__locale_mb_cur_max+0x20>
8010a0e0:	e5933000 	ldr	r3, [r3]
8010a0e4:	e5933034 	ldr	r3, [r3, #52]	; 0x34
8010a0e8:	e59f2010 	ldr	r2, [pc, #16]	; 8010a100 <__locale_mb_cur_max+0x24>
8010a0ec:	e3530000 	cmp	r3, #0
8010a0f0:	01a03002 	moveq	r3, r2
8010a0f4:	e5d30128 	ldrb	r0, [r3, #296]	; 0x128
8010a0f8:	e12fff1e 	bx	lr
8010a0fc:	8010acf4 	.word	0x8010acf4
8010a100:	8010b534 	.word	0x8010b534

Disassembly of section .text.__locale_ctype_ptr_l:

8010a104 <__locale_ctype_ptr_l>:
8010a104:	e59000ec 	ldr	r0, [r0, #236]	; 0xec
8010a108:	e12fff1e 	bx	lr

Disassembly of section .text.__locale_ctype_ptr:

8010a10c <__locale_ctype_ptr>:
8010a10c:	e59f3018 	ldr	r3, [pc, #24]	; 8010a12c <__locale_ctype_ptr+0x20>
8010a110:	e5933000 	ldr	r3, [r3]
8010a114:	e5933034 	ldr	r3, [r3, #52]	; 0x34
8010a118:	e59f2010 	ldr	r2, [pc, #16]	; 8010a130 <__locale_ctype_ptr+0x24>
8010a11c:	e3530000 	cmp	r3, #0
8010a120:	01a03002 	moveq	r3, r2
8010a124:	e59300ec 	ldr	r0, [r3, #236]	; 0xec
8010a128:	e12fff1e 	bx	lr
8010a12c:	8010acf4 	.word	0x8010acf4
8010a130:	8010b534 	.word	0x8010b534

Disassembly of section .text.setlocale:

8010a134 <setlocale>:
8010a134:	e59f300c 	ldr	r3, [pc, #12]	; 8010a148 <setlocale+0x14>
8010a138:	e1a02001 	mov	r2, r1
8010a13c:	e1a01000 	mov	r1, r0
8010a140:	e5930000 	ldr	r0, [r3]
8010a144:	eaffffca 	b	8010a074 <_setlocale_r>
8010a148:	8010acf4 	.word	0x8010acf4

Disassembly of section .text._mbtowc_r:

8010a14c <_mbtowc_r>:
8010a14c:	e59fc024 	ldr	ip, [pc, #36]	; 8010a178 <_mbtowc_r+0x2c>
8010a150:	e59cc000 	ldr	ip, [ip]
8010a154:	e59cc034 	ldr	ip, [ip, #52]	; 0x34
8010a158:	e52de004 	push	{lr}		; (str lr, [sp, #-4]!)
8010a15c:	e59fe018 	ldr	lr, [pc, #24]	; 8010a17c <_mbtowc_r+0x30>
8010a160:	e35c0000 	cmp	ip, #0
8010a164:	01a0c00e 	moveq	ip, lr
8010a168:	e59ce0e4 	ldr	lr, [ip, #228]	; 0xe4
8010a16c:	e1a0c00e 	mov	ip, lr
8010a170:	e49de004 	pop	{lr}		; (ldr lr, [sp], #4)
8010a174:	e12fff1c 	bx	ip
8010a178:	8010acf4 	.word	0x8010acf4
8010a17c:	8010b534 	.word	0x8010b534

Disassembly of section .text.__ascii_mbtowc:

8010a180 <__ascii_mbtowc>:
8010a180:	e3510000 	cmp	r1, #0
8010a184:	e24dd008 	sub	sp, sp, #8
8010a188:	028d1004 	addeq	r1, sp, #4
8010a18c:	e3520000 	cmp	r2, #0
8010a190:	01a00002 	moveq	r0, r2
8010a194:	0a000006 	beq	8010a1b4 <__ascii_mbtowc+0x34>
8010a198:	e3530000 	cmp	r3, #0
8010a19c:	0a000006 	beq	8010a1bc <__ascii_mbtowc+0x3c>
8010a1a0:	e5d23000 	ldrb	r3, [r2]
8010a1a4:	e5813000 	str	r3, [r1]
8010a1a8:	e5d22000 	ldrb	r2, [r2]
8010a1ac:	e2920000 	adds	r0, r2, #0
8010a1b0:	13a00001 	movne	r0, #1
8010a1b4:	e28dd008 	add	sp, sp, #8
8010a1b8:	e12fff1e 	bx	lr
8010a1bc:	e3e00001 	mvn	r0, #1
8010a1c0:	eafffffb 	b	8010a1b4 <__ascii_mbtowc+0x34>

Disassembly of section .text.memmove:

8010a1c4 <memmove>:
8010a1c4:	e1500001 	cmp	r0, r1
8010a1c8:	9a00000a 	bls	8010a1f8 <memmove+0x34>
8010a1cc:	e0813002 	add	r3, r1, r2
8010a1d0:	e1530000 	cmp	r3, r0
8010a1d4:	9a000007 	bls	8010a1f8 <memmove+0x34>
8010a1d8:	e3520000 	cmp	r2, #0
8010a1dc:	e0802002 	add	r2, r0, r2
8010a1e0:	012fff1e 	bxeq	lr
8010a1e4:	e573c001 	ldrb	ip, [r3, #-1]!
8010a1e8:	e1510003 	cmp	r1, r3
8010a1ec:	e562c001 	strb	ip, [r2, #-1]!
8010a1f0:	1afffffb 	bne	8010a1e4 <memmove+0x20>
8010a1f4:	e12fff1e 	bx	lr
8010a1f8:	e352000f 	cmp	r2, #15
8010a1fc:	8a000009 	bhi	8010a228 <memmove+0x64>
8010a200:	e3520000 	cmp	r2, #0
8010a204:	e1a03000 	mov	r3, r0
8010a208:	012fff1e 	bxeq	lr
8010a20c:	e2433001 	sub	r3, r3, #1
8010a210:	e0812002 	add	r2, r1, r2
8010a214:	e4d1c001 	ldrb	ip, [r1], #1
8010a218:	e1510002 	cmp	r1, r2
8010a21c:	e5e3c001 	strb	ip, [r3, #1]!
8010a220:	1afffffb 	bne	8010a214 <memmove+0x50>
8010a224:	e12fff1e 	bx	lr
8010a228:	e1803001 	orr	r3, r0, r1
8010a22c:	e3130003 	tst	r3, #3
8010a230:	11a03000 	movne	r3, r0
8010a234:	1afffff4 	bne	8010a20c <memmove+0x48>
8010a238:	e2423010 	sub	r3, r2, #16
8010a23c:	e92d4070 	push	{r4, r5, r6, lr}
8010a240:	e1a03223 	lsr	r3, r3, #4
8010a244:	e2815020 	add	r5, r1, #32
8010a248:	e0855203 	add	r5, r5, r3, lsl #4
8010a24c:	e281c010 	add	ip, r1, #16
8010a250:	e280e010 	add	lr, r0, #16
8010a254:	e51c4010 	ldr	r4, [ip, #-16]
8010a258:	e50e4010 	str	r4, [lr, #-16]
8010a25c:	e51c400c 	ldr	r4, [ip, #-12]
8010a260:	e50e400c 	str	r4, [lr, #-12]
8010a264:	e51c4008 	ldr	r4, [ip, #-8]
8010a268:	e50e4008 	str	r4, [lr, #-8]
8010a26c:	e28cc010 	add	ip, ip, #16
8010a270:	e51c4014 	ldr	r4, [ip, #-20]	; 0xffffffec
8010a274:	e15c0005 	cmp	ip, r5
8010a278:	e50e4004 	str	r4, [lr, #-4]
8010a27c:	e28ee010 	add	lr, lr, #16
8010a280:	1afffff3 	bne	8010a254 <memmove+0x90>
8010a284:	e202e00f 	and	lr, r2, #15
8010a288:	e2833001 	add	r3, r3, #1
8010a28c:	e1a03203 	lsl	r3, r3, #4
8010a290:	e35e0003 	cmp	lr, #3
8010a294:	e0811003 	add	r1, r1, r3
8010a298:	91a0200e 	movls	r2, lr
8010a29c:	e0803003 	add	r3, r0, r3
8010a2a0:	9a00000d 	bls	8010a2dc <memmove+0x118>
8010a2a4:	e1a05001 	mov	r5, r1
8010a2a8:	e1a0c00e 	mov	ip, lr
8010a2ac:	e2434004 	sub	r4, r3, #4
8010a2b0:	e24cc004 	sub	ip, ip, #4
8010a2b4:	e4956004 	ldr	r6, [r5], #4
8010a2b8:	e35c0003 	cmp	ip, #3
8010a2bc:	e5a46004 	str	r6, [r4, #4]!
8010a2c0:	8afffffa 	bhi	8010a2b0 <memmove+0xec>
8010a2c4:	e24ec004 	sub	ip, lr, #4
8010a2c8:	e3ccc003 	bic	ip, ip, #3
8010a2cc:	e28cc004 	add	ip, ip, #4
8010a2d0:	e083300c 	add	r3, r3, ip
8010a2d4:	e081100c 	add	r1, r1, ip
8010a2d8:	e2022003 	and	r2, r2, #3
8010a2dc:	e3520000 	cmp	r2, #0
8010a2e0:	12433001 	subne	r3, r3, #1
8010a2e4:	10812002 	addne	r2, r1, r2
8010a2e8:	0a000003 	beq	8010a2fc <memmove+0x138>
8010a2ec:	e4d1c001 	ldrb	ip, [r1], #1
8010a2f0:	e1510002 	cmp	r1, r2
8010a2f4:	e5e3c001 	strb	ip, [r3, #1]!
8010a2f8:	1afffffb 	bne	8010a2ec <memmove+0x128>
8010a2fc:	e8bd4070 	pop	{r4, r5, r6, lr}
8010a300:	e12fff1e 	bx	lr

Disassembly of section .text._realloc_r:

8010a304 <_realloc_r>:
8010a304:	e92d4ff0 	push	{r4, r5, r6, r7, r8, r9, sl, fp, lr}
8010a308:	e2516000 	subs	r6, r1, #0
8010a30c:	e24dd00c 	sub	sp, sp, #12
8010a310:	e1a0a002 	mov	sl, r2
8010a314:	0a00005e 	beq	8010a494 <_realloc_r+0x190>
8010a318:	e28a400b 	add	r4, sl, #11
8010a31c:	e1a08000 	mov	r8, r0
8010a320:	ebfff697 	bl	80107d84 <__malloc_lock>
8010a324:	e3540016 	cmp	r4, #22
8010a328:	93a02010 	movls	r2, #16
8010a32c:	93a03000 	movls	r3, #0
8010a330:	91a04002 	movls	r4, r2
8010a334:	83c44007 	bichi	r4, r4, #7
8010a338:	81a03fa4 	lsrhi	r3, r4, #31
8010a33c:	81a02004 	movhi	r2, r4
8010a340:	e154000a 	cmp	r4, sl
8010a344:	33833001 	orrcc	r3, r3, #1
8010a348:	e3530000 	cmp	r3, #0
8010a34c:	13a0300c 	movne	r3, #12
8010a350:	e5161004 	ldr	r1, [r6, #-4]
8010a354:	e2467008 	sub	r7, r6, #8
8010a358:	e3c15003 	bic	r5, r1, #3
8010a35c:	13a0a000 	movne	sl, #0
8010a360:	15883000 	strne	r3, [r8]
8010a364:	1a00002b 	bne	8010a418 <_realloc_r+0x114>
8010a368:	e1550002 	cmp	r5, r2
8010a36c:	e0879005 	add	r9, r7, r5
8010a370:	aa000036 	bge	8010a450 <_realloc_r+0x14c>
8010a374:	e59f3474 	ldr	r3, [pc, #1140]	; 8010a7f0 <_realloc_r+0x4ec>
8010a378:	e5930008 	ldr	r0, [r3, #8]
8010a37c:	e1500009 	cmp	r0, r9
8010a380:	0a000056 	beq	8010a4e0 <_realloc_r+0x1dc>
8010a384:	e5990004 	ldr	r0, [r9, #4]
8010a388:	e3c03001 	bic	r3, r0, #1
8010a38c:	e0893003 	add	r3, r9, r3
8010a390:	e5933004 	ldr	r3, [r3, #4]
8010a394:	e3130001 	tst	r3, #1
8010a398:	0a000022 	beq	8010a428 <_realloc_r+0x124>
8010a39c:	e3110001 	tst	r1, #1
8010a3a0:	0a0000db 	beq	8010a714 <_realloc_r+0x410>
8010a3a4:	e1a0100a 	mov	r1, sl
8010a3a8:	e1a00008 	mov	r0, r8
8010a3ac:	ebfff401 	bl	801073b8 <_malloc_r>
8010a3b0:	e250a000 	subs	sl, r0, #0
8010a3b4:	0a000015 	beq	8010a410 <_realloc_r+0x10c>
8010a3b8:	e5163004 	ldr	r3, [r6, #-4]
8010a3bc:	e3c33001 	bic	r3, r3, #1
8010a3c0:	e0873003 	add	r3, r7, r3
8010a3c4:	e24a2008 	sub	r2, sl, #8
8010a3c8:	e1530002 	cmp	r3, r2
8010a3cc:	0a0000d5 	beq	8010a728 <_realloc_r+0x424>
8010a3d0:	e2452004 	sub	r2, r5, #4
8010a3d4:	e3520024 	cmp	r2, #36	; 0x24
8010a3d8:	8a0000de 	bhi	8010a758 <_realloc_r+0x454>
8010a3dc:	e3520013 	cmp	r2, #19
8010a3e0:	e5961000 	ldr	r1, [r6]
8010a3e4:	91a0300a 	movls	r3, sl
8010a3e8:	91a02006 	movls	r2, r6
8010a3ec:	8a0000bf 	bhi	8010a6f0 <_realloc_r+0x3ec>
8010a3f0:	e5831000 	str	r1, [r3]
8010a3f4:	e5921004 	ldr	r1, [r2, #4]
8010a3f8:	e5831004 	str	r1, [r3, #4]
8010a3fc:	e5922008 	ldr	r2, [r2, #8]
8010a400:	e5832008 	str	r2, [r3, #8]
8010a404:	e1a01006 	mov	r1, r6
8010a408:	e1a00008 	mov	r0, r8
8010a40c:	ebfff31c 	bl	80107084 <_free_r>
8010a410:	e1a00008 	mov	r0, r8
8010a414:	ebfff660 	bl	80107d9c <__malloc_unlock>
8010a418:	e1a0000a 	mov	r0, sl
8010a41c:	e28dd00c 	add	sp, sp, #12
8010a420:	e8bd4ff0 	pop	{r4, r5, r6, r7, r8, r9, sl, fp, lr}
8010a424:	e12fff1e 	bx	lr
8010a428:	e3c00003 	bic	r0, r0, #3
8010a42c:	e0853000 	add	r3, r5, r0
8010a430:	e1530002 	cmp	r3, r2
8010a434:	ba00006b 	blt	8010a5e8 <_realloc_r+0x2e4>
8010a438:	e1a05003 	mov	r5, r3
8010a43c:	e2891008 	add	r1, r9, #8
8010a440:	e8910006 	ldm	r1, {r1, r2}
8010a444:	e581200c 	str	r2, [r1, #12]
8010a448:	e5821008 	str	r1, [r2, #8]
8010a44c:	e0879003 	add	r9, r7, r3
8010a450:	e0453004 	sub	r3, r5, r4
8010a454:	e5972004 	ldr	r2, [r7, #4]
8010a458:	e353000f 	cmp	r3, #15
8010a45c:	e2022001 	and	r2, r2, #1
8010a460:	8a000012 	bhi	8010a4b0 <_realloc_r+0x1ac>
8010a464:	e1852002 	orr	r2, r5, r2
8010a468:	e5872004 	str	r2, [r7, #4]
8010a46c:	e5993004 	ldr	r3, [r9, #4]
8010a470:	e3833001 	orr	r3, r3, #1
8010a474:	e5893004 	str	r3, [r9, #4]
8010a478:	e1a0a006 	mov	sl, r6
8010a47c:	e1a00008 	mov	r0, r8
8010a480:	ebfff645 	bl	80107d9c <__malloc_unlock>
8010a484:	e1a0000a 	mov	r0, sl
8010a488:	e28dd00c 	add	sp, sp, #12
8010a48c:	e8bd4ff0 	pop	{r4, r5, r6, r7, r8, r9, sl, fp, lr}
8010a490:	e12fff1e 	bx	lr
8010a494:	e1a01002 	mov	r1, r2
8010a498:	ebfff3c6 	bl	801073b8 <_malloc_r>
8010a49c:	e1a0a000 	mov	sl, r0
8010a4a0:	e1a0000a 	mov	r0, sl
8010a4a4:	e28dd00c 	add	sp, sp, #12
8010a4a8:	e8bd4ff0 	pop	{r4, r5, r6, r7, r8, r9, sl, fp, lr}
8010a4ac:	e12fff1e 	bx	lr
8010a4b0:	e0871004 	add	r1, r7, r4
8010a4b4:	e1842002 	orr	r2, r4, r2
8010a4b8:	e3833001 	orr	r3, r3, #1
8010a4bc:	e5872004 	str	r2, [r7, #4]
8010a4c0:	e5813004 	str	r3, [r1, #4]
8010a4c4:	e5993004 	ldr	r3, [r9, #4]
8010a4c8:	e3833001 	orr	r3, r3, #1
8010a4cc:	e2811008 	add	r1, r1, #8
8010a4d0:	e5893004 	str	r3, [r9, #4]
8010a4d4:	e1a00008 	mov	r0, r8
8010a4d8:	ebfff2e9 	bl	80107084 <_free_r>
8010a4dc:	eaffffe5 	b	8010a478 <_realloc_r+0x174>
8010a4e0:	e5909004 	ldr	r9, [r0, #4]
8010a4e4:	e3c99003 	bic	r9, r9, #3
8010a4e8:	e0899005 	add	r9, r9, r5
8010a4ec:	e2840010 	add	r0, r4, #16
8010a4f0:	e1590000 	cmp	r9, r0
8010a4f4:	aa00009a 	bge	8010a764 <_realloc_r+0x460>
8010a4f8:	e3110001 	tst	r1, #1
8010a4fc:	1affffa8 	bne	8010a3a4 <_realloc_r+0xa0>
8010a500:	e516b008 	ldr	fp, [r6, #-8]
8010a504:	e047b00b 	sub	fp, r7, fp
8010a508:	e59b1004 	ldr	r1, [fp, #4]
8010a50c:	e3c11003 	bic	r1, r1, #3
8010a510:	e0899001 	add	r9, r9, r1
8010a514:	e1500009 	cmp	r0, r9
8010a518:	ca00003c 	bgt	8010a610 <_realloc_r+0x30c>
8010a51c:	e1a0a00b 	mov	sl, fp
8010a520:	e59b100c 	ldr	r1, [fp, #12]
8010a524:	e5ba0008 	ldr	r0, [sl, #8]!
8010a528:	e2452004 	sub	r2, r5, #4
8010a52c:	e3520024 	cmp	r2, #36	; 0x24
8010a530:	e580100c 	str	r1, [r0, #12]
8010a534:	e5810008 	str	r0, [r1, #8]
8010a538:	8a0000a6 	bhi	8010a7d8 <_realloc_r+0x4d4>
8010a53c:	e3520013 	cmp	r2, #19
8010a540:	e5961000 	ldr	r1, [r6]
8010a544:	91a0200a 	movls	r2, sl
8010a548:	9a000015 	bls	8010a5a4 <_realloc_r+0x2a0>
8010a54c:	e58b1008 	str	r1, [fp, #8]
8010a550:	e5961004 	ldr	r1, [r6, #4]
8010a554:	e58b100c 	str	r1, [fp, #12]
8010a558:	e352001b 	cmp	r2, #27
8010a55c:	e5961008 	ldr	r1, [r6, #8]
8010a560:	928b2010 	addls	r2, fp, #16
8010a564:	92866008 	addls	r6, r6, #8
8010a568:	9a00000d 	bls	8010a5a4 <_realloc_r+0x2a0>
8010a56c:	e58b1010 	str	r1, [fp, #16]
8010a570:	e596100c 	ldr	r1, [r6, #12]
8010a574:	e58b1014 	str	r1, [fp, #20]
8010a578:	e3520024 	cmp	r2, #36	; 0x24
8010a57c:	05962010 	ldreq	r2, [r6, #16]
8010a580:	058b2018 	streq	r2, [fp, #24]
8010a584:	05962014 	ldreq	r2, [r6, #20]
8010a588:	058b201c 	streq	r2, [fp, #28]
8010a58c:	15961010 	ldrne	r1, [r6, #16]
8010a590:	05961018 	ldreq	r1, [r6, #24]
8010a594:	128b2018 	addne	r2, fp, #24
8010a598:	12866010 	addne	r6, r6, #16
8010a59c:	028b2020 	addeq	r2, fp, #32
8010a5a0:	02866018 	addeq	r6, r6, #24
8010a5a4:	e5821000 	str	r1, [r2]
8010a5a8:	e5961004 	ldr	r1, [r6, #4]
8010a5ac:	e5821004 	str	r1, [r2, #4]
8010a5b0:	e5961008 	ldr	r1, [r6, #8]
8010a5b4:	e5821008 	str	r1, [r2, #8]
8010a5b8:	e0499004 	sub	r9, r9, r4
8010a5bc:	e08b2004 	add	r2, fp, r4
8010a5c0:	e3899001 	orr	r9, r9, #1
8010a5c4:	e5832008 	str	r2, [r3, #8]
8010a5c8:	e5829004 	str	r9, [r2, #4]
8010a5cc:	e59b3004 	ldr	r3, [fp, #4]
8010a5d0:	e2033001 	and	r3, r3, #1
8010a5d4:	e1834004 	orr	r4, r3, r4
8010a5d8:	e1a00008 	mov	r0, r8
8010a5dc:	e58b4004 	str	r4, [fp, #4]
8010a5e0:	ebfff5ed 	bl	80107d9c <__malloc_unlock>
8010a5e4:	eaffff8b 	b	8010a418 <_realloc_r+0x114>
8010a5e8:	e3110001 	tst	r1, #1
8010a5ec:	1affff6c 	bne	8010a3a4 <_realloc_r+0xa0>
8010a5f0:	e516b008 	ldr	fp, [r6, #-8]
8010a5f4:	e047b00b 	sub	fp, r7, fp
8010a5f8:	e59b1004 	ldr	r1, [fp, #4]
8010a5fc:	e3c11003 	bic	r1, r1, #3
8010a600:	e0810000 	add	r0, r1, r0
8010a604:	e0803005 	add	r3, r0, r5
8010a608:	e1530002 	cmp	r3, r2
8010a60c:	aa00002e 	bge	8010a6cc <_realloc_r+0x3c8>
8010a610:	e0853001 	add	r3, r5, r1
8010a614:	e1530002 	cmp	r3, r2
8010a618:	baffff61 	blt	8010a3a4 <_realloc_r+0xa0>
8010a61c:	e1a0a00b 	mov	sl, fp
8010a620:	e59b100c 	ldr	r1, [fp, #12]
8010a624:	e5ba0008 	ldr	r0, [sl, #8]!
8010a628:	e2452004 	sub	r2, r5, #4
8010a62c:	e3520024 	cmp	r2, #36	; 0x24
8010a630:	e580100c 	str	r1, [r0, #12]
8010a634:	e08b9003 	add	r9, fp, r3
8010a638:	e5810008 	str	r0, [r1, #8]
8010a63c:	8a00003e 	bhi	8010a73c <_realloc_r+0x438>
8010a640:	e3520013 	cmp	r2, #19
8010a644:	e5961000 	ldr	r1, [r6]
8010a648:	91a0200a 	movls	r2, sl
8010a64c:	9a000015 	bls	8010a6a8 <_realloc_r+0x3a4>
8010a650:	e58b1008 	str	r1, [fp, #8]
8010a654:	e5961004 	ldr	r1, [r6, #4]
8010a658:	e58b100c 	str	r1, [fp, #12]
8010a65c:	e352001b 	cmp	r2, #27
8010a660:	e5961008 	ldr	r1, [r6, #8]
8010a664:	928b2010 	addls	r2, fp, #16
8010a668:	92866008 	addls	r6, r6, #8
8010a66c:	9a00000d 	bls	8010a6a8 <_realloc_r+0x3a4>
8010a670:	e58b1010 	str	r1, [fp, #16]
8010a674:	e596100c 	ldr	r1, [r6, #12]
8010a678:	e58b1014 	str	r1, [fp, #20]
8010a67c:	e3520024 	cmp	r2, #36	; 0x24
8010a680:	05962010 	ldreq	r2, [r6, #16]
8010a684:	058b2018 	streq	r2, [fp, #24]
8010a688:	05962014 	ldreq	r2, [r6, #20]
8010a68c:	058b201c 	streq	r2, [fp, #28]
8010a690:	15961010 	ldrne	r1, [r6, #16]
8010a694:	05961018 	ldreq	r1, [r6, #24]
8010a698:	128b2018 	addne	r2, fp, #24
8010a69c:	12866010 	addne	r6, r6, #16
8010a6a0:	028b2020 	addeq	r2, fp, #32
8010a6a4:	02866018 	addeq	r6, r6, #24
8010a6a8:	e5821000 	str	r1, [r2]
8010a6ac:	e5961004 	ldr	r1, [r6, #4]
8010a6b0:	e5821004 	str	r1, [r2, #4]
8010a6b4:	e5961008 	ldr	r1, [r6, #8]
8010a6b8:	e1a05003 	mov	r5, r3
8010a6bc:	e1a0700b 	mov	r7, fp
8010a6c0:	e5821008 	str	r1, [r2, #8]
8010a6c4:	e1a0600a 	mov	r6, sl
8010a6c8:	eaffff60 	b	8010a450 <_realloc_r+0x14c>
8010a6cc:	e1a0a00b 	mov	sl, fp
8010a6d0:	e2891008 	add	r1, r9, #8
8010a6d4:	e8910006 	ldm	r1, {r1, r2}
8010a6d8:	e581200c 	str	r2, [r1, #12]
8010a6dc:	e5821008 	str	r1, [r2, #8]
8010a6e0:	e2452004 	sub	r2, r5, #4
8010a6e4:	e59b100c 	ldr	r1, [fp, #12]
8010a6e8:	e5ba0008 	ldr	r0, [sl, #8]!
8010a6ec:	eaffffce 	b	8010a62c <_realloc_r+0x328>
8010a6f0:	e58a1000 	str	r1, [sl]
8010a6f4:	e5963004 	ldr	r3, [r6, #4]
8010a6f8:	e352001b 	cmp	r2, #27
8010a6fc:	e58a3004 	str	r3, [sl, #4]
8010a700:	8a000024 	bhi	8010a798 <_realloc_r+0x494>
8010a704:	e2862008 	add	r2, r6, #8
8010a708:	e28a3008 	add	r3, sl, #8
8010a70c:	e5961008 	ldr	r1, [r6, #8]
8010a710:	eaffff36 	b	8010a3f0 <_realloc_r+0xec>
8010a714:	e516b008 	ldr	fp, [r6, #-8]
8010a718:	e047b00b 	sub	fp, r7, fp
8010a71c:	e59b1004 	ldr	r1, [fp, #4]
8010a720:	e3c11003 	bic	r1, r1, #3
8010a724:	eaffffb9 	b	8010a610 <_realloc_r+0x30c>
8010a728:	e51a3004 	ldr	r3, [sl, #-4]
8010a72c:	e3c33003 	bic	r3, r3, #3
8010a730:	e0855003 	add	r5, r5, r3
8010a734:	e0879005 	add	r9, r7, r5
8010a738:	eaffff44 	b	8010a450 <_realloc_r+0x14c>
8010a73c:	e1a01006 	mov	r1, r6
8010a740:	e1a0000a 	mov	r0, sl
8010a744:	e1a05003 	mov	r5, r3
8010a748:	e1a0700b 	mov	r7, fp
8010a74c:	ebfffe9c 	bl	8010a1c4 <memmove>
8010a750:	e1a0600a 	mov	r6, sl
8010a754:	eaffff3d 	b	8010a450 <_realloc_r+0x14c>
8010a758:	e1a01006 	mov	r1, r6
8010a75c:	ebfffe98 	bl	8010a1c4 <memmove>
8010a760:	eaffff27 	b	8010a404 <_realloc_r+0x100>
8010a764:	e0499004 	sub	r9, r9, r4
8010a768:	e0877004 	add	r7, r7, r4
8010a76c:	e3899001 	orr	r9, r9, #1
8010a770:	e5837008 	str	r7, [r3, #8]
8010a774:	e5879004 	str	r9, [r7, #4]
8010a778:	e5163004 	ldr	r3, [r6, #-4]
8010a77c:	e2033001 	and	r3, r3, #1
8010a780:	e1834004 	orr	r4, r3, r4
8010a784:	e1a00008 	mov	r0, r8
8010a788:	e5064004 	str	r4, [r6, #-4]
8010a78c:	ebfff582 	bl	80107d9c <__malloc_unlock>
8010a790:	e1a0a006 	mov	sl, r6
8010a794:	eaffff1f 	b	8010a418 <_realloc_r+0x114>
8010a798:	e5963008 	ldr	r3, [r6, #8]
8010a79c:	e58a3008 	str	r3, [sl, #8]
8010a7a0:	e596300c 	ldr	r3, [r6, #12]
8010a7a4:	e58a300c 	str	r3, [sl, #12]
8010a7a8:	e3520024 	cmp	r2, #36	; 0x24
8010a7ac:	05963010 	ldreq	r3, [r6, #16]
8010a7b0:	058a3010 	streq	r3, [sl, #16]
8010a7b4:	05963014 	ldreq	r3, [r6, #20]
8010a7b8:	058a3014 	streq	r3, [sl, #20]
8010a7bc:	12862010 	addne	r2, r6, #16
8010a7c0:	128a3010 	addne	r3, sl, #16
8010a7c4:	15961010 	ldrne	r1, [r6, #16]
8010a7c8:	02862018 	addeq	r2, r6, #24
8010a7cc:	05961018 	ldreq	r1, [r6, #24]
8010a7d0:	028a3018 	addeq	r3, sl, #24
8010a7d4:	eaffff05 	b	8010a3f0 <_realloc_r+0xec>
8010a7d8:	e1a01006 	mov	r1, r6
8010a7dc:	e1a0000a 	mov	r0, sl
8010a7e0:	e58d3004 	str	r3, [sp, #4]
8010a7e4:	ebfffe76 	bl	8010a1c4 <memmove>
8010a7e8:	e59d3004 	ldr	r3, [sp, #4]
8010a7ec:	eaffff71 	b	8010a5b8 <_realloc_r+0x2b4>
8010a7f0:	8010b124 	.word	0x8010b124

Disassembly of section .text._wctomb_r:

8010a7f4 <_wctomb_r>:
8010a7f4:	e59fc024 	ldr	ip, [pc, #36]	; 8010a820 <_wctomb_r+0x2c>
8010a7f8:	e59cc000 	ldr	ip, [ip]
8010a7fc:	e59cc034 	ldr	ip, [ip, #52]	; 0x34
8010a800:	e52de004 	push	{lr}		; (str lr, [sp, #-4]!)
8010a804:	e59fe018 	ldr	lr, [pc, #24]	; 8010a824 <_wctomb_r+0x30>
8010a808:	e35c0000 	cmp	ip, #0
8010a80c:	01a0c00e 	moveq	ip, lr
8010a810:	e59ce0e0 	ldr	lr, [ip, #224]	; 0xe0
8010a814:	e1a0c00e 	mov	ip, lr
8010a818:	e49de004 	pop	{lr}		; (ldr lr, [sp], #4)
8010a81c:	e12fff1c 	bx	ip
8010a820:	8010acf4 	.word	0x8010acf4
8010a824:	8010b534 	.word	0x8010b534

Disassembly of section .text.__ascii_wctomb:

8010a828 <__ascii_wctomb>:
8010a828:	e3510000 	cmp	r1, #0
8010a82c:	0a000005 	beq	8010a848 <__ascii_wctomb+0x20>
8010a830:	e35200ff 	cmp	r2, #255	; 0xff
8010a834:	83a0308a 	movhi	r3, #138	; 0x8a
8010a838:	95c12000 	strbls	r2, [r1]
8010a83c:	83e01000 	mvnhi	r1, #0
8010a840:	93a01001 	movls	r1, #1
8010a844:	85803000 	strhi	r3, [r0]
8010a848:	e1a00001 	mov	r0, r1
8010a84c:	e12fff1e 	bx	lr
